

Microchip MPLAB XC8 Assembler V2.41 build 20230208172133 
                                                                                               Tue Sep 17 14:58:25 2024

Microchip MPLAB XC8 C Compiler v2.41 (Free license) build 20230208172133 Og1 
     1                           	processor	18F4550
     2                           	fnconf	rparam,??,?,0
     3                           	pagewidth 120
     4                           	opt	flic
     5                           	psect	smallconst,global,reloc=2,class=SMALLCONST,delta=1,noexec
     6                           	psect	cinit,global,reloc=2,class=CODE,delta=1
     7                           	psect	bssCOMRAM,global,class=COMRAM,space=1,delta=1,lowdata,noexec
     8                           	psect	bssBANK0,global,class=BANK0,space=1,delta=1,lowdata,noexec
     9                           	psect	cstackBANK0,global,class=BANK0,space=1,delta=1,lowdata,noexec
    10                           	psect	cstackCOMRAM,global,class=COMRAM,space=1,delta=1,lowdata,noexec
    11                           	psect	text0,global,reloc=2,class=CODE,delta=1
    12                           	psect	text1,global,reloc=2,class=CODE,delta=1
    13                           	psect	text2,global,reloc=2,class=CODE,delta=1,group=2
    14                           	psect	text3,global,reloc=2,class=CODE,delta=1
    15                           	psect	text4,global,reloc=2,class=CODE,delta=1
    16                           	psect	text5,global,reloc=2,class=CODE,delta=1
    17                           	psect	text6,global,reloc=2,class=CODE,delta=1
    18                           	psect	text7,global,reloc=2,class=CODE,delta=1
    19                           	psect	text8,global,reloc=2,class=CODE,delta=1
    20                           	psect	text9,global,reloc=2,class=CODE,delta=1
    21                           	psect	text10,global,reloc=2,class=CODE,delta=1
    22                           	psect	text11,global,reloc=2,class=CODE,delta=1
    23                           	psect	text12,global,reloc=2,class=CODE,delta=1
    24                           	psect	text13,global,reloc=2,class=CODE,delta=1
    25                           	psect	intcode,global,reloc=2,class=CODE,delta=1
    26                           	psect	intcode_body,global,reloc=2,class=CODE,delta=1
    27                           	psect	text15,global,reloc=2,class=CODE,delta=1
    28                           	psect	text16,global,reloc=2,class=CODE,delta=1
    29                           	psect	text17,global,reloc=2,class=CODE,delta=1
    30                           	psect	text18,global,reloc=2,class=CODE,delta=1
    31                           	psect	text19,global,reloc=2,class=CODE,delta=1
    32                           	psect	text20,global,reloc=2,class=CODE,delta=1
    33                           	psect	text21,global,reloc=2,class=CODE,delta=1
    34                           	psect	text22,global,reloc=2,class=CODE,delta=1,group=2
    35                           	psect	text23,global,reloc=2,class=CODE,delta=1
    36                           	psect	text24,global,reloc=2,class=CODE,delta=1
    37                           	psect	text25,global,reloc=2,class=CODE,delta=1
    38                           	psect	text26,global,reloc=2,class=CODE,delta=1
    39                           	psect	text27,global,reloc=2,class=CODE,delta=1
    40                           	psect	text28,global,reloc=2,class=CODE,delta=1
    41                           	psect	text29,global,reloc=2,class=CODE,delta=1
    42                           	psect	text30,global,reloc=2,class=CODE,delta=1
    43                           	psect	text31,global,reloc=2,class=CODE,delta=1
    44                           	psect	text32,global,reloc=2,class=CODE,delta=1
    45                           	psect	text33,global,reloc=2,class=CODE,delta=1
    46                           	psect	text34,global,reloc=2,class=CODE,delta=1
    47                           	psect	text35,global,reloc=2,class=CODE,delta=1
    48                           	psect	text36,global,reloc=2,class=CODE,delta=1
    49                           	psect	text37,global,reloc=2,class=CODE,delta=1
    50                           	psect	text38,global,reloc=2,class=CODE,delta=1
    51                           	psect	text39,global,reloc=2,class=CODE,delta=1
    52                           	psect	text40,global,reloc=2,class=CODE,delta=1
    53                           	psect	text41,global,reloc=2,class=CODE,delta=1
    54                           	psect	text42,global,reloc=2,class=CODE,delta=1
    55                           	psect	text43,global,reloc=2,class=CODE,delta=1
    56                           	psect	text44,global,reloc=2,class=CODE,delta=1
    57                           	psect	text45,global,reloc=2,class=CODE,delta=1
    58                           	psect	text46,global,reloc=2,class=CODE,delta=1
    59                           	psect	text47,global,reloc=2,class=CODE,delta=1
    60                           	psect	text48,global,reloc=2,class=CODE,delta=1
    61                           	psect	text49,global,reloc=2,class=CODE,delta=1
    62                           	psect	text50,global,reloc=2,class=CODE,delta=1
    63                           	psect	intsave_regs,global,class=BIGRAM,space=1,delta=1,noexec
    64                           	psect	rparam,global,class=COMRAM,space=1,delta=1,noexec
    65                           	psect	temp,global,ovrld,common,class=COMRAM,space=1,delta=1
    66                           	psect	idloc,global,abs,ovrld,class=IDLOC,space=5,delta=1,noexec
    67                           	psect	config,global,abs,ovrld,class=CONFIG,space=4,delta=1,noexec
    68                           	dabs	1,0x400,32,_BDT
    69                           	dabs	1,0x500,64,_ReceivedDataBuffer
    70                           	dabs	1,0x428,8,_CtrlTrfData
    71                           	dabs	1,0x420,8,_SetupPkt
    72                           	dabs	1,0x540,64,_ToSendDataBuffer
    73   000000                     
    74                           ; Version 2.40
    75                           ; Generated 17/11/2021 GMT
    76                           ; 
    77                           ; Copyright © 2021, Microchip Technology Inc. and its subsidiaries ("Microchip")
    78                           ; All rights reserved.
    79                           ; 
    80                           ; This software is developed by Microchip Technology Inc. and its subsidiaries ("Microch
      +                          ip").
    81                           ; 
    82                           ; Redistribution and use in source and binary forms, with or without modification, are
    83                           ; permitted provided that the following conditions are met:
    84                           ; 
    85                           ;     1. Redistributions of source code must retain the above copyright notice, this lis
      +                          t of
    86                           ;        conditions and the following disclaimer.
    87                           ; 
    88                           ;     2. Redistributions in binary form must reproduce the above copyright notice, this 
      +                          list
    89                           ;        of conditions and the following disclaimer in the documentation and/or other
    90                           ;        materials provided with the distribution. Publication is not required when
    91                           ;        this file is used in an embedded application.
    92                           ; 
    93                           ;     3. Microchip's name may not be used to endorse or promote products derived from th
      +                          is
    94                           ;        software without specific prior written permission.
    95                           ; 
    96                           ; THIS SOFTWARE IS PROVIDED BY MICROCHIP "AS IS" AND ANY EXPRESS OR IMPLIED WARRANTIES,
    97                           ; INCLUDING, BUT NOT LIMITED TO, THE IMPLIED WARRANTIES OF MERCHANTABILITY AND FITNESS F
      +                          OR
    98                           ; PURPOSE ARE DISCLAIMED.  IN NO EVENT SHALL MICROCHIP BE LIABLE FOR ANY DIRECT, INDIREC
      +                          T,
    99                           ; INCIDENTAL, SPECIAL, EXEMPLARY, OR CONSEQUENTIAL DAMAGES (INCLUDING BUT NOT LIMITED TO
   100                           ; PROCUREMENT OF SUBSTITUTE GOODS OR SERVICES; LOSS OF USE, DATA OR PROFITS; OR BUSINESS
   101                           ; INTERRUPTION) HOWSOEVER CAUSED AND ON ANY THEORY OF LIABILITY, WHETHER IN CONTRACT, ST
      +                          RICT
   102                           ; LIABILITY, OR TORT (INCLUDING NEGLIGENCE OR OTHERWISE) ARISING IN ANY WAY OUT OF THE U
      +                          SE OF
   103                           ; THIS SOFTWARE, EVEN IF ADVISED OF THE POSSIBILITY OF SUCH DAMAGE.
   104                           ; 
   105                           ; 
   106                           ; Code-generator required, PIC18F4550 Definitions
   107                           ; 
   108                           ; SFR Addresses
   109   000000                     
   110                           	psect	smallconst
   111   000800                     __psmallconst:
   112                           	callstack 0
   113   000800  00                 	db	0
   114   000801                     _USB_SD_Ptr:
   115                           	callstack 0
   116   000801  C3                 	db	low _sd000
   117   000802  08                 	db	high _sd000
   118   000803  09                 	db	low _sd001
   119   000804  08                 	db	high _sd001
   120   000805  3D                 	db	low _sd002
   121   000806  08                 	db	high _sd002
   122   000807                     __end_of_USB_SD_Ptr:
   123                           	callstack 0
   124   000807                     _USB_CD_Ptr:
   125                           	callstack 0
   126   000807  6B                 	db	low _configDescriptor1
   127   000808  08                 	db	high _configDescriptor1
   128   000809                     __end_of_USB_CD_Ptr:
   129                           	callstack 0
   130   000809                     _sd001:
   131                           	callstack 0
   132   000809  34                 	db	52
   133   00080A  03                 	db	3
   134   00080B  004D               	dw	77
   135   00080D  0069               	dw	105
   136   00080F  0063               	dw	99
   137   000811  0072               	dw	114
   138   000813  006F               	dw	111
   139   000815  0063               	dw	99
   140   000817  0068               	dw	104
   141   000819  0069               	dw	105
   142   00081B  0070               	dw	112
   143   00081D  0020               	dw	32
   144   00081F  0054               	dw	84
   145   000821  0065               	dw	101
   146   000823  0063               	dw	99
   147   000825  0068               	dw	104
   148   000827  006E               	dw	110
   149   000829  006F               	dw	111
   150   00082B  006C               	dw	108
   151   00082D  006F               	dw	111
   152   00082F  0067               	dw	103
   153   000831  0079               	dw	121
   154   000833  0020               	dw	32
   155   000835  0049               	dw	73
   156   000837  006E               	dw	110
   157   000839  0063               	dw	99
   158   00083B  002E               	dw	46
   159   00083D                     __end_of_sd001:
   160                           	callstack 0
   161   00083D                     _sd002:
   162                           	callstack 0
   163   00083D  2E                 	db	46
   164   00083E  03                 	db	3
   165   00083F  0053               	dw	83
   166   000841  0069               	dw	105
   167   000843  006D               	dw	109
   168   000845  0070               	dw	112
   169   000847  006C               	dw	108
   170   000849  0065               	dw	101
   171   00084B  0020               	dw	32
   172   00084D  0048               	dw	72
   173   00084F  0049               	dw	73
   174   000851  0044               	dw	68
   175   000853  0020               	dw	32
   176   000855  0044               	dw	68
   177   000857  0065               	dw	101
   178   000859  0076               	dw	118
   179   00085B  0069               	dw	105
   180   00085D  0063               	dw	99
   181   00085F  0065               	dw	101
   182   000861  0020               	dw	32
   183   000863  0044               	dw	68
   184   000865  0065               	dw	101
   185   000867  006D               	dw	109
   186   000869  006F               	dw	111
   187   00086B                     __end_of_sd002:
   188                           	callstack 0
   189   00086B                     _configDescriptor1:
   190                           	callstack 0
   191   00086B  09                 	db	9
   192   00086C  02                 	db	2
   193   00086D  29                 	db	41
   194   00086E  00                 	db	0
   195   00086F  01                 	db	1
   196   000870  01                 	db	1
   197   000871  00                 	db	0
   198   000872  C0                 	db	192
   199   000873  32                 	db	50
   200   000874  09                 	db	9
   201   000875  04                 	db	4
   202   000876  00                 	db	0
   203   000877  00                 	db	0
   204   000878  02                 	db	2
   205   000879  03                 	db	3
   206   00087A  00                 	db	0
   207   00087B  00                 	db	0
   208   00087C  00                 	db	0
   209   00087D  09                 	db	9
   210   00087E  21                 	db	33
   211   00087F  11                 	db	17
   212   000880  01                 	db	1
   213   000881  00                 	db	0
   214   000882  01                 	db	1
   215   000883  22                 	db	34
   216   000884  1D                 	db	29
   217   000885  00                 	db	0
   218   000886  07                 	db	7
   219   000887  05                 	db	5
   220   000888  81                 	db	129
   221   000889  03                 	db	3
   222   00088A  40                 	db	64
   223   00088B  00                 	db	0
   224   00088C  01                 	db	1
   225   00088D  07                 	db	7
   226   00088E  05                 	db	5
   227   00088F  01                 	db	1
   228   000890  03                 	db	3
   229   000891  40                 	db	64
   230   000892  00                 	db	0
   231   000893  01                 	db	1
   232   000894                     __end_of_configDescriptor1:
   233                           	callstack 0
   234   000894                     _hid_rpt01:
   235                           	callstack 0
   236   000894  06                 	db	6
   237   000895  00                 	db	0
   238   000896  FF                 	db	255
   239   000897  09                 	db	9
   240   000898  01                 	db	1
   241   000899  A1                 	db	161
   242   00089A  01                 	db	1
   243   00089B  19                 	db	25
   244   00089C  01                 	db	1
   245   00089D  29                 	db	41
   246   00089E  40                 	db	64
   247   00089F  15                 	db	21
   248   0008A0  00                 	db	0
   249   0008A1  26                 	db	38
   250   0008A2  FF                 	db	255
   251   0008A3  00                 	db	0
   252   0008A4  75                 	db	117
   253   0008A5  08                 	db	8
   254   0008A6  95                 	db	149
   255   0008A7  40                 	db	64
   256   0008A8  81                 	db	129
   257   0008A9  00                 	db	0
   258   0008AA  19                 	db	25
   259   0008AB  01                 	db	1
   260   0008AC  29                 	db	41
   261   0008AD  40                 	db	64
   262   0008AE  91                 	db	145
   263   0008AF  00                 	db	0
   264   0008B0  C0                 	db	192
   265   0008B1                     __end_of_hid_rpt01:
   266                           	callstack 0
   267   0008B1                     _device_dsc:
   268                           	callstack 0
   269   0008B1  12                 	db	18
   270   0008B2  01                 	db	1
   271   0008B3  0200               	dw	512
   272   0008B5  00                 	db	0
   273   0008B6  00                 	db	0
   274   0008B7  00                 	db	0
   275   0008B8  08                 	db	8
   276   0008B9  04D8               	dw	1240
   277   0008BB  003F               	dw	63
   278   0008BD  0100               	dw	256
   279   0008BF  01                 	db	1
   280   0008C0  02                 	db	2
   281   0008C1  00                 	db	0
   282   0008C2  01                 	db	1
   283   0008C3                     __end_of_device_dsc:
   284                           	callstack 0
   285   0008C3                     _sd000:
   286                           	callstack 0
   287   0008C3  04                 	db	4
   288   0008C4  03                 	db	3
   289   0008C5  0409               	dw	1033
   290   0008C7                     __end_of_sd000:
   291                           	callstack 0
   292   000000                     _USTAT	set	3948
   293   000000                     _UADDR	set	3950
   294   000000                     _UCONbits	set	3949
   295   000000                     _UIE	set	3945
   296   000000                     _UEIE	set	3947
   297   000000                     _UCFG	set	3951
   298   000000                     _ADRESL	set	4035
   299   000000                     _ADRESH	set	4036
   300   000000                     _UEP0	set	3952
   301   000000                     _UEP0bits	set	3952
   302   000000                     _UCON	set	3949
   303   000000                     _UIEbits	set	3945
   304   000000                     _UIRbits	set	3944
   305   000000                     _ADCON2bits	set	4032
   306   000000                     _ADCON0	set	4034
   307   000000                     _UIR	set	3944
   308   000000                     _UEIR	set	3946
   309   000000                     _PORTBbits	set	3969
   310   000000                     _LATDbits	set	3980
   311   000000                     _TRISBbits	set	3987
   312   000000                     _TRISDbits	set	3989
   313   000000                     _TRISAbits	set	3986
   314   000000                     _PIE2bits	set	4000
   315   000000                     _ADCON2	set	4032
   316   000000                     _ADCON1bits	set	4033
   317   000000                     _ADCON0bits	set	4034
   318   000000                     _RCONbits	set	4048
   319   000000                     _IPR2bits	set	4002
   320   000000                     _PIR2bits	set	4001
   321   000000                     _UEP1	set	3953
   322   000000                     _INTCONbits	set	4082
   323   0008C7  00                 	db	0	; dummy byte at the end
   324   000000                     
   325                           ; #config settings
   326                           
   327                           	psect	cinit
   328   002F1C                     __pcinit:
   329                           	callstack 0
   330   002F1C                     start_initialization:
   331                           	callstack 0
   332   002F1C                     __initialization:
   333                           	callstack 0
   334                           
   335                           ; Clear objects allocated to BANK0 (30 bytes)
   336   002F1C  EE00  F060         	lfsr	0,__pbssBANK0
   337   002F20  0E1E               	movlw	30
   338   002F22                     clear_0:
   339   002F22  6AEE               	clrf	postinc0,c
   340   002F24  06E8               	decf	wreg,f,c
   341   002F26  E1FD               	bnz	clear_0
   342                           
   343                           ; Clear objects allocated to COMRAM (31 bytes)
   344   002F28  EE00  F032         	lfsr	0,__pbssCOMRAM
   345   002F2C  0E1F               	movlw	31
   346   002F2E                     clear_1:
   347   002F2E  6AEE               	clrf	postinc0,c
   348   002F30  06E8               	decf	wreg,f,c
   349   002F32  E1FD               	bnz	clear_1
   350   002F34                     end_of_initialization:
   351                           	callstack 0
   352   002F34                     __end_of__initialization:
   353                           	callstack 0
   354   002F34  9051               	bcf	int$flags,0,c	;clear compiler interrupt flag (level 1)
   355   002F36  9251               	bcf	int$flags,1,c	;clear compiler interrupt flag (level 2)
   356   002F38  0E00               	movlw	low (__Lmediumconst shr (0+16))
   357   002F3A  6EF8               	movwf	tblptru,c
   358   002F3C  0100               	movlb	0
   359   002F3E  EFC7  F017         	goto	_main	;jump to C main() function
   360                           
   361                           	psect	bssCOMRAM
   362   000032                     __pbssCOMRAM:
   363                           	callstack 0
   364   000032                     _USB1msTickCount:
   365                           	callstack 0
   366   000032                     	ds	4
   367   000036                     APP_LEDUpdateUSBStatus@ledCount:
   368                           	callstack 0
   369   000036                     	ds	2
   370   000038                     _pDst:
   371                           	callstack 0
   372   000038                     	ds	2
   373   00003A                     _pBDTEntryEP0OutNext:
   374                           	callstack 0
   375   00003A                     	ds	2
   376   00003C                     _pBDTEntryEP0OutCurrent:
   377                           	callstack 0
   378   00003C                     	ds	2
   379   00003E                     _USBTicksSinceSuspendEnd:
   380                           	callstack 0
   381   00003E                     	ds	1
   382   00003F                     _USBDeferOUTDataStagePackets:
   383                           	callstack 0
   384   00003F                     	ds	1
   385   000040                     _USBDeferINDataStagePackets:
   386                           	callstack 0
   387   000040                     	ds	1
   388   000041                     _USBStatusStageEnabledFlag2:
   389                           	callstack 0
   390   000041                     	ds	1
   391   000042                     _USBStatusStageEnabledFlag1:
   392                           	callstack 0
   393   000042                     	ds	1
   394   000043                     _USBDeferStatusStagePacket:
   395                           	callstack 0
   396   000043                     	ds	1
   397   000044                     _USBStatusStageTimeoutCounter:
   398                           	callstack 0
   399   000044                     	ds	1
   400   000045                     _BothEP0OutUOWNsSet:
   401                           	callstack 0
   402   000045                     	ds	1
   403   000046                     _endpoint_number:
   404                           	callstack 0
   405   000046                     	ds	1
   406   000047                     _USBBusIsSuspended:
   407                           	callstack 0
   408   000047                     	ds	1
   409   000048                     _RemoteWakeup:
   410                           	callstack 0
   411   000048                     	ds	1
   412   000049                     _controlTransferState:
   413                           	callstack 0
   414   000049                     	ds	1
   415   00004A                     _shortPacketStatus:
   416                           	callstack 0
   417   00004A                     	ds	1
   418   00004B                     _USBDeviceState:
   419                           	callstack 0
   420   00004B                     	ds	1
   421   00004C                     _active_protocol:
   422                           	callstack 0
   423   00004C                     	ds	1
   424   00004D                     _idle_rate:
   425                           	callstack 0
   426   00004D                     	ds	1
   427   00004E                     _USTATcopy:
   428                           	callstack 0
   429   00004E                     	ds	1
   430   00004F                     _USBAlternateInterface:
   431                           	callstack 0
   432   00004F                     	ds	1
   433   000050                     _USBActiveConfiguration:
   434                           	callstack 0
   435   000050                     	ds	1
   436                           
   437                           	psect	bssBANK0
   438   000060                     __pbssBANK0:
   439                           	callstack 0
   440   000060                     _outPipes:
   441                           	callstack 0
   442   000060                     	ds	8
   443   000068                     _inPipes:
   444                           	callstack 0
   445   000068                     	ds	6
   446   00006E                     _pBDTEntryIn:
   447                           	callstack 0
   448   00006E                     	ds	4
   449   000072                     _pBDTEntryOut:
   450                           	callstack 0
   451   000072                     	ds	4
   452   000076                     _USBInHandle:
   453                           	callstack 0
   454   000076                     	ds	2
   455   000078                     _USBOutHandle:
   456                           	callstack 0
   457   000078                     	ds	2
   458   00007A                     _ep_data_out:
   459                           	callstack 0
   460   00007A                     	ds	2
   461   00007C                     _ep_data_in:
   462                           	callstack 0
   463   00007C                     	ds	2
   464                           
   465                           	psect	cstackBANK0
   466   00007E                     __pcstackBANK0:
   467                           	callstack 0
   468   00007E                     ??_USBTransferOnePacket:
   469   00007E                     ??_SYSTEM_Initialize:
   470   00007E                     ADC_Read10bit@result:
   471                           	callstack 0
   472   00007E                     memset@dest:
   473                           	callstack 0
   474                           
   475                           ; 2 bytes @ 0x0
   476   00007E                     	ds	2
   477   000080                     ADC_Read10bit@channel:
   478                           	callstack 0
   479   000080                     memset@c:
   480                           	callstack 0
   481                           
   482                           ; 2 bytes @ 0x2
   483   000080                     	ds	2
   484   000082                     USBTransferOnePacket@ep:
   485                           	callstack 0
   486   000082                     memset@n:
   487                           	callstack 0
   488                           
   489                           ; 2 bytes @ 0x4
   490   000082                     	ds	1
   491   000083                     USBTransferOnePacket@handle:
   492                           	callstack 0
   493                           
   494                           ; 2 bytes @ 0x5
   495   000083                     	ds	1
   496   000084                     memset@k:
   497                           	callstack 0
   498                           
   499                           ; 2 bytes @ 0x6
   500   000084                     	ds	1
   501   000085                     ??_APP_DeviceCustomHIDTasks:
   502                           
   503                           ; 1 bytes @ 0x7
   504   000085                     	ds	1
   505   000086                     memset@s:
   506                           	callstack 0
   507                           
   508                           ; 2 bytes @ 0x8
   509   000086                     	ds	1
   510   000087                     APP_DeviceCustomHIDTasks@pot:
   511                           	callstack 0
   512                           
   513                           ; 2 bytes @ 0x9
   514   000087                     	ds	2
   515                           
   516                           	psect	cstackCOMRAM
   517   000001                     __pcstackCOMRAM:
   518                           	callstack 0
   519   000001                     ??_LED_On:
   520   000001                     ??_LED_Off:
   521   000001                     ??_USBStdGetDscHandler:
   522   000001                     ??_USBStdGetStatusHandler:
   523   000001                     ??_USBCheckHIDRequest:
   524   000001                     ??i2_BUTTON_Enable:
   525   000001                     ??i2_LED_Enable:
   526   000001                     ??i2_ADC_Enable:
   527   000001                     ?i2_USBTransferOnePacket:
   528                           	callstack 0
   529   000001                     USBConfigureEndpoint@direction:
   530                           	callstack 0
   531   000001                     USBCtrlTrfTxService@byteToSend:
   532                           	callstack 0
   533   000001                     USBCtrlTrfRxService@i:
   534                           	callstack 0
   535   000001                     i2ADC_SetConfiguration@configuration:
   536                           	callstack 0
   537   000001                     i2USBTransferOnePacket@dir:
   538                           	callstack 0
   539   000001                     memcpy@d1:
   540                           	callstack 0
   541   000001                     i2memset@dest:
   542                           	callstack 0
   543                           
   544                           ; 2 bytes @ 0x0
   545   000001                     	ds	1
   546   000002                     ??_USBConfigureEndpoint:
   547   000002                     USBCtrlTrfRxService@byteToRead:
   548                           	callstack 0
   549   000002                     USBCtrlTrfInHandler@lastDTS:
   550                           	callstack 0
   551   000002                     i2USBTransferOnePacket@data:
   552                           	callstack 0
   553                           
   554                           ; 2 bytes @ 0x1
   555   000002                     	ds	1
   556   000003                     LED_On@led:
   557                           	callstack 0
   558   000003                     LED_Off@led:
   559                           	callstack 0
   560   000003                     i2BUTTON_Enable@button:
   561                           	callstack 0
   562   000003                     i2LED_Enable@led:
   563                           	callstack 0
   564   000003                     i2ADC_Enable@channel:
   565                           	callstack 0
   566   000003                     USBStdGetStatusHandler@p:
   567                           	callstack 0
   568   000003                     memcpy@s1:
   569                           	callstack 0
   570   000003                     i2memset@c:
   571                           	callstack 0
   572                           
   573                           ; 2 bytes @ 0x2
   574   000003                     	ds	1
   575   000004                     ??_APP_LEDUpdateUSBStatus:
   576   000004                     ??i2_SYSTEM_Initialize:
   577   000004                     i2USBTransferOnePacket@len:
   578                           	callstack 0
   579                           
   580                           ; 1 bytes @ 0x3
   581   000004                     	ds	1
   582   000005                     ??i2_USBTransferOnePacket:
   583   000005                     memcpy@n:
   584                           	callstack 0
   585   000005                     i2memset@n:
   586                           	callstack 0
   587                           
   588                           ; 2 bytes @ 0x4
   589   000005                     	ds	1
   590   000006                     i2SYSTEM_Initialize@state:
   591                           	callstack 0
   592                           
   593                           ; 1 bytes @ 0x5
   594   000006                     	ds	1
   595   000007                     ??i2_memset:
   596   000007                     memcpy@d:
   597                           	callstack 0
   598                           
   599                           ; 2 bytes @ 0x6
   600   000007                     	ds	1
   601   000008                     USBConfigureEndpoint@EPNum:
   602                           	callstack 0
   603                           
   604                           ; 1 bytes @ 0x7
   605   000008                     	ds	1
   606   000009                     i2USBTransferOnePacket@ep:
   607                           	callstack 0
   608   000009                     USBConfigureEndpoint@handle:
   609                           	callstack 0
   610   000009                     memcpy@s:
   611                           	callstack 0
   612   000009                     i2memset@k:
   613                           	callstack 0
   614                           
   615                           ; 2 bytes @ 0x8
   616   000009                     	ds	1
   617   00000A                     i2USBTransferOnePacket@handle:
   618                           	callstack 0
   619                           
   620                           ; 2 bytes @ 0x9
   621   00000A                     	ds	1
   622   00000B                     USBEnableEndpoint@options:
   623                           	callstack 0
   624   00000B                     memcpy@tmp:
   625                           	callstack 0
   626   00000B                     i2memset@s:
   627                           	callstack 0
   628                           
   629                           ; 2 bytes @ 0xA
   630   00000B                     	ds	1
   631   00000C                     USBEnableEndpoint@p:
   632                           	callstack 0
   633                           
   634                           ; 2 bytes @ 0xB
   635   00000C                     	ds	1
   636   00000D                     i2USBDeviceInit@i:
   637                           	callstack 0
   638                           
   639                           ; 1 bytes @ 0xC
   640   00000D                     	ds	1
   641   00000E                     USBEnableEndpoint@ep:
   642                           	callstack 0
   643                           
   644                           ; 1 bytes @ 0xD
   645   00000E                     	ds	1
   646   00000F                     USER_USB_CALLBACK_EVENT_HANDLER@event:
   647                           	callstack 0
   648                           
   649                           ; 2 bytes @ 0xE
   650   00000F                     	ds	2
   651   000011                     USER_USB_CALLBACK_EVENT_HANDLER@pdata:
   652                           	callstack 0
   653                           
   654                           ; 2 bytes @ 0x10
   655   000011                     	ds	2
   656   000013                     USER_USB_CALLBACK_EVENT_HANDLER@size:
   657                           	callstack 0
   658                           
   659                           ; 2 bytes @ 0x12
   660   000013                     	ds	2
   661   000015                     ??_USER_USB_CALLBACK_EVENT_HANDLER:
   662                           
   663                           ; 1 bytes @ 0x14
   664   000015                     	ds	2
   665   000017                     ??_USBStdFeatureReqHandler:
   666   000017                     USBStdSetCfgHandler@i:
   667                           	callstack 0
   668                           
   669                           ; 1 bytes @ 0x16
   670   000017                     	ds	2
   671   000019                     USBStdFeatureReqHandler@pUEP:
   672                           	callstack 0
   673                           
   674                           ; 2 bytes @ 0x18
   675   000019                     	ds	2
   676   00001B                     USBStdFeatureReqHandler@current_ep_data:
   677                           	callstack 0
   678                           
   679                           ; 1 bytes @ 0x1A
   680   00001B                     	ds	1
   681   00001C                     USBStdFeatureReqHandler@p:
   682                           	callstack 0
   683                           
   684                           ; 2 bytes @ 0x1B
   685   00001C                     	ds	2
   686   00001E                     ??_USBCheckStdRequest:
   687                           
   688                           ; 1 bytes @ 0x1D
   689   00001E                     	ds	2
   690   000020                     ??_USBCtrlEPService:
   691   000020                     
   692                           ; 1 bytes @ 0x1F
   693   000020                     	ds	1
   694   000021                     USBDeviceTasks@i:
   695                           	callstack 0
   696                           
   697                           ; 1 bytes @ 0x20
   698   000021                     	ds	1
   699   000022                     ??_SYS_InterruptHigh:
   700                           
   701                           ; 1 bytes @ 0x21
   702   000022                     	ds	12
   703   00002E                     ??_memset:
   704   00002E                     ??_BUTTON_IsPressed:
   705   00002E                     ??_BUTTON_Enable:
   706   00002E                     ??_LED_Toggle:
   707   00002E                     ??_LED_Enable:
   708   00002E                     ??_ADC_Enable:
   709   00002E                     ?_ADC_Read10bit:
   710                           	callstack 0
   711   00002E                     ?_USBTransferOnePacket:
   712                           	callstack 0
   713   00002E                     ADC_SetConfiguration@configuration:
   714                           	callstack 0
   715   00002E                     USBTransferOnePacket@dir:
   716                           	callstack 0
   717                           
   718                           ; 1 bytes @ 0x2D
   719   00002E                     	ds	1
   720   00002F                     USBTransferOnePacket@data:
   721                           	callstack 0
   722                           
   723                           ; 2 bytes @ 0x2E
   724   00002F                     	ds	1
   725   000030                     ??_ADC_Read10bit:
   726   000030                     BUTTON_IsPressed@button:
   727                           	callstack 0
   728   000030                     BUTTON_Enable@button:
   729                           	callstack 0
   730   000030                     LED_Toggle@led:
   731                           	callstack 0
   732   000030                     LED_Enable@led:
   733                           	callstack 0
   734   000030                     ADC_Enable@channel:
   735                           	callstack 0
   736   000030                     USBDeviceInit@i:
   737                           	callstack 0
   738                           
   739                           ; 1 bytes @ 0x2F
   740   000030                     	ds	1
   741   000031                     USBTransferOnePacket@len:
   742                           	callstack 0
   743   000031                     SYSTEM_Initialize@state:
   744                           	callstack 0
   745                           
   746                           ; 1 bytes @ 0x30
   747   000031                     	ds	1
   748   000032                     
   749                           ; 1 bytes @ 0x31
   750 ;;
   751 ;;Main: autosize = 0, tempsize = 0, incstack = 0, save=0
   752 ;;
   753 ;; *************** function _main *****************
   754 ;; Defined at:
   755 ;;		line 31 in file "../demo_src/main.c"
   756 ;; Parameters:    Size  Location     Type
   757 ;;		None
   758 ;; Auto vars:     Size  Location     Type
   759 ;;		None
   760 ;; Return value:  Size  Location     Type
   761 ;;                  1    wreg      void 
   762 ;; Registers used:
   763 ;;		wreg, fsr2l, fsr2h, status,2, status,0, prodl, prodh, cstack
   764 ;; Tracked objects:
   765 ;;		On entry : 0/0
   766 ;;		On exit  : 0/0
   767 ;;		Unchanged: 0/0
   768 ;; Data sizes:     COMRAM   BANK0   BANK1   BANK2   BANK3   BANK4   BANK5   BANK6   BANK7
   769 ;;      Params:         0       0       0       0       0       0       0       0       0
   770 ;;      Locals:         0       0       0       0       0       0       0       0       0
   771 ;;      Temps:          0       0       0       0       0       0       0       0       0
   772 ;;      Totals:         0       0       0       0       0       0       0       0       0
   773 ;;Total ram usage:        0 bytes
   774 ;; Hardware stack levels required when called: 12
   775 ;; This function calls:
   776 ;;		_APP_DeviceCustomHIDTasks
   777 ;;		_SYSTEM_Initialize
   778 ;;		_USBDeviceAttach
   779 ;;		_USBDeviceInit
   780 ;; This function is called by:
   781 ;;		Startup code after reset
   782 ;; This function uses a non-reentrant model
   783 ;;
   784                           
   785                           	psect	text0
   786   002F8E                     __ptext0:
   787                           	callstack 0
   788   002F8E                     _main:
   789                           	callstack 19
   790   002F8E                     
   791                           ;../demo_src/main.c: 33:     SYSTEM_Initialize(SYSTEM_STATE_USB_START);
   792   002F8E  0E00               	movlw	0
   793   002F90  ECE2  F015         	call	_SYSTEM_Initialize
   794   002F94                     
   795                           ;../demo_src/main.c: 35:     USBDeviceInit();
   796   002F94  ECBF  F00C         	call	_USBDeviceInit	;wreg free
   797   002F98                     
   798                           ;../demo_src/main.c: 36:     USBDeviceAttach();
   799   002F98  EC8D  F016         	call	_USBDeviceAttach	;wreg free
   800   002F9C                     l5463:
   801                           
   802                           ;../demo_src/main.c: 39:     {;../demo_src/main.c: 59:         APP_DeviceCustomHIDTasks(
      +                          );
   803   002F9C  EC26  F007         	call	_APP_DeviceCustomHIDTasks	;wreg free
   804   002FA0  EFCE  F017         	goto	l5463
   805   002FA4  EF07  F000         	goto	start
   806   002FA8                     __end_of_main:
   807                           	callstack 0
   808                           
   809 ;; *************** function _USBDeviceInit *****************
   810 ;; Defined at:
   811 ;;		line 281 in file "../../../../../../framework/usb/src/usb_device.c"
   812 ;; Parameters:    Size  Location     Type
   813 ;;		None
   814 ;; Auto vars:     Size  Location     Type
   815 ;;  i               1   47[COMRAM] unsigned char 
   816 ;; Return value:  Size  Location     Type
   817 ;;                  1    wreg      void 
   818 ;; Registers used:
   819 ;;		wreg, fsr2l, fsr2h, status,2, status,0, prodl, prodh, cstack
   820 ;; Tracked objects:
   821 ;;		On entry : 0/0
   822 ;;		On exit  : 0/0
   823 ;;		Unchanged: 0/0
   824 ;; Data sizes:     COMRAM   BANK0   BANK1   BANK2   BANK3   BANK4   BANK5   BANK6   BANK7
   825 ;;      Params:         0       0       0       0       0       0       0       0       0
   826 ;;      Locals:         1       0       0       0       0       0       0       0       0
   827 ;;      Temps:          0       0       0       0       0       0       0       0       0
   828 ;;      Totals:         1       0       0       0       0       0       0       0       0
   829 ;;Total ram usage:        1 bytes
   830 ;; Hardware stack levels used: 1
   831 ;; Hardware stack levels required when called: 11
   832 ;; This function calls:
   833 ;;		_memset
   834 ;; This function is called by:
   835 ;;		_main
   836 ;; This function uses a non-reentrant model
   837 ;;
   838                           
   839                           	psect	text1
   840   00197E                     __ptext1:
   841                           	callstack 0
   842   00197E                     _USBDeviceInit:
   843                           	callstack 19
   844   00197E                     
   845                           ;../../../../../../framework/usb/src/usb_device.c: 283:     uint8_t i;;../../../../../..
      +                          /framework/usb/src/usb_device.c: 285:     {PIE2bits.USBIE = 0;};
   846   00197E  9AA0               	bcf	160,5,c	;volatile
   847   001980                     
   848                           ;../../../../../../framework/usb/src/usb_device.c: 292:     {UEIR = 0;};
   849   001980  0E00               	movlw	0
   850   001982  6E6A               	movwf	106,c	;volatile
   851                           
   852                           ;../../../../../../framework/usb/src/usb_device.c: 295:     {UIR = 0;};
   853   001984  0E00               	movlw	0
   854   001986  6E68               	movwf	104,c	;volatile
   855                           
   856                           ;../../../../../../framework/usb/src/usb_device.c: 298:     UEP0 = 0;
   857   001988  0E00               	movlw	0
   858   00198A  6E70               	movwf	112,c	;volatile
   859   00198C                     
   860                           ;../../../../../../framework/usb/src/usb_device.c: 300:     memset((void*)&UEP1,0x00,(1)
      +                          );;
   861   00198C  0E71               	movlw	113
   862   00198E  0100               	movlb	0	; () banked
   863   001990  6F7E               	movwf	memset@dest& (0+255),b
   864   001992  0E0F               	movlw	15
   865   001994  6F7F               	movwf	(memset@dest+1)& (0+255),b
   866   001996  0E00               	movlw	0
   867   001998  6F81               	movwf	(memset@c+1)& (0+255),b
   868   00199A  0E00               	movlw	0
   869   00199C  6F80               	movwf	memset@c& (0+255),b
   870   00199E  0E00               	movlw	0
   871   0019A0  6F83               	movwf	(memset@n+1)& (0+255),b
   872   0019A2  0E01               	movlw	1
   873   0019A4  6F82               	movwf	memset@n& (0+255),b
   874   0019A6  ECF0  F007         	call	_memset	;wreg free
   875   0019AA                     
   876                           ;../../../../../../framework/usb/src/usb_device.c: 302:     { UCFG = 0x10 | 0x00 | 0x04 
      +                          | 0x02; UEIE = 0x9F; UIE = 0x39 | 0x40 | 0x02; };
   877   0019AA  0E16               	movlw	22
   878   0019AC  6E6F               	movwf	111,c	;volatile
   879   0019AE  0E9F               	movlw	159
   880   0019B0  6E6B               	movwf	107,c	;volatile
   881   0019B2  0E7B               	movlw	123
   882   0019B4  6E69               	movwf	105,c	;volatile
   883   0019B6                     
   884                           ;../../../../../../framework/usb/src/usb_device.c: 311:     for(i = 0; i < (sizeof(BDT)/
      +                          sizeof(BDT_ENTRY)); i++)
   885   0019B6  0E00               	movlw	0
   886   0019B8  6E30               	movwf	USBDeviceInit@i^0,c
   887   0019BA                     l5315:
   888                           
   889                           ;../../../../../../framework/usb/src/usb_device.c: 312:     {;../../../../../../framewor
      +                          k/usb/src/usb_device.c: 313:         BDT[i].Val = 0x00;
   890   0019BA  5030               	movf	USBDeviceInit@i^0,w,c
   891   0019BC  0D04               	mullw	4
   892   0019BE  0E00               	movlw	0
   893   0019C0  24F3               	addwf	243,w,c
   894   0019C2  6ED9               	movwf	fsr2l,c
   895   0019C4  0E04               	movlw	4
   896   0019C6  20F4               	addwfc	prodh,w,c
   897   0019C8  6EDA               	movwf	fsr2h,c
   898   0019CA  6ADE               	clrf	postinc2,c
   899   0019CC  6ADE               	clrf	postinc2,c
   900   0019CE  6ADE               	clrf	postinc2,c
   901   0019D0  6ADD               	clrf	postdec2,c
   902   0019D2                     
   903                           ;../../../../../../framework/usb/src/usb_device.c: 314:     }
   904   0019D2  2A30               	incf	USBDeviceInit@i^0,f,c
   905   0019D4  0E07               	movlw	7
   906   0019D6  6430               	cpfsgt	USBDeviceInit@i^0,c
   907   0019D8  EFF0  F00C         	goto	u3241
   908   0019DC  EFF2  F00C         	goto	u3240
   909   0019E0                     u3241:
   910   0019E0  EFDD  F00C         	goto	l5315
   911   0019E4                     u3240:
   912   0019E4                     
   913                           ;../../../../../../framework/usb/src/usb_device.c: 317:     UCONbits.PPBRST = 1;
   914   0019E4  8C6D               	bsf	109,6,c	;volatile
   915   0019E6                     
   916                           ;../../../../../../framework/usb/src/usb_device.c: 320:     UADDR = 0x00;
   917   0019E6  0E00               	movlw	0
   918   0019E8  6E6E               	movwf	110,c	;volatile
   919   0019EA                     
   920                           ;../../../../../../framework/usb/src/usb_device.c: 323:     UCONbits.PKTDIS = 0;
   921   0019EA  986D               	bcf	109,4,c	;volatile
   922   0019EC                     
   923                           ;../../../../../../framework/usb/src/usb_device.c: 326:     UCONbits.PPBRST = 0;
   924   0019EC  9C6D               	bcf	109,6,c	;volatile
   925   0019EE                     l5327:
   926                           
   927                           ;../../../../../../framework/usb/src/usb_device.c: 330:     {;../../../../../../framewor
      +                          k/usb/src/usb_device.c: 331:         (UIR &= 0xF7);
   928   0019EE  9668               	bcf	104,3,c	;volatile
   929   0019F0                     
   930                           ;../../../../../../framework/usb/src/usb_device.c: 333:         inPipes[0].info.Val = 0;
   931   0019F0  0E00               	movlw	0
   932   0019F2  0100               	movlb	0	; () banked
   933   0019F4  6F6B               	movwf	(_inPipes+3)& (0+255),b	;volatile
   934   0019F6                     
   935                           ; BSR set to: 0
   936                           ;../../../../../../framework/usb/src/usb_device.c: 334:         outPipes[0].info.Val = 0
      +                          ;
   937   0019F6  0E00               	movlw	0
   938   0019F8  6F63               	movwf	(_outPipes+3)& (0+255),b	;volatile
   939   0019FA                     
   940                           ; BSR set to: 0
   941                           ;../../../../../../framework/usb/src/usb_device.c: 335:         outPipes[0].wCount.Val =
      +                           0;
   942   0019FA  0E00               	movlw	0
   943   0019FC  6F65               	movwf	(_outPipes+5)& (0+255),b	;volatile
   944   0019FE  0E00               	movlw	0
   945   001A00  6F64               	movwf	(_outPipes+4)& (0+255),b	;volatile
   946   001A02                     
   947                           ; BSR set to: 0
   948                           ;../../../../../../framework/usb/src/usb_device.c: 336:     }while(UIRbits.TRNIF == 1);
   949   001A02  B668               	btfsc	104,3,c	;volatile
   950   001A04  EF06  F00D         	goto	u3251
   951   001A08  EF08  F00D         	goto	u3250
   952   001A0C                     u3251:
   953   001A0C  EFF7  F00C         	goto	l5327
   954   001A10                     u3250:
   955   001A10                     
   956                           ; BSR set to: 0
   957                           ;../../../../../../framework/usb/src/usb_device.c: 340:     USBStatusStageEnabledFlag1 =
      +                           1;
   958   001A10  0E01               	movlw	1
   959   001A12  6E42               	movwf	_USBStatusStageEnabledFlag1^0,c	;volatile
   960                           
   961                           ;../../../../../../framework/usb/src/usb_device.c: 341:     USBStatusStageEnabledFlag2 =
      +                           1;
   962   001A14  0E01               	movlw	1
   963   001A16  6E41               	movwf	_USBStatusStageEnabledFlag2^0,c	;volatile
   964                           
   965                           ;../../../../../../framework/usb/src/usb_device.c: 343:     USBDeferINDataStagePackets =
      +                           0;
   966   001A18  0E00               	movlw	0
   967   001A1A  6E40               	movwf	_USBDeferINDataStagePackets^0,c	;volatile
   968                           
   969                           ;../../../../../../framework/usb/src/usb_device.c: 344:     USBDeferOUTDataStagePackets 
      +                          = 0;
   970   001A1C  0E00               	movlw	0
   971   001A1E  6E3F               	movwf	_USBDeferOUTDataStagePackets^0,c	;volatile
   972                           
   973                           ;../../../../../../framework/usb/src/usb_device.c: 345:     USBBusIsSuspended = 0;
   974   001A20  0E00               	movlw	0
   975   001A22  6E47               	movwf	_USBBusIsSuspended^0,c	;volatile
   976                           
   977                           ;../../../../../../framework/usb/src/usb_device.c: 349:     for(i = 0; i < (uint8_t)(1 +
      +                          1u); i++)
   978   001A24  0E00               	movlw	0
   979   001A26  6E30               	movwf	USBDeviceInit@i^0,c
   980   001A28                     l5343:
   981                           
   982                           ;../../../../../../framework/usb/src/usb_device.c: 350:     {;../../../../../../framewor
      +                          k/usb/src/usb_device.c: 351:         pBDTEntryIn[i] = 0u;
   983   001A28  5030               	movf	USBDeviceInit@i^0,w,c
   984   001A2A  0D02               	mullw	2
   985   001A2C  0E6E               	movlw	low _pBDTEntryIn
   986   001A2E  24F3               	addwf	243,w,c
   987   001A30  6ED9               	movwf	fsr2l,c
   988   001A32  0E00               	movlw	high _pBDTEntryIn
   989   001A34  20F4               	addwfc	prodh,w,c
   990   001A36  6EDA               	movwf	fsr2h,c
   991   001A38  6ADE               	clrf	postinc2,c
   992   001A3A  6ADD               	clrf	postdec2,c
   993                           
   994                           ;../../../../../../framework/usb/src/usb_device.c: 352:         pBDTEntryOut[i] = 0u;
   995   001A3C  5030               	movf	USBDeviceInit@i^0,w,c
   996   001A3E  0D02               	mullw	2
   997   001A40  0E72               	movlw	low _pBDTEntryOut
   998   001A42  24F3               	addwf	243,w,c
   999   001A44  6ED9               	movwf	fsr2l,c
  1000   001A46  0E00               	movlw	high _pBDTEntryOut
  1001   001A48  20F4               	addwfc	prodh,w,c
  1002   001A4A  6EDA               	movwf	fsr2h,c
  1003   001A4C  6ADE               	clrf	postinc2,c
  1004   001A4E  6ADD               	clrf	postdec2,c
  1005   001A50                     
  1006                           ;../../../../../../framework/usb/src/usb_device.c: 353:         ep_data_in[i].Val = 0u;
  1007   001A50  0E7C               	movlw	low _ep_data_in
  1008   001A52  2430               	addwf	USBDeviceInit@i^0,w,c
  1009   001A54  6ED9               	movwf	fsr2l,c
  1010   001A56  6ADA               	clrf	fsr2h,c
  1011   001A58  0E00               	movlw	high _ep_data_in
  1012   001A5A  22DA               	addwfc	fsr2h,f,c
  1013   001A5C  6ADF               	clrf	indf2,c
  1014   001A5E                     
  1015                           ;../../../../../../framework/usb/src/usb_device.c: 354:         ep_data_out[i].Val = 0u;
  1016   001A5E  0E7A               	movlw	low _ep_data_out
  1017   001A60  2430               	addwf	USBDeviceInit@i^0,w,c
  1018   001A62  6ED9               	movwf	fsr2l,c
  1019   001A64  6ADA               	clrf	fsr2h,c
  1020   001A66  0E00               	movlw	high _ep_data_out
  1021   001A68  22DA               	addwfc	fsr2h,f,c
  1022   001A6A  6ADF               	clrf	indf2,c
  1023   001A6C                     
  1024                           ;../../../../../../framework/usb/src/usb_device.c: 355:     }
  1025   001A6C  2A30               	incf	USBDeviceInit@i^0,f,c
  1026   001A6E  0E01               	movlw	1
  1027   001A70  6430               	cpfsgt	USBDeviceInit@i^0,c
  1028   001A72  EF3D  F00D         	goto	u3261
  1029   001A76  EF3F  F00D         	goto	u3260
  1030   001A7A                     u3261:
  1031   001A7A  EF14  F00D         	goto	l5343
  1032   001A7E                     u3260:
  1033   001A7E                     
  1034                           ;../../../../../../framework/usb/src/usb_device.c: 358:     pBDTEntryIn[0] = (volatile B
      +                          DT_ENTRY*)&BDT[2];
  1035   001A7E  0E08               	movlw	8
  1036   001A80  0100               	movlb	0	; () banked
  1037   001A82  6F6E               	movwf	_pBDTEntryIn& (0+255),b
  1038   001A84  0E04               	movlw	4
  1039   001A86  6F6F               	movwf	(_pBDTEntryIn+1)& (0+255),b
  1040   001A88                     
  1041                           ; BSR set to: 0
  1042                           ;../../../../../../framework/usb/src/usb_device.c: 360:     UEP0 = 0x06|0x10;
  1043   001A88  0E16               	movlw	22
  1044   001A8A  6E70               	movwf	112,c	;volatile
  1045   001A8C                     
  1046                           ; BSR set to: 0
  1047                           ;../../../../../../framework/usb/src/usb_device.c: 362:     BDT[0].ADR = ((uint16_t)(&Se
      +                          tupPkt));
  1048   001A8C  0E04               	movlw	4
  1049   001A8E  0104               	movlb	4	; () banked
  1050   001A90  6F03               	movwf	3,b	;volatile
  1051   001A92  0E20               	movlw	32
  1052   001A94  6F02               	movwf	2,b	;volatile
  1053   001A96                     
  1054                           ; BSR set to: 4
  1055                           ;../../../../../../framework/usb/src/usb_device.c: 363:     BDT[0].CNT = 8;
  1056   001A96  0E08               	movlw	8
  1057   001A98  6F01               	movwf	1,b	;volatile
  1058   001A9A                     
  1059                           ; BSR set to: 4
  1060                           ;../../../../../../framework/usb/src/usb_device.c: 364:     BDT[0].STAT.Val = 0x00|0x04;
  1061   001A9A  0E04               	movlw	4
  1062   001A9C  6F00               	movwf	0,b	;volatile
  1063   001A9E                     
  1064                           ; BSR set to: 4
  1065                           ;../../../../../../framework/usb/src/usb_device.c: 365:     BDT[0].STAT.Val |= 0x80;
  1066   001A9E  8F00               	bsf	0,7,b	;volatile
  1067   001AA0                     
  1068                           ; BSR set to: 4
  1069                           ;../../../../../../framework/usb/src/usb_device.c: 368:     USBActiveConfiguration = 0;
  1070   001AA0  0E00               	movlw	0
  1071   001AA2  6E50               	movwf	_USBActiveConfiguration^0,c	;volatile
  1072   001AA4                     
  1073                           ; BSR set to: 4
  1074                           ;../../../../../../framework/usb/src/usb_device.c: 370:     USB1msTickCount = 0;
  1075   001AA4  0E00               	movlw	0
  1076   001AA6  6E32               	movwf	_USB1msTickCount^0,c	;volatile
  1077   001AA8  0E00               	movlw	0
  1078   001AAA  6E33               	movwf	(_USB1msTickCount+1)^0,c	;volatile
  1079   001AAC  0E00               	movlw	0
  1080   001AAE  6E34               	movwf	(_USB1msTickCount+2)^0,c	;volatile
  1081   001AB0  0E00               	movlw	0
  1082   001AB2  6E35               	movwf	(_USB1msTickCount+3)^0,c	;volatile
  1083   001AB4                     
  1084                           ; BSR set to: 4
  1085                           ;../../../../../../framework/usb/src/usb_device.c: 371:     USBTicksSinceSuspendEnd = 0;
  1086   001AB4  0E00               	movlw	0
  1087   001AB6  6E3E               	movwf	_USBTicksSinceSuspendEnd^0,c	;volatile
  1088   001AB8                     
  1089                           ; BSR set to: 4
  1090                           ;../../../../../../framework/usb/src/usb_device.c: 374:     USBDeviceState = DETACHED_ST
      +                          ATE;
  1091   001AB8  0E00               	movlw	0
  1092   001ABA  6E4B               	movwf	_USBDeviceState^0,c	;volatile
  1093   001ABC                     
  1094                           ; BSR set to: 4
  1095   001ABC  0012               	return		;funcret
  1096   001ABE                     __end_of_USBDeviceInit:
  1097                           	callstack 0
  1098                           
  1099 ;; *************** function _memset *****************
  1100 ;; Defined at:
  1101 ;;		line 4 in file "C:\Program Files\Microchip\xc8\v2.41\pic\sources\c99\common\memset.c"
  1102 ;; Parameters:    Size  Location     Type
  1103 ;;  dest            2    0[BANK0 ] PTR void 
  1104 ;;		 -> USBAlternateInterface(1), BDT(32), UEP1(1), 
  1105 ;;  c               2    2[BANK0 ] int 
  1106 ;;  n               2    4[BANK0 ] unsigned int 
  1107 ;; Auto vars:     Size  Location     Type
  1108 ;;  s               2    8[BANK0 ] PTR unsigned char 
  1109 ;;		 -> USBAlternateInterface(1), BDT(32), UEP1(1), 
  1110 ;;  k               2    6[BANK0 ] unsigned int 
  1111 ;; Return value:  Size  Location     Type
  1112 ;;                  2    0[BANK0 ] PTR void 
  1113 ;; Registers used:
  1114 ;;		wreg, fsr2l, fsr2h, status,2, status,0
  1115 ;; Tracked objects:
  1116 ;;		On entry : 0/0
  1117 ;;		On exit  : 0/0
  1118 ;;		Unchanged: 0/0
  1119 ;; Data sizes:     COMRAM   BANK0   BANK1   BANK2   BANK3   BANK4   BANK5   BANK6   BANK7
  1120 ;;      Params:         0       6       0       0       0       0       0       0       0
  1121 ;;      Locals:         0       4       0       0       0       0       0       0       0
  1122 ;;      Temps:          2       0       0       0       0       0       0       0       0
  1123 ;;      Totals:         2      10       0       0       0       0       0       0       0
  1124 ;;Total ram usage:       12 bytes
  1125 ;; Hardware stack levels used: 1
  1126 ;; Hardware stack levels required when called: 10
  1127 ;; This function calls:
  1128 ;;		Nothing
  1129 ;; This function is called by:
  1130 ;;		_USBDeviceInit
  1131 ;; This function uses a non-reentrant model
  1132 ;;
  1133                           
  1134                           	psect	text2
  1135   000FE0                     __ptext2:
  1136                           	callstack 0
  1137   000FE0                     _memset:
  1138                           	callstack 19
  1139   000FE0  C07E  F086         	movff	memset@dest,memset@s
  1140   000FE4  C07F  F087         	movff	memset@dest+1,memset@s+1
  1141   000FE8  0100               	movlb	0	; () banked
  1142   000FEA  5182               	movf	memset@n& (0+255),w,b
  1143   000FEC  1183               	iorwf	(memset@n+1)& (0+255),w,b
  1144   000FEE  A4D8               	btfss	status,2,c
  1145   000FF0  EFFC  F007         	goto	u3161
  1146   000FF4  EFFE  F007         	goto	u3160
  1147   000FF8                     u3161:
  1148   000FF8  EF00  F008         	goto	l5239
  1149   000FFC                     u3160:
  1150   000FFC  EFAB  F008         	goto	l1391
  1151   001000                     l5239:
  1152                           
  1153                           ; BSR set to: 0
  1154   001000  C086  FFD9         	movff	memset@s,fsr2l
  1155   001004  C087  FFDA         	movff	memset@s+1,fsr2h
  1156   001008  C080  FFDF         	movff	memset@c,indf2
  1157   00100C                     
  1158                           ; BSR set to: 0
  1159   00100C  5182               	movf	memset@n& (0+255),w,b
  1160   00100E  2586               	addwf	memset@s& (0+255),w,b
  1161   001010  6E2E               	movwf	??_memset^0,c
  1162   001012  5183               	movf	(memset@n+1)& (0+255),w,b
  1163   001014  2187               	addwfc	(memset@s+1)& (0+255),w,b
  1164   001016  6E2F               	movwf	(??_memset+1)^0,c
  1165   001018  0EFF               	movlw	255
  1166   00101A  242E               	addwf	??_memset^0,w,c
  1167   00101C  6ED9               	movwf	fsr2l,c
  1168   00101E  0EFF               	movlw	255
  1169   001020  202F               	addwfc	(??_memset+1)^0,w,c
  1170   001022  6EDA               	movwf	fsr2h,c
  1171   001024  C080  FFDF         	movff	memset@c,indf2
  1172   001028  5183               	movf	(memset@n+1)& (0+255),w,b
  1173   00102A  E107               	bnz	u3171
  1174   00102C  0E03               	movlw	3
  1175   00102E  5D82               	subwf	memset@n& (0+255),w,b
  1176   001030  B0D8               	btfsc	status,0,c
  1177   001032  EF1D  F008         	goto	u3171
  1178   001036  EF1F  F008         	goto	u3170
  1179   00103A                     u3171:
  1180   00103A  EF21  F008         	goto	l5245
  1181   00103E                     u3170:
  1182   00103E  EFAB  F008         	goto	l1391
  1183   001042                     l5245:
  1184                           
  1185                           ; BSR set to: 0
  1186   001042  EE20 F001          	lfsr	2,1
  1187   001046  5186               	movf	memset@s& (0+255),w,b
  1188   001048  26D9               	addwf	fsr2l,f,c
  1189   00104A  5187               	movf	(memset@s+1)& (0+255),w,b
  1190   00104C  22DA               	addwfc	fsr2h,f,c
  1191   00104E  C080  FFDF         	movff	memset@c,indf2
  1192   001052  EE20 F002          	lfsr	2,2
  1193   001056  5186               	movf	memset@s& (0+255),w,b
  1194   001058  26D9               	addwf	fsr2l,f,c
  1195   00105A  5187               	movf	(memset@s+1)& (0+255),w,b
  1196   00105C  22DA               	addwfc	fsr2h,f,c
  1197   00105E  C080  FFDF         	movff	memset@c,indf2
  1198   001062  5182               	movf	memset@n& (0+255),w,b
  1199   001064  2586               	addwf	memset@s& (0+255),w,b
  1200   001066  6E2E               	movwf	??_memset^0,c
  1201   001068  5183               	movf	(memset@n+1)& (0+255),w,b
  1202   00106A  2187               	addwfc	(memset@s+1)& (0+255),w,b
  1203   00106C  6E2F               	movwf	(??_memset+1)^0,c
  1204   00106E  0EFE               	movlw	254
  1205   001070  242E               	addwf	??_memset^0,w,c
  1206   001072  6ED9               	movwf	fsr2l,c
  1207   001074  0EFF               	movlw	255
  1208   001076  202F               	addwfc	(??_memset+1)^0,w,c
  1209   001078  6EDA               	movwf	fsr2h,c
  1210   00107A  C080  FFDF         	movff	memset@c,indf2
  1211   00107E  5182               	movf	memset@n& (0+255),w,b
  1212   001080  2586               	addwf	memset@s& (0+255),w,b
  1213   001082  6E2E               	movwf	??_memset^0,c
  1214   001084  5183               	movf	(memset@n+1)& (0+255),w,b
  1215   001086  2187               	addwfc	(memset@s+1)& (0+255),w,b
  1216   001088  6E2F               	movwf	(??_memset+1)^0,c
  1217   00108A  0EFD               	movlw	253
  1218   00108C  242E               	addwf	??_memset^0,w,c
  1219   00108E  6ED9               	movwf	fsr2l,c
  1220   001090  0EFF               	movlw	255
  1221   001092  202F               	addwfc	(??_memset+1)^0,w,c
  1222   001094  6EDA               	movwf	fsr2h,c
  1223   001096  C080  FFDF         	movff	memset@c,indf2
  1224   00109A                     
  1225                           ; BSR set to: 0
  1226   00109A  5183               	movf	(memset@n+1)& (0+255),w,b
  1227   00109C  E107               	bnz	u3181
  1228   00109E  0E07               	movlw	7
  1229   0010A0  5D82               	subwf	memset@n& (0+255),w,b
  1230   0010A2  B0D8               	btfsc	status,0,c
  1231   0010A4  EF56  F008         	goto	u3181
  1232   0010A8  EF58  F008         	goto	u3180
  1233   0010AC                     u3181:
  1234   0010AC  EF5A  F008         	goto	l5251
  1235   0010B0                     u3180:
  1236   0010B0  EFAB  F008         	goto	l1391
  1237   0010B4                     l5251:
  1238                           
  1239                           ; BSR set to: 0
  1240   0010B4  EE20 F003          	lfsr	2,3
  1241   0010B8  5186               	movf	memset@s& (0+255),w,b
  1242   0010BA  26D9               	addwf	fsr2l,f,c
  1243   0010BC  5187               	movf	(memset@s+1)& (0+255),w,b
  1244   0010BE  22DA               	addwfc	fsr2h,f,c
  1245   0010C0  C080  FFDF         	movff	memset@c,indf2
  1246   0010C4  5182               	movf	memset@n& (0+255),w,b
  1247   0010C6  2586               	addwf	memset@s& (0+255),w,b
  1248   0010C8  6E2E               	movwf	??_memset^0,c
  1249   0010CA  5183               	movf	(memset@n+1)& (0+255),w,b
  1250   0010CC  2187               	addwfc	(memset@s+1)& (0+255),w,b
  1251   0010CE  6E2F               	movwf	(??_memset+1)^0,c
  1252   0010D0  0EFC               	movlw	252
  1253   0010D2  242E               	addwf	??_memset^0,w,c
  1254   0010D4  6ED9               	movwf	fsr2l,c
  1255   0010D6  0EFF               	movlw	255
  1256   0010D8  202F               	addwfc	(??_memset+1)^0,w,c
  1257   0010DA  6EDA               	movwf	fsr2h,c
  1258   0010DC  C080  FFDF         	movff	memset@c,indf2
  1259   0010E0                     
  1260                           ; BSR set to: 0
  1261   0010E0  5183               	movf	(memset@n+1)& (0+255),w,b
  1262   0010E2  E107               	bnz	u3191
  1263   0010E4  0E09               	movlw	9
  1264   0010E6  5D82               	subwf	memset@n& (0+255),w,b
  1265   0010E8  B0D8               	btfsc	status,0,c
  1266   0010EA  EF79  F008         	goto	u3191
  1267   0010EE  EF7B  F008         	goto	u3190
  1268   0010F2                     u3191:
  1269   0010F2  EF7D  F008         	goto	l5257
  1270   0010F6                     u3190:
  1271   0010F6  EFAB  F008         	goto	l1391
  1272   0010FA                     l5257:
  1273                           
  1274                           ; BSR set to: 0
  1275   0010FA  C086  F02E         	movff	memset@s,??_memset
  1276   0010FE  C087  F02F         	movff	memset@s+1,??_memset+1
  1277   001102  1E2E               	comf	??_memset^0,f,c
  1278   001104  1E2F               	comf	(??_memset+1)^0,f,c
  1279   001106  4A2E               	infsnz	??_memset^0,f,c
  1280   001108  2A2F               	incf	(??_memset+1)^0,f,c
  1281   00110A  0E03               	movlw	3
  1282   00110C  142E               	andwf	??_memset^0,w,c
  1283   00110E  6F84               	movwf	memset@k& (0+255),b
  1284   001110  6B85               	clrf	(memset@k+1)& (0+255),b
  1285   001112  5184               	movf	memset@k& (0+255),w,b
  1286   001114  2786               	addwf	memset@s& (0+255),f,b
  1287   001116  5185               	movf	(memset@k+1)& (0+255),w,b
  1288   001118  2387               	addwfc	(memset@s+1)& (0+255),f,b
  1289   00111A  5184               	movf	memset@k& (0+255),w,b
  1290   00111C  5F82               	subwf	memset@n& (0+255),f,b
  1291   00111E  5185               	movf	(memset@k+1)& (0+255),w,b
  1292   001120  5B83               	subwfb	(memset@n+1)& (0+255),f,b
  1293   001122  0EFC               	movlw	252
  1294   001124  1782               	andwf	memset@n& (0+255),f,b
  1295   001126  0EFF               	movlw	255
  1296   001128  1783               	andwf	(memset@n+1)& (0+255),f,b
  1297   00112A  EFA2  F008         	goto	l5265
  1298   00112E                     l5259:
  1299                           
  1300                           ; BSR set to: 0
  1301   00112E  C086  FFD9         	movff	memset@s,fsr2l
  1302   001132  C087  FFDA         	movff	memset@s+1,fsr2h
  1303   001136  C080  FFDF         	movff	memset@c,indf2
  1304   00113A                     
  1305                           ; BSR set to: 0
  1306   00113A  0782               	decf	memset@n& (0+255),f,b
  1307   00113C  A0D8               	btfss	status,0,c
  1308   00113E  0783               	decf	(memset@n+1)& (0+255),f,b
  1309   001140                     
  1310                           ; BSR set to: 0
  1311   001140  4B86               	infsnz	memset@s& (0+255),f,b
  1312   001142  2B87               	incf	(memset@s+1)& (0+255),f,b
  1313   001144                     l5265:
  1314                           
  1315                           ; BSR set to: 0
  1316   001144  5182               	movf	memset@n& (0+255),w,b
  1317   001146  1183               	iorwf	(memset@n+1)& (0+255),w,b
  1318   001148  A4D8               	btfss	status,2,c
  1319   00114A  EFA9  F008         	goto	u3201
  1320   00114E  EFAB  F008         	goto	u3200
  1321   001152                     u3201:
  1322   001152  EF97  F008         	goto	l5259
  1323   001156                     u3200:
  1324   001156                     l1391:
  1325                           
  1326                           ; BSR set to: 0
  1327   001156  0012               	return		;funcret
  1328   001158                     __end_of_memset:
  1329                           	callstack 0
  1330                           
  1331 ;; *************** function _USBDeviceAttach *****************
  1332 ;; Defined at:
  1333 ;;		line 1356 in file "../../../../../../framework/usb/src/usb_device.c"
  1334 ;; Parameters:    Size  Location     Type
  1335 ;;		None
  1336 ;; Auto vars:     Size  Location     Type
  1337 ;;		None
  1338 ;; Return value:  Size  Location     Type
  1339 ;;                  1    wreg      void 
  1340 ;; Registers used:
  1341 ;;		wreg, status,2
  1342 ;; Tracked objects:
  1343 ;;		On entry : 0/0
  1344 ;;		On exit  : 0/0
  1345 ;;		Unchanged: 0/0
  1346 ;; Data sizes:     COMRAM   BANK0   BANK1   BANK2   BANK3   BANK4   BANK5   BANK6   BANK7
  1347 ;;      Params:         0       0       0       0       0       0       0       0       0
  1348 ;;      Locals:         0       0       0       0       0       0       0       0       0
  1349 ;;      Temps:          0       0       0       0       0       0       0       0       0
  1350 ;;      Totals:         0       0       0       0       0       0       0       0       0
  1351 ;;Total ram usage:        0 bytes
  1352 ;; Hardware stack levels used: 1
  1353 ;; Hardware stack levels required when called: 10
  1354 ;; This function calls:
  1355 ;;		Nothing
  1356 ;; This function is called by:
  1357 ;;		_main
  1358 ;; This function uses a non-reentrant model
  1359 ;;
  1360                           
  1361                           	psect	text3
  1362   002D1A                     __ptext3:
  1363                           	callstack 0
  1364   002D1A                     _USBDeviceAttach:
  1365                           	callstack 20
  1366   002D1A                     
  1367                           ;../../../../../../framework/usb/src/usb_device.c: 1360:     {;../../../../../../framewo
      +                          rk/usb/src/usb_device.c: 1361:         if(1 == 1)
  1368   002D1A  504B               	movf	_USBDeviceState^0,w,c	;volatile
  1369   002D1C  A4D8               	btfss	status,2,c
  1370   002D1E  EF93  F016         	goto	u1451
  1371   002D22  EF95  F016         	goto	u1450
  1372   002D26                     u1451:
  1373   002D26  EFAF  F016         	goto	l324
  1374   002D2A                     u1450:
  1375   002D2A                     
  1376                           ;../../../../../../framework/usb/src/usb_device.c: 1362:         {;../../../../../../fra
      +                          mework/usb/src/usb_device.c: 1364:             UCON = 0;
  1377   002D2A  0E00               	movlw	0
  1378   002D2C  6E6D               	movwf	109,c	;volatile
  1379                           
  1380                           ;../../../../../../framework/usb/src/usb_device.c: 1367:             UIE = 0;
  1381   002D2E  0E00               	movlw	0
  1382   002D30  6E69               	movwf	105,c	;volatile
  1383                           
  1384                           ;../../../../../../framework/usb/src/usb_device.c: 1371:             { UCFG = 0x10 | 0x0
      +                          0 | 0x04 | 0x02; UEIE = 0x9F; UIE = 0x39 | 0x40 | 0x02; };
  1385   002D32  0E16               	movlw	22
  1386   002D34  6E6F               	movwf	111,c	;volatile
  1387   002D36  0E9F               	movlw	159
  1388   002D38  6E6B               	movwf	107,c	;volatile
  1389   002D3A  0E7B               	movlw	123
  1390   002D3C  6E69               	movwf	105,c	;volatile
  1391   002D3E                     
  1392                           ;../../../../../../framework/usb/src/usb_device.c: 1373:             {RCONbits.IPEN = 1;
      +                          IPR2bits.USBIP = 1;PIE2bits.USBIE = 1;INTCONbits.GIEH = 1;};
  1393   002D3E  8ED0               	bsf	208,7,c	;volatile
  1394   002D40  8AA2               	bsf	162,5,c	;volatile
  1395   002D42  8AA0               	bsf	160,5,c	;volatile
  1396   002D44  8EF2               	bsf	242,7,c	;volatile
  1397                           
  1398                           ;../../../../../../framework/usb/src/usb_device.c: 1376:             while(!UCONbits.USB
      +                          EN){UCONbits.USBEN = 1;}
  1399   002D46  EFA6  F016         	goto	l321
  1400   002D4A                     l322:
  1401   002D4A  866D               	bsf	109,3,c	;volatile
  1402   002D4C                     l321:
  1403   002D4C  A66D               	btfss	109,3,c	;volatile
  1404   002D4E  EFAB  F016         	goto	u1461
  1405   002D52  EFAD  F016         	goto	u1460
  1406   002D56                     u1461:
  1407   002D56  EFA5  F016         	goto	l322
  1408   002D5A                     u1460:
  1409   002D5A                     
  1410                           ;../../../../../../framework/usb/src/usb_device.c: 1379:             USBDeviceState = AT
      +                          TACHED_STATE;
  1411   002D5A  0E01               	movlw	1
  1412   002D5C  6E4B               	movwf	_USBDeviceState^0,c	;volatile
  1413   002D5E                     l324:
  1414   002D5E  0012               	return		;funcret
  1415   002D60                     __end_of_USBDeviceAttach:
  1416                           	callstack 0
  1417                           
  1418 ;; *************** function _SYSTEM_Initialize *****************
  1419 ;; Defined at:
  1420 ;;		line 80 in file "system.c"
  1421 ;; Parameters:    Size  Location     Type
  1422 ;;  state           1    wreg     enum E3241
  1423 ;; Auto vars:     Size  Location     Type
  1424 ;;  state           1   48[COMRAM] enum E3241
  1425 ;; Return value:  Size  Location     Type
  1426 ;;                  1    wreg      void 
  1427 ;; Registers used:
  1428 ;;		wreg, status,2, status,0, cstack
  1429 ;; Tracked objects:
  1430 ;;		On entry : 0/0
  1431 ;;		On exit  : 0/0
  1432 ;;		Unchanged: 0/0
  1433 ;; Data sizes:     COMRAM   BANK0   BANK1   BANK2   BANK3   BANK4   BANK5   BANK6   BANK7
  1434 ;;      Params:         0       0       0       0       0       0       0       0       0
  1435 ;;      Locals:         1       0       0       0       0       0       0       0       0
  1436 ;;      Temps:          0       2       0       0       0       0       0       0       0
  1437 ;;      Totals:         1       2       0       0       0       0       0       0       0
  1438 ;;Total ram usage:        3 bytes
  1439 ;; Hardware stack levels used: 1
  1440 ;; Hardware stack levels required when called: 11
  1441 ;; This function calls:
  1442 ;;		_ADC_Enable
  1443 ;;		_ADC_SetConfiguration
  1444 ;;		_BUTTON_Enable
  1445 ;;		_LED_Enable
  1446 ;; This function is called by:
  1447 ;;		_main
  1448 ;; This function uses a non-reentrant model
  1449 ;;
  1450                           
  1451                           	psect	text4
  1452   002BC4                     __ptext4:
  1453                           	callstack 0
  1454   002BC4                     _SYSTEM_Initialize:
  1455                           	callstack 19
  1456                           
  1457                           ;incstack = 0
  1458                           ;SYSTEM_Initialize@state stored from wreg
  1459   002BC4  6E31               	movwf	SYSTEM_Initialize@state^0,c
  1460   002BC6                     
  1461                           ;system.c: 80: void SYSTEM_Initialize( SYSTEM_STATE state );system.c: 81: {;system.c: 82
      +                          :     switch(state)
  1462   002BC6  EFF6  F015         	goto	l5383
  1463   002BCA                     l5375:
  1464                           
  1465                           ; BSR set to: 0
  1466                           ;system.c: 85:             LED_Enable(LED_D1);
  1467   002BCA  0E01               	movlw	1
  1468   002BCC  ECBD  F014         	call	_LED_Enable
  1469                           
  1470                           ;system.c: 86:             LED_Enable(LED_D2);
  1471   002BD0  0E02               	movlw	2
  1472   002BD2  ECBD  F014         	call	_LED_Enable
  1473                           
  1474                           ;system.c: 88:             BUTTON_Enable(BUTTON_S2);
  1475   002BD6  0E01               	movlw	1
  1476   002BD8  ECB0  F016         	call	_BUTTON_Enable
  1477   002BDC                     
  1478                           ;system.c: 90:             ADC_SetConfiguration(ADC_CONFIGURATION_DEFAULT);
  1479   002BDC  0E00               	movlw	0
  1480   002BDE  ECA1  F017         	call	_ADC_SetConfiguration
  1481   002BE2                     
  1482                           ;system.c: 91:             ADC_Enable(ADC_CHANNEL_0);
  1483   002BE2  0E00               	movlw	0
  1484   002BE4  EC48  F017         	call	_ADC_Enable
  1485                           
  1486                           ;system.c: 92:             break;
  1487   002BE8  EF10  F016         	goto	l656
  1488   002BEC                     l5383:
  1489   002BEC  5031               	movf	SYSTEM_Initialize@state^0,w,c
  1490   002BEE  0100               	movlb	0	; () banked
  1491   002BF0  6F7E               	movwf	??_SYSTEM_Initialize& (0+255),b
  1492   002BF2  6B7F               	clrf	(??_SYSTEM_Initialize+1)& (0+255),b
  1493                           
  1494                           ; Switch on 2 bytes has been partitioned into a top level switch of size 1, and 1 sub-sw
      +                          itches
  1495                           ; Switch size 1, requested type "simple"
  1496                           ; Number of cases is 1, Range of values is 0 to 0
  1497                           ; switch strategies available:
  1498                           ; Name         Instructions Cycles
  1499                           ; simple_byte            4     3 (average)
  1500                           ;	Chosen strategy is simple_byte
  1501   002BF4  517F               	movf	(??_SYSTEM_Initialize+1)& (0+255),w,b
  1502   002BF6  0A00               	xorlw	0	; case 0
  1503   002BF8  B4D8               	btfsc	status,2,c
  1504   002BFA  EF01  F016         	goto	l5945
  1505   002BFE  EF10  F016         	goto	l656
  1506   002C02                     l5945:
  1507                           
  1508                           ; BSR set to: 0
  1509                           ; Switch size 1, requested type "simple"
  1510                           ; Number of cases is 3, Range of values is 0 to 2
  1511                           ; switch strategies available:
  1512                           ; Name         Instructions Cycles
  1513                           ; simple_byte           10     6 (average)
  1514                           ;	Chosen strategy is simple_byte
  1515   002C02  517E               	movf	??_SYSTEM_Initialize& (0+255),w,b
  1516   002C04  0A00               	xorlw	0	; case 0
  1517   002C06  B4D8               	btfsc	status,2,c
  1518   002C08  EFE5  F015         	goto	l5375
  1519   002C0C  0A01               	xorlw	1	; case 1
  1520   002C0E  B4D8               	btfsc	status,2,c
  1521   002C10  EF10  F016         	goto	l656
  1522   002C14  0A03               	xorlw	3	; case 2
  1523   002C16  B4D8               	btfsc	status,2,c
  1524   002C18  EF10  F016         	goto	l656
  1525   002C1C  EF10  F016         	goto	l656
  1526   002C20                     l656:
  1527   002C20  0012               	return		;funcret
  1528   002C22                     __end_of_SYSTEM_Initialize:
  1529                           	callstack 0
  1530                           
  1531 ;; *************** function _LED_Enable *****************
  1532 ;; Defined at:
  1533 ;;		line 257 in file "../../../../../../bsp/picdem_fs_usb/leds.c"
  1534 ;; Parameters:    Size  Location     Type
  1535 ;;  led             1    wreg     enum E2
  1536 ;; Auto vars:     Size  Location     Type
  1537 ;;  led             1   47[COMRAM] enum E2
  1538 ;; Return value:  Size  Location     Type
  1539 ;;                  1    wreg      void 
  1540 ;; Registers used:
  1541 ;;		wreg, status,2, status,0
  1542 ;; Tracked objects:
  1543 ;;		On entry : 0/0
  1544 ;;		On exit  : 0/0
  1545 ;;		Unchanged: 0/0
  1546 ;; Data sizes:     COMRAM   BANK0   BANK1   BANK2   BANK3   BANK4   BANK5   BANK6   BANK7
  1547 ;;      Params:         0       0       0       0       0       0       0       0       0
  1548 ;;      Locals:         1       0       0       0       0       0       0       0       0
  1549 ;;      Temps:          2       0       0       0       0       0       0       0       0
  1550 ;;      Totals:         3       0       0       0       0       0       0       0       0
  1551 ;;Total ram usage:        3 bytes
  1552 ;; Hardware stack levels used: 1
  1553 ;; Hardware stack levels required when called: 10
  1554 ;; This function calls:
  1555 ;;		Nothing
  1556 ;; This function is called by:
  1557 ;;		_SYSTEM_Initialize
  1558 ;; This function uses a non-reentrant model
  1559 ;;
  1560                           
  1561                           	psect	text5
  1562   00297A                     __ptext5:
  1563                           	callstack 0
  1564   00297A                     _LED_Enable:
  1565                           	callstack 19
  1566                           
  1567                           ;incstack = 0
  1568                           ;LED_Enable@led stored from wreg
  1569   00297A  6E30               	movwf	LED_Enable@led^0,c
  1570   00297C                     
  1571                           ;../../../../../../bsp/picdem_fs_usb/leds.c: 257: void LED_Enable(LED led);../../../../.
      +                          ./../bsp/picdem_fs_usb/leds.c: 258: {;../../../../../../bsp/picdem_fs_usb/leds.c: 259:  
      +                             switch(led)
  1572   00297C  EFCC  F014         	goto	l2281
  1573   002980                     l68:
  1574                           
  1575                           ;../../../../../../bsp/picdem_fs_usb/leds.c: 262:             TRISDbits.TRISD0 = 0;
  1576   002980  9095               	bcf	149,0,c	;volatile
  1577                           
  1578                           ;../../../../../../bsp/picdem_fs_usb/leds.c: 263:             break;
  1579   002982  EFED  F014         	goto	l74
  1580   002986                     l70:
  1581                           
  1582                           ;../../../../../../bsp/picdem_fs_usb/leds.c: 266:             TRISDbits.TRISD1 = 0;
  1583   002986  9295               	bcf	149,1,c	;volatile
  1584                           
  1585                           ;../../../../../../bsp/picdem_fs_usb/leds.c: 267:             break;
  1586   002988  EFED  F014         	goto	l74
  1587   00298C                     l71:
  1588                           
  1589                           ;../../../../../../bsp/picdem_fs_usb/leds.c: 270:             TRISDbits.TRISD2 = 0;
  1590   00298C  9495               	bcf	149,2,c	;volatile
  1591                           
  1592                           ;../../../../../../bsp/picdem_fs_usb/leds.c: 271:             break;
  1593   00298E  EFED  F014         	goto	l74
  1594   002992                     l72:
  1595                           
  1596                           ;../../../../../../bsp/picdem_fs_usb/leds.c: 274:             TRISDbits.TRISD3 = 0;
  1597   002992  9695               	bcf	149,3,c	;volatile
  1598                           
  1599                           ;../../../../../../bsp/picdem_fs_usb/leds.c: 275:             break;
  1600   002994  EFED  F014         	goto	l74
  1601   002998                     l2281:
  1602   002998  5030               	movf	LED_Enable@led^0,w,c
  1603   00299A  6E2E               	movwf	??_LED_Enable^0,c
  1604   00299C  6A2F               	clrf	(??_LED_Enable+1)^0,c
  1605                           
  1606                           ; Switch on 2 bytes has been partitioned into a top level switch of size 1, and 1 sub-sw
      +                          itches
  1607                           ; Switch size 1, requested type "simple"
  1608                           ; Number of cases is 1, Range of values is 0 to 0
  1609                           ; switch strategies available:
  1610                           ; Name         Instructions Cycles
  1611                           ; simple_byte            4     3 (average)
  1612                           ;	Chosen strategy is simple_byte
  1613   00299E  502F               	movf	(??_LED_Enable+1)^0,w,c
  1614   0029A0  0A00               	xorlw	0	; case 0
  1615   0029A2  B4D8               	btfsc	status,2,c
  1616   0029A4  EFD6  F014         	goto	l5947
  1617   0029A8  EFED  F014         	goto	l74
  1618   0029AC                     l5947:
  1619                           
  1620                           ; Switch size 1, requested type "simple"
  1621                           ; Number of cases is 5, Range of values is 0 to 4
  1622                           ; switch strategies available:
  1623                           ; Name         Instructions Cycles
  1624                           ; simple_byte           16     9 (average)
  1625                           ;	Chosen strategy is simple_byte
  1626   0029AC  502E               	movf	??_LED_Enable^0,w,c
  1627   0029AE  0A00               	xorlw	0	; case 0
  1628   0029B0  B4D8               	btfsc	status,2,c
  1629   0029B2  EFED  F014         	goto	l74
  1630   0029B6  0A01               	xorlw	1	; case 1
  1631   0029B8  B4D8               	btfsc	status,2,c
  1632   0029BA  EFC0  F014         	goto	l68
  1633   0029BE  0A03               	xorlw	3	; case 2
  1634   0029C0  B4D8               	btfsc	status,2,c
  1635   0029C2  EFC3  F014         	goto	l70
  1636   0029C6  0A01               	xorlw	1	; case 3
  1637   0029C8  B4D8               	btfsc	status,2,c
  1638   0029CA  EFC6  F014         	goto	l71
  1639   0029CE  0A07               	xorlw	7	; case 4
  1640   0029D0  B4D8               	btfsc	status,2,c
  1641   0029D2  EFC9  F014         	goto	l72
  1642   0029D6  EFED  F014         	goto	l74
  1643   0029DA                     l74:
  1644   0029DA  0012               	return		;funcret
  1645   0029DC                     __end_of_LED_Enable:
  1646                           	callstack 0
  1647                           
  1648 ;; *************** function _BUTTON_Enable *****************
  1649 ;; Defined at:
  1650 ;;		line 128 in file "../../../../../../bsp/picdem_fs_usb/buttons.c"
  1651 ;; Parameters:    Size  Location     Type
  1652 ;;  button          1    wreg     enum E3201
  1653 ;; Auto vars:     Size  Location     Type
  1654 ;;  button          1   47[COMRAM] enum E3201
  1655 ;; Return value:  Size  Location     Type
  1656 ;;                  1    wreg      void 
  1657 ;; Registers used:
  1658 ;;		wreg, status,2, status,0
  1659 ;; Tracked objects:
  1660 ;;		On entry : 0/0
  1661 ;;		On exit  : 0/0
  1662 ;;		Unchanged: 0/0
  1663 ;; Data sizes:     COMRAM   BANK0   BANK1   BANK2   BANK3   BANK4   BANK5   BANK6   BANK7
  1664 ;;      Params:         0       0       0       0       0       0       0       0       0
  1665 ;;      Locals:         1       0       0       0       0       0       0       0       0
  1666 ;;      Temps:          2       0       0       0       0       0       0       0       0
  1667 ;;      Totals:         3       0       0       0       0       0       0       0       0
  1668 ;;Total ram usage:        3 bytes
  1669 ;; Hardware stack levels used: 1
  1670 ;; Hardware stack levels required when called: 10
  1671 ;; This function calls:
  1672 ;;		Nothing
  1673 ;; This function is called by:
  1674 ;;		_SYSTEM_Initialize
  1675 ;; This function uses a non-reentrant model
  1676 ;;
  1677                           
  1678                           	psect	text6
  1679   002D60                     __ptext6:
  1680                           	callstack 0
  1681   002D60                     _BUTTON_Enable:
  1682                           	callstack 19
  1683                           
  1684                           ;incstack = 0
  1685                           ;BUTTON_Enable@button stored from wreg
  1686   002D60  6E30               	movwf	BUTTON_Enable@button^0,c
  1687   002D62                     
  1688                           ;../../../../../../bsp/picdem_fs_usb/buttons.c: 128: void BUTTON_Enable(BUTTON button);.
      +                          ./../../../../../bsp/picdem_fs_usb/buttons.c: 129: {;../../../../../../bsp/picdem_fs_usb
      +                          /buttons.c: 130:     switch(button)
  1689   002D62  EFB9  F016         	goto	l2261
  1690   002D66                     l16:
  1691                           
  1692                           ;../../../../../../bsp/picdem_fs_usb/buttons.c: 133:             TRISBbits.TRISB4 = 1;
  1693   002D66  8893               	bsf	147,4,c	;volatile
  1694                           
  1695                           ;../../../../../../bsp/picdem_fs_usb/buttons.c: 134:             break;
  1696   002D68  EFD2  F016         	goto	l20
  1697   002D6C                     l18:
  1698                           
  1699                           ;../../../../../../bsp/picdem_fs_usb/buttons.c: 137:             TRISBbits.TRISB5 = 1;
  1700   002D6C  8A93               	bsf	147,5,c	;volatile
  1701                           
  1702                           ;../../../../../../bsp/picdem_fs_usb/buttons.c: 138:             break;
  1703   002D6E  EFD2  F016         	goto	l20
  1704   002D72                     l2261:
  1705   002D72  5030               	movf	BUTTON_Enable@button^0,w,c
  1706   002D74  6E2E               	movwf	??_BUTTON_Enable^0,c
  1707   002D76  6A2F               	clrf	(??_BUTTON_Enable+1)^0,c
  1708                           
  1709                           ; Switch on 2 bytes has been partitioned into a top level switch of size 1, and 1 sub-sw
      +                          itches
  1710                           ; Switch size 1, requested type "simple"
  1711                           ; Number of cases is 1, Range of values is 0 to 0
  1712                           ; switch strategies available:
  1713                           ; Name         Instructions Cycles
  1714                           ; simple_byte            4     3 (average)
  1715                           ;	Chosen strategy is simple_byte
  1716   002D78  502F               	movf	(??_BUTTON_Enable+1)^0,w,c
  1717   002D7A  0A00               	xorlw	0	; case 0
  1718   002D7C  B4D8               	btfsc	status,2,c
  1719   002D7E  EFC3  F016         	goto	l5949
  1720   002D82  EFD2  F016         	goto	l20
  1721   002D86                     l5949:
  1722                           
  1723                           ; Switch size 1, requested type "simple"
  1724                           ; Number of cases is 3, Range of values is 0 to 2
  1725                           ; switch strategies available:
  1726                           ; Name         Instructions Cycles
  1727                           ; simple_byte           10     6 (average)
  1728                           ;	Chosen strategy is simple_byte
  1729   002D86  502E               	movf	??_BUTTON_Enable^0,w,c
  1730   002D88  0A00               	xorlw	0	; case 0
  1731   002D8A  B4D8               	btfsc	status,2,c
  1732   002D8C  EFD2  F016         	goto	l20
  1733   002D90  0A01               	xorlw	1	; case 1
  1734   002D92  B4D8               	btfsc	status,2,c
  1735   002D94  EFB3  F016         	goto	l16
  1736   002D98  0A03               	xorlw	3	; case 2
  1737   002D9A  B4D8               	btfsc	status,2,c
  1738   002D9C  EFB6  F016         	goto	l18
  1739   002DA0  EFD2  F016         	goto	l20
  1740   002DA4                     l20:
  1741   002DA4  0012               	return		;funcret
  1742   002DA6                     __end_of_BUTTON_Enable:
  1743                           	callstack 0
  1744                           
  1745 ;; *************** function _ADC_SetConfiguration *****************
  1746 ;; Defined at:
  1747 ;;		line 177 in file "../../../../../../bsp/picdem_fs_usb/adc.c"
  1748 ;; Parameters:    Size  Location     Type
  1749 ;;  configuratio    1    wreg     enum E39
  1750 ;; Auto vars:     Size  Location     Type
  1751 ;;  configuratio    1   45[COMRAM] enum E39
  1752 ;; Return value:  Size  Location     Type
  1753 ;;                  1    wreg      _Bool 
  1754 ;; Registers used:
  1755 ;;		wreg, status,2
  1756 ;; Tracked objects:
  1757 ;;		On entry : 0/0
  1758 ;;		On exit  : 0/0
  1759 ;;		Unchanged: 0/0
  1760 ;; Data sizes:     COMRAM   BANK0   BANK1   BANK2   BANK3   BANK4   BANK5   BANK6   BANK7
  1761 ;;      Params:         0       0       0       0       0       0       0       0       0
  1762 ;;      Locals:         1       0       0       0       0       0       0       0       0
  1763 ;;      Temps:          0       0       0       0       0       0       0       0       0
  1764 ;;      Totals:         1       0       0       0       0       0       0       0       0
  1765 ;;Total ram usage:        1 bytes
  1766 ;; Hardware stack levels used: 1
  1767 ;; Hardware stack levels required when called: 10
  1768 ;; This function calls:
  1769 ;;		Nothing
  1770 ;; This function is called by:
  1771 ;;		_SYSTEM_Initialize
  1772 ;; This function uses a non-reentrant model
  1773 ;;
  1774                           
  1775                           	psect	text7
  1776   002F42                     __ptext7:
  1777                           	callstack 0
  1778   002F42                     _ADC_SetConfiguration:
  1779                           	callstack 19
  1780                           
  1781                           ;incstack = 0
  1782                           ;ADC_SetConfiguration@configuration stored from wreg
  1783   002F42  6E2E               	movwf	ADC_SetConfiguration@configuration^0,c
  1784   002F44                     
  1785                           ;../../../../../../bsp/picdem_fs_usb/adc.c: 177: _Bool ADC_SetConfiguration(ADC_CONFIGUR
      +                          ATION configuration);../../../../../../bsp/picdem_fs_usb/adc.c: 178: {;../../../../../..
      +                          /bsp/picdem_fs_usb/adc.c: 179:     if(configuration == ADC_CONFIGURATION_DEFAULT)
  1786   002F44  502E               	movf	ADC_SetConfiguration@configuration^0,w,c
  1787   002F46  A4D8               	btfss	status,2,c
  1788   002F48  EFA8  F017         	goto	u981
  1789   002F4C  EFAA  F017         	goto	u980
  1790   002F50                     u981:
  1791   002F50  EFB3  F017         	goto	l121
  1792   002F54                     u980:
  1793   002F54                     
  1794                           ;../../../../../../bsp/picdem_fs_usb/adc.c: 180:     {;../../../../../../bsp/picdem_fs_u
      +                          sb/adc.c: 181:         ADCON0=0x01;
  1795   002F54  0E01               	movlw	1
  1796   002F56  6EC2               	movwf	194,c	;volatile
  1797   002F58                     
  1798                           ;../../../../../../bsp/picdem_fs_usb/adc.c: 182:         ADCON1bits.PCFG = 0b1110;
  1799   002F58  50C1               	movf	193,w,c	;volatile
  1800   002F5A  0BF0               	andlw	-16
  1801   002F5C  090E               	iorlw	14
  1802   002F5E  6EC1               	movwf	193,c	;volatile
  1803   002F60                     
  1804                           ;../../../../../../bsp/picdem_fs_usb/adc.c: 183:         ADCON2=0x3C;
  1805   002F60  0E3C               	movlw	60
  1806   002F62  6EC0               	movwf	192,c	;volatile
  1807   002F64                     
  1808                           ;../../../../../../bsp/picdem_fs_usb/adc.c: 184:         ADCON2bits.ADFM = 1;
  1809   002F64  8EC0               	bsf	192,7,c	;volatile
  1810   002F66                     l121:
  1811   002F66  0012               	return		;funcret
  1812   002F68                     __end_of_ADC_SetConfiguration:
  1813                           	callstack 0
  1814                           
  1815 ;; *************** function _ADC_Enable *****************
  1816 ;; Defined at:
  1817 ;;		line 152 in file "../../../../../../bsp/picdem_fs_usb/adc.c"
  1818 ;; Parameters:    Size  Location     Type
  1819 ;;  channel         1    wreg     enum E36
  1820 ;; Auto vars:     Size  Location     Type
  1821 ;;  channel         1   47[COMRAM] enum E36
  1822 ;; Return value:  Size  Location     Type
  1823 ;;                  1    wreg      _Bool 
  1824 ;; Registers used:
  1825 ;;		wreg, status,2, status,0
  1826 ;; Tracked objects:
  1827 ;;		On entry : 0/0
  1828 ;;		On exit  : 0/0
  1829 ;;		Unchanged: 0/0
  1830 ;; Data sizes:     COMRAM   BANK0   BANK1   BANK2   BANK3   BANK4   BANK5   BANK6   BANK7
  1831 ;;      Params:         0       0       0       0       0       0       0       0       0
  1832 ;;      Locals:         1       0       0       0       0       0       0       0       0
  1833 ;;      Temps:          2       0       0       0       0       0       0       0       0
  1834 ;;      Totals:         3       0       0       0       0       0       0       0       0
  1835 ;;Total ram usage:        3 bytes
  1836 ;; Hardware stack levels used: 1
  1837 ;; Hardware stack levels required when called: 10
  1838 ;; This function calls:
  1839 ;;		Nothing
  1840 ;; This function is called by:
  1841 ;;		_SYSTEM_Initialize
  1842 ;; This function uses a non-reentrant model
  1843 ;;
  1844                           
  1845                           	psect	text8
  1846   002E90                     __ptext8:
  1847                           	callstack 0
  1848   002E90                     _ADC_Enable:
  1849                           	callstack 19
  1850                           
  1851                           ;incstack = 0
  1852                           ;ADC_Enable@channel stored from wreg
  1853   002E90  6E30               	movwf	ADC_Enable@channel^0,c
  1854   002E92                     
  1855                           ;../../../../../../bsp/picdem_fs_usb/adc.c: 152: _Bool ADC_Enable(ADC_CHANNEL channel);.
      +                          ./../../../../../bsp/picdem_fs_usb/adc.c: 153: {;../../../../../../bsp/picdem_fs_usb/adc
      +                          .c: 154:     switch(channel)
  1856   002E92  EF4E  F017         	goto	l2313
  1857   002E96                     l114:
  1858                           
  1859                           ;../../../../../../bsp/picdem_fs_usb/adc.c: 157:             TRISAbits.TRISA0 = 1;
  1860   002E96  8092               	bsf	146,0,c	;volatile
  1861                           
  1862                           ;../../../../../../bsp/picdem_fs_usb/adc.c: 158:             return 1;;	Return value of 
      +                          _ADC_Enable is never used
  1863   002E98  EF5F  F017         	goto	l115
  1864   002E9C                     l2313:
  1865   002E9C  5030               	movf	ADC_Enable@channel^0,w,c
  1866   002E9E  6E2E               	movwf	??_ADC_Enable^0,c
  1867   002EA0  6A2F               	clrf	(??_ADC_Enable+1)^0,c
  1868                           
  1869                           ; Switch on 2 bytes has been partitioned into a top level switch of size 1, and 1 sub-sw
      +                          itches
  1870                           ; Switch size 1, requested type "simple"
  1871                           ; Number of cases is 1, Range of values is 0 to 0
  1872                           ; switch strategies available:
  1873                           ; Name         Instructions Cycles
  1874                           ; simple_byte            4     3 (average)
  1875                           ;	Chosen strategy is simple_byte
  1876   002EA2  502F               	movf	(??_ADC_Enable+1)^0,w,c
  1877   002EA4  0A00               	xorlw	0	; case 0
  1878   002EA6  B4D8               	btfsc	status,2,c
  1879   002EA8  EF58  F017         	goto	l5951
  1880   002EAC  EF5F  F017         	goto	l115
  1881   002EB0                     l5951:
  1882                           
  1883                           ; Switch size 1, requested type "simple"
  1884                           ; Number of cases is 1, Range of values is 0 to 0
  1885                           ; switch strategies available:
  1886                           ; Name         Instructions Cycles
  1887                           ; simple_byte            4     3 (average)
  1888                           ;	Chosen strategy is simple_byte
  1889   002EB0  502E               	movf	??_ADC_Enable^0,w,c
  1890   002EB2  0A00               	xorlw	0	; case 0
  1891   002EB4  B4D8               	btfsc	status,2,c
  1892   002EB6  EF4B  F017         	goto	l114
  1893   002EBA  EF5F  F017         	goto	l115
  1894   002EBE                     l115:
  1895   002EBE  0012               	return		;funcret
  1896   002EC0                     __end_of_ADC_Enable:
  1897                           	callstack 0
  1898                           
  1899 ;; *************** function _APP_DeviceCustomHIDTasks *****************
  1900 ;; Defined at:
  1901 ;;		line 104 in file "../demo_src/app_device_custom_hid.c"
  1902 ;; Parameters:    Size  Location     Type
  1903 ;;		None
  1904 ;; Auto vars:     Size  Location     Type
  1905 ;;  pot             2    9[BANK0 ] unsigned short 
  1906 ;; Return value:  Size  Location     Type
  1907 ;;                  1    wreg      void 
  1908 ;; Registers used:
  1909 ;;		wreg, fsr2l, fsr2h, status,2, status,0, prodl, prodh, cstack
  1910 ;; Tracked objects:
  1911 ;;		On entry : 0/0
  1912 ;;		On exit  : 0/0
  1913 ;;		Unchanged: 0/0
  1914 ;; Data sizes:     COMRAM   BANK0   BANK1   BANK2   BANK3   BANK4   BANK5   BANK6   BANK7
  1915 ;;      Params:         0       0       0       0       0       0       0       0       0
  1916 ;;      Locals:         0       2       0       0       0       0       0       0       0
  1917 ;;      Temps:          0       2       0       0       0       0       0       0       0
  1918 ;;      Totals:         0       4       0       0       0       0       0       0       0
  1919 ;;Total ram usage:        4 bytes
  1920 ;; Hardware stack levels used: 1
  1921 ;; Hardware stack levels required when called: 11
  1922 ;; This function calls:
  1923 ;;		_ADC_Read10bit
  1924 ;;		_BUTTON_IsPressed
  1925 ;;		_LED_Toggle
  1926 ;;		_USBTransferOnePacket
  1927 ;; This function is called by:
  1928 ;;		_main
  1929 ;; This function uses a non-reentrant model
  1930 ;;
  1931                           
  1932                           	psect	text9
  1933   000E4C                     __ptext9:
  1934                           	callstack 0
  1935   000E4C                     _APP_DeviceCustomHIDTasks:
  1936                           	callstack 19
  1937   000E4C                     
  1938                           ;../demo_src/app_device_custom_hid.c: 109:     if( USBDeviceState < CONFIGURED_STATE )
  1939   000E4C  0E20               	movlw	32
  1940   000E4E  604B               	cpfslt	_USBDeviceState^0,c	;volatile
  1941   000E50  EF2C  F007         	goto	u3271
  1942   000E54  EF2E  F007         	goto	u3270
  1943   000E58                     u3271:
  1944   000E58  EF30  F007         	goto	l689
  1945   000E5C                     u3270:
  1946   000E5C  EFEF  F007         	goto	l690
  1947   000E60                     l689:
  1948                           
  1949                           ;../demo_src/app_device_custom_hid.c: 118:     if( UCONbits.SUSPND== 1 )
  1950   000E60  A26D               	btfss	109,1,c	;volatile
  1951   000E62  EF35  F007         	goto	u3281
  1952   000E66  EF37  F007         	goto	u3280
  1953   000E6A                     u3281:
  1954   000E6A  EF39  F007         	goto	l5395
  1955   000E6E                     u3280:
  1956   000E6E  EFEF  F007         	goto	l690
  1957   000E72                     l5395:
  1958                           
  1959                           ;../demo_src/app_device_custom_hid.c: 124:     if(((USBOutHandle != 0x0000) && ((*(volat
      +                          ile uint8_t*)USBOutHandle & 0x80) != 0x00)) == 0)
  1960   000E72  0100               	movlb	0	; () banked
  1961   000E74  5178               	movf	_USBOutHandle& (0+255),w,b
  1962   000E76  1179               	iorwf	(_USBOutHandle+1)& (0+255),w,b
  1963   000E78  B4D8               	btfsc	status,2,c
  1964   000E7A  EF41  F007         	goto	u3291
  1965   000E7E  EF43  F007         	goto	u3290
  1966   000E82                     u3291:
  1967   000E82  EFC5  F007         	goto	l5431
  1968   000E86                     u3290:
  1969   000E86                     
  1970                           ; BSR set to: 0
  1971   000E86  C078  FFD9         	movff	_USBOutHandle,fsr2l
  1972   000E8A  C079  FFDA         	movff	_USBOutHandle+1,fsr2h
  1973   000E8E  BEDF               	btfsc	indf2,7,c
  1974   000E90  EF4C  F007         	goto	u3301
  1975   000E94  EF4E  F007         	goto	u3300
  1976   000E98                     u3301:
  1977   000E98  EFEF  F007         	goto	l690
  1978   000E9C                     u3300:
  1979   000E9C  EFC5  F007         	goto	l5431
  1980   000EA0                     l5399:
  1981                           
  1982                           ; BSR set to: 0
  1983                           ;../demo_src/app_device_custom_hid.c: 132:                 LED_Toggle(LED_D2);
  1984   000EA0  0E02               	movlw	2
  1985   000EA2  ECEE  F014         	call	_LED_Toggle
  1986                           
  1987                           ;../demo_src/app_device_custom_hid.c: 133:                 break;
  1988   000EA6  EFE0  F007         	goto	l5433
  1989   000EAA                     l5401:
  1990                           
  1991                           ; BSR set to: 0
  1992                           ;../demo_src/app_device_custom_hid.c: 136:                 if(!((USBInHandle != 0x0000) 
      +                          && ((*(volatile uint8_t*)USBInHandle & 0x80) != 0x00)))
  1993   000EAA  5176               	movf	_USBInHandle& (0+255),w,b
  1994   000EAC  1177               	iorwf	(_USBInHandle+1)& (0+255),w,b
  1995   000EAE  B4D8               	btfsc	status,2,c
  1996   000EB0  EF5C  F007         	goto	u3311
  1997   000EB4  EF5E  F007         	goto	u3310
  1998   000EB8                     u3311:
  1999   000EB8  EF69  F007         	goto	l5405
  2000   000EBC                     u3310:
  2001   000EBC                     
  2002                           ; BSR set to: 0
  2003   000EBC  C076  FFD9         	movff	_USBInHandle,fsr2l
  2004   000EC0  C077  FFDA         	movff	_USBInHandle+1,fsr2h
  2005   000EC4  BEDF               	btfsc	indf2,7,c
  2006   000EC6  EF67  F007         	goto	u3321
  2007   000ECA  EF69  F007         	goto	u3320
  2008   000ECE                     u3321:
  2009   000ECE  EFE0  F007         	goto	l5433
  2010   000ED2                     u3320:
  2011   000ED2                     l5405:
  2012                           
  2013                           ; BSR set to: 0
  2014                           ;../demo_src/app_device_custom_hid.c: 137:                 {;../demo_src/app_device_cust
      +                          om_hid.c: 138:                     ToSendDataBuffer[0] = 0x81;
  2015   000ED2  0E81               	movlw	129
  2016   000ED4  0105               	movlb	5	; () banked
  2017   000ED6  6F40               	movwf	64,b
  2018   000ED8                     
  2019                           ; BSR set to: 5
  2020                           ;../demo_src/app_device_custom_hid.c: 139:                     if(BUTTON_IsPressed(BUTTO
      +                          N_S2) == 0)
  2021   000ED8  0E01               	movlw	1
  2022   000EDA  EC52  F014         	call	_BUTTON_IsPressed
  2023   000EDE  0900               	iorlw	0
  2024   000EE0  A4D8               	btfss	status,2,c
  2025   000EE2  EF75  F007         	goto	u3331
  2026   000EE6  EF77  F007         	goto	u3330
  2027   000EEA                     u3331:
  2028   000EEA  EF7C  F007         	goto	l5411
  2029   000EEE                     u3330:
  2030   000EEE                     
  2031                           ;../demo_src/app_device_custom_hid.c: 140:                     {;../demo_src/app_device_
      +                          custom_hid.c: 141:                             ToSendDataBuffer[1] = 0x01;
  2032   000EEE  0E01               	movlw	1
  2033   000EF0  0105               	movlb	5	; () banked
  2034   000EF2  6F41               	movwf	65,b
  2035                           
  2036                           ;../demo_src/app_device_custom_hid.c: 142:                     }
  2037   000EF4  EF7F  F007         	goto	l5413
  2038   000EF8                     l5411:
  2039                           
  2040                           ;../demo_src/app_device_custom_hid.c: 144:                     {;../demo_src/app_device_
      +                          custom_hid.c: 145:                             ToSendDataBuffer[1] = 0x00;
  2041   000EF8  0E00               	movlw	0
  2042   000EFA  0105               	movlb	5	; () banked
  2043   000EFC  6F41               	movwf	65,b
  2044   000EFE                     l5413:
  2045                           
  2046                           ; BSR set to: 5
  2047                           ;../demo_src/app_device_custom_hid.c: 148:                     USBInHandle = USBTransfer
      +                          OnePacket(1,1,(uint8_t*)&ToSendDataBuffer[0],64);
  2048   000EFE  0E01               	movlw	1
  2049   000F00  6E2E               	movwf	USBTransferOnePacket@dir^0,c
  2050   000F02  0E40               	movlw	64
  2051   000F04  6E2F               	movwf	USBTransferOnePacket@data^0,c
  2052   000F06  0E05               	movlw	5
  2053   000F08  6E30               	movwf	(USBTransferOnePacket@data+1)^0,c
  2054   000F0A  0E40               	movlw	64
  2055   000F0C  6E31               	movwf	USBTransferOnePacket@len^0,c
  2056   000F0E  0E01               	movlw	1
  2057   000F10  ECDA  F00A         	call	_USBTransferOnePacket
  2058   000F14  C02E  F076         	movff	?_USBTransferOnePacket,_USBInHandle
  2059   000F18  C02F  F077         	movff	?_USBTransferOnePacket+1,_USBInHandle+1
  2060   000F1C  EFE0  F007         	goto	l5433
  2061   000F20                     l5415:
  2062                           
  2063                           ; BSR set to: 0
  2064                           ;../demo_src/app_device_custom_hid.c: 153:                 {;../demo_src/app_device_cust
      +                          om_hid.c: 154:                     uint16_t pot;;../demo_src/app_device_custom_hid.c: 15
      +                          7:                     if(!((USBInHandle != 0x0000) && ((*(volatile uint8_t*)USBInHandle
      +                           & 0x80) != 0x00)))
  2065   000F20  5176               	movf	_USBInHandle& (0+255),w,b
  2066   000F22  1177               	iorwf	(_USBInHandle+1)& (0+255),w,b
  2067   000F24  B4D8               	btfsc	status,2,c
  2068   000F26  EF97  F007         	goto	u3341
  2069   000F2A  EF99  F007         	goto	u3340
  2070   000F2E                     u3341:
  2071   000F2E  EFA4  F007         	goto	l5419
  2072   000F32                     u3340:
  2073   000F32                     
  2074                           ; BSR set to: 0
  2075   000F32  C076  FFD9         	movff	_USBInHandle,fsr2l
  2076   000F36  C077  FFDA         	movff	_USBInHandle+1,fsr2h
  2077   000F3A  BEDF               	btfsc	indf2,7,c
  2078   000F3C  EFA2  F007         	goto	u3351
  2079   000F40  EFA4  F007         	goto	u3350
  2080   000F44                     u3351:
  2081   000F44  EFE0  F007         	goto	l5433
  2082   000F48                     u3350:
  2083   000F48                     l5419:
  2084                           
  2085                           ; BSR set to: 0
  2086                           ;../demo_src/app_device_custom_hid.c: 158:                     {;../demo_src/app_device_
      +                          custom_hid.c: 164:                         pot = ADC_Read10bit(ADC_CHANNEL_0);
  2087   000F48  0E00               	movlw	0
  2088   000F4A  EC19  F014         	call	_ADC_Read10bit
  2089   000F4E  C02E  F087         	movff	?_ADC_Read10bit,APP_DeviceCustomHIDTasks@pot
  2090   000F52  C02F  F088         	movff	?_ADC_Read10bit+1,APP_DeviceCustomHIDTasks@pot+1
  2091   000F56                     
  2092                           ;../demo_src/app_device_custom_hid.c: 166:                         ToSendDataBuffer[0] =
      +                           0x37;
  2093   000F56  0E37               	movlw	55
  2094   000F58  0105               	movlb	5	; () banked
  2095   000F5A  6F40               	movwf	64,b
  2096   000F5C                     
  2097                           ; BSR set to: 5
  2098                           ;../demo_src/app_device_custom_hid.c: 167:                         ToSendDataBuffer[1] =
      +                           (uint8_t)pot;
  2099   000F5C  C087  F541         	movff	APP_DeviceCustomHIDTasks@pot,1345
  2100   000F60                     
  2101                           ; BSR set to: 5
  2102                           ;../demo_src/app_device_custom_hid.c: 168:                         ToSendDataBuffer[2] =
      +                           pot >> 8;
  2103   000F60  0100               	movlb	0	; () banked
  2104   000F62  5188               	movf	(APP_DeviceCustomHIDTasks@pot+1)& (0+255),w,b
  2105   000F64  0105               	movlb	5	; () banked
  2106   000F66  6F42               	movwf	66,b
  2107   000F68                     
  2108                           ; BSR set to: 5
  2109                           ;../demo_src/app_device_custom_hid.c: 172:                         USBInHandle = USBTran
      +                          sferOnePacket(1,1,(uint8_t*)&ToSendDataBuffer[0],64);
  2110   000F68  0E01               	movlw	1
  2111   000F6A  6E2E               	movwf	USBTransferOnePacket@dir^0,c
  2112   000F6C  0E40               	movlw	64
  2113   000F6E  6E2F               	movwf	USBTransferOnePacket@data^0,c
  2114   000F70  0E05               	movlw	5
  2115   000F72  6E30               	movwf	(USBTransferOnePacket@data+1)^0,c
  2116   000F74  0E40               	movlw	64
  2117   000F76  6E31               	movwf	USBTransferOnePacket@len^0,c
  2118   000F78  0E01               	movlw	1
  2119   000F7A  ECDA  F00A         	call	_USBTransferOnePacket
  2120   000F7E  C02E  F076         	movff	?_USBTransferOnePacket,_USBInHandle
  2121   000F82  C02F  F077         	movff	?_USBTransferOnePacket+1,_USBInHandle+1
  2122   000F86  EFE0  F007         	goto	l5433
  2123   000F8A                     l5431:
  2124                           
  2125                           ; BSR set to: 0
  2126   000F8A  0105               	movlb	5	; () banked
  2127   000F8C  5100               	movf	0,w,b
  2128   000F8E  0100               	movlb	0	; () banked
  2129   000F90  6F85               	movwf	??_APP_DeviceCustomHIDTasks& (0+255),b
  2130   000F92  6B86               	clrf	(??_APP_DeviceCustomHIDTasks+1)& (0+255),b
  2131                           
  2132                           ; Switch on 2 bytes has been partitioned into a top level switch of size 1, and 1 sub-sw
      +                          itches
  2133                           ; Switch size 1, requested type "simple"
  2134                           ; Number of cases is 1, Range of values is 0 to 0
  2135                           ; switch strategies available:
  2136                           ; Name         Instructions Cycles
  2137                           ; simple_byte            4     3 (average)
  2138                           ;	Chosen strategy is simple_byte
  2139   000F94  5186               	movf	(??_APP_DeviceCustomHIDTasks+1)& (0+255),w,b
  2140   000F96  0A00               	xorlw	0	; case 0
  2141   000F98  B4D8               	btfsc	status,2,c
  2142   000F9A  EFD1  F007         	goto	l5953
  2143   000F9E  EFE0  F007         	goto	l5433
  2144   000FA2                     l5953:
  2145                           
  2146                           ; BSR set to: 0
  2147                           ; Switch size 1, requested type "simple"
  2148                           ; Number of cases is 3, Range of values is 55 to 129
  2149                           ; switch strategies available:
  2150                           ; Name         Instructions Cycles
  2151                           ; simple_byte           10     6 (average)
  2152                           ;	Chosen strategy is simple_byte
  2153   000FA2  5185               	movf	??_APP_DeviceCustomHIDTasks& (0+255),w,b
  2154   000FA4  0A37               	xorlw	55	; case 55
  2155   000FA6  B4D8               	btfsc	status,2,c
  2156   000FA8  EF90  F007         	goto	l5415
  2157   000FAC  0AB7               	xorlw	183	; case 128
  2158   000FAE  B4D8               	btfsc	status,2,c
  2159   000FB0  EF50  F007         	goto	l5399
  2160   000FB4  0A01               	xorlw	1	; case 129
  2161   000FB6  B4D8               	btfsc	status,2,c
  2162   000FB8  EF55  F007         	goto	l5401
  2163   000FBC  EFE0  F007         	goto	l5433
  2164   000FC0                     l5433:
  2165                           
  2166                           ;../demo_src/app_device_custom_hid.c: 179:         USBOutHandle = USBTransferOnePacket(1
      +                          ,0,(uint8_t*)&ReceivedDataBuffer[0],64);
  2167   000FC0  0E00               	movlw	0
  2168   000FC2  6E2E               	movwf	USBTransferOnePacket@dir^0,c
  2169   000FC4  0E00               	movlw	0
  2170   000FC6  6E2F               	movwf	USBTransferOnePacket@data^0,c
  2171   000FC8  0E05               	movlw	5
  2172   000FCA  6E30               	movwf	(USBTransferOnePacket@data+1)^0,c
  2173   000FCC  0E40               	movlw	64
  2174   000FCE  6E31               	movwf	USBTransferOnePacket@len^0,c
  2175   000FD0  0E01               	movlw	1
  2176   000FD2  ECDA  F00A         	call	_USBTransferOnePacket
  2177   000FD6  C02E  F078         	movff	?_USBTransferOnePacket,_USBOutHandle
  2178   000FDA  C02F  F079         	movff	?_USBTransferOnePacket+1,_USBOutHandle+1
  2179   000FDE                     l690:
  2180   000FDE  0012               	return		;funcret
  2181   000FE0                     __end_of_APP_DeviceCustomHIDTasks:
  2182                           	callstack 0
  2183                           
  2184 ;; *************** function _USBTransferOnePacket *****************
  2185 ;; Defined at:
  2186 ;;		line 999 in file "../../../../../../framework/usb/src/usb_device.c"
  2187 ;; Parameters:    Size  Location     Type
  2188 ;;  ep              1    wreg     unsigned char 
  2189 ;;  dir             1   45[COMRAM] unsigned char 
  2190 ;;  data            2   46[COMRAM] PTR unsigned char 
  2191 ;;		 -> ToSendDataBuffer(64), ReceivedDataBuffer(64), 
  2192 ;;  len             1   48[COMRAM] unsigned char 
  2193 ;; Auto vars:     Size  Location     Type
  2194 ;;  ep              1    4[BANK0 ] unsigned char 
  2195 ;;  handle          2    5[BANK0 ] PTR volatile struct __BD
  2196 ;;		 -> RAM(2047), NULL(0), BDT(32), 
  2197 ;; Return value:  Size  Location     Type
  2198 ;;                  2   45[COMRAM] PTR void 
  2199 ;; Registers used:
  2200 ;;		wreg, fsr2l, fsr2h, status,2, status,0, prodl, prodh
  2201 ;; Tracked objects:
  2202 ;;		On entry : 0/0
  2203 ;;		On exit  : 0/0
  2204 ;;		Unchanged: 0/0
  2205 ;; Data sizes:     COMRAM   BANK0   BANK1   BANK2   BANK3   BANK4   BANK5   BANK6   BANK7
  2206 ;;      Params:         4       0       0       0       0       0       0       0       0
  2207 ;;      Locals:         0       3       0       0       0       0       0       0       0
  2208 ;;      Temps:          0       4       0       0       0       0       0       0       0
  2209 ;;      Totals:         4       7       0       0       0       0       0       0       0
  2210 ;;Total ram usage:       11 bytes
  2211 ;; Hardware stack levels used: 1
  2212 ;; Hardware stack levels required when called: 10
  2213 ;; This function calls:
  2214 ;;		Nothing
  2215 ;; This function is called by:
  2216 ;;		_APP_DeviceCustomHIDTasks
  2217 ;; This function uses a non-reentrant model
  2218 ;;
  2219                           
  2220                           	psect	text10
  2221   0015B4                     __ptext10:
  2222                           	callstack 0
  2223   0015B4                     _USBTransferOnePacket:
  2224                           	callstack 19
  2225                           
  2226                           ;incstack = 0
  2227                           ;USBTransferOnePacket@ep stored from wreg
  2228   0015B4  0100               	movlb	0	; () banked
  2229   0015B6  6F82               	movwf	USBTransferOnePacket@ep& (0+255),b
  2230   0015B8                     
  2231                           ;../../../../../../framework/usb/src/usb_device.c: 999: void* USBTransferOnePacket(uint8
      +                          _t ep,uint8_t dir,uint8_t* data,uint8_t len);../../../../../../framework/usb/src/usb_dev
      +                          ice.c: 1000: {;../../../../../../framework/usb/src/usb_device.c: 1001:     volatile BDT_
      +                          ENTRY* handle;;../../../../../../framework/usb/src/usb_device.c: 1004:     if(dir != 0)
  2232   0015B8  502E               	movf	USBTransferOnePacket@dir^0,w,c
  2233   0015BA  B4D8               	btfsc	status,2,c
  2234   0015BC  EFE2  F00A         	goto	u3211
  2235   0015C0  EFE4  F00A         	goto	u3210
  2236   0015C4                     u3211:
  2237   0015C4  EFF3  F00A         	goto	l5271
  2238   0015C8                     u3210:
  2239   0015C8                     
  2240                           ;../../../../../../framework/usb/src/usb_device.c: 1005:     {;../../../../../../framewo
      +                          rk/usb/src/usb_device.c: 1007:         handle = pBDTEntryIn[ep];
  2241   0015C8  0100               	movlb	0	; () banked
  2242   0015CA  5182               	movf	USBTransferOnePacket@ep& (0+255),w,b
  2243   0015CC  0D02               	mullw	2
  2244   0015CE  0E6E               	movlw	low _pBDTEntryIn
  2245   0015D0  24F3               	addwf	243,w,c
  2246   0015D2  6ED9               	movwf	fsr2l,c
  2247   0015D4  0E00               	movlw	high _pBDTEntryIn
  2248   0015D6  20F4               	addwfc	prodh,w,c
  2249   0015D8  6EDA               	movwf	fsr2h,c
  2250   0015DA  CFDE F083          	movff	postinc2,USBTransferOnePacket@handle
  2251   0015DE  CFDD F084          	movff	postdec2,USBTransferOnePacket@handle+1
  2252                           
  2253                           ;../../../../../../framework/usb/src/usb_device.c: 1008:     }
  2254   0015E2  EF00  F00B         	goto	l5273
  2255   0015E6                     l5271:
  2256                           
  2257                           ;../../../../../../framework/usb/src/usb_device.c: 1010:     {;../../../../../../framewo
      +                          rk/usb/src/usb_device.c: 1012:         handle = pBDTEntryOut[ep];
  2258   0015E6  0100               	movlb	0	; () banked
  2259   0015E8  5182               	movf	USBTransferOnePacket@ep& (0+255),w,b
  2260   0015EA  0D02               	mullw	2
  2261   0015EC  0E72               	movlw	low _pBDTEntryOut
  2262   0015EE  24F3               	addwf	243,w,c
  2263   0015F0  6ED9               	movwf	fsr2l,c
  2264   0015F2  0E00               	movlw	high _pBDTEntryOut
  2265   0015F4  20F4               	addwfc	prodh,w,c
  2266   0015F6  6EDA               	movwf	fsr2h,c
  2267   0015F8  CFDE F083          	movff	postinc2,USBTransferOnePacket@handle
  2268   0015FC  CFDD F084          	movff	postdec2,USBTransferOnePacket@handle+1
  2269   001600                     l5273:
  2270                           
  2271                           ; BSR set to: 0
  2272                           ;../../../../../../framework/usb/src/usb_device.c: 1017:     if(handle == 0)
  2273   001600  5183               	movf	USBTransferOnePacket@handle& (0+255),w,b
  2274   001602  1184               	iorwf	(USBTransferOnePacket@handle+1)& (0+255),w,b
  2275   001604  A4D8               	btfss	status,2,c
  2276   001606  EF07  F00B         	goto	u3221
  2277   00160A  EF09  F00B         	goto	u3220
  2278   00160E                     u3221:
  2279   00160E  EF0F  F00B         	goto	l5279
  2280   001612                     u3220:
  2281   001612                     
  2282                           ; BSR set to: 0
  2283                           ;../../../../../../framework/usb/src/usb_device.c: 1018:     {;../../../../../../framewo
      +                          rk/usb/src/usb_device.c: 1019:         return 0;
  2284   001612  0E00               	movlw	0
  2285   001614  6E2E               	movwf	?_USBTransferOnePacket^0,c
  2286   001616  0E00               	movlw	0
  2287   001618  6E2F               	movwf	(?_USBTransferOnePacket+1)^0,c
  2288   00161A  EF7B  F00B         	goto	l302
  2289   00161E                     l5279:
  2290                           
  2291                           ; BSR set to: 0
  2292                           ;../../../../../../framework/usb/src/usb_device.c: 1033:     handle->ADR = ((uint16_t)(d
      +                          ata));
  2293   00161E  EE20 F002          	lfsr	2,2
  2294   001622  5183               	movf	USBTransferOnePacket@handle& (0+255),w,b
  2295   001624  26D9               	addwf	fsr2l,f,c
  2296   001626  5184               	movf	(USBTransferOnePacket@handle+1)& (0+255),w,b
  2297   001628  22DA               	addwfc	fsr2h,f,c
  2298   00162A  C02F  FFDE         	movff	USBTransferOnePacket@data,postinc2
  2299   00162E  C030  FFDD         	movff	USBTransferOnePacket@data+1,postdec2
  2300                           
  2301                           ;../../../../../../framework/usb/src/usb_device.c: 1034:     handle->CNT = len;
  2302   001632  EE20 F001          	lfsr	2,1
  2303   001636  5183               	movf	USBTransferOnePacket@handle& (0+255),w,b
  2304   001638  26D9               	addwf	fsr2l,f,c
  2305   00163A  5184               	movf	(USBTransferOnePacket@handle+1)& (0+255),w,b
  2306   00163C  22DA               	addwfc	fsr2h,f,c
  2307   00163E  C031  FFDF         	movff	USBTransferOnePacket@len,indf2
  2308   001642                     
  2309                           ; BSR set to: 0
  2310                           ;../../../../../../framework/usb/src/usb_device.c: 1035:     handle->STAT.Val &= 0x40;
  2311   001642  C083  FFD9         	movff	USBTransferOnePacket@handle,fsr2l
  2312   001646  C084  FFDA         	movff	USBTransferOnePacket@handle+1,fsr2h
  2313   00164A  0E40               	movlw	64
  2314   00164C  16DF               	andwf	indf2,f,c
  2315   00164E                     
  2316                           ; BSR set to: 0
  2317                           ;../../../../../../framework/usb/src/usb_device.c: 1036:     handle->STAT.Val |= (0x08 &
      +                           0x08);
  2318   00164E  C083  FFD9         	movff	USBTransferOnePacket@handle,fsr2l
  2319   001652  C084  FFDA         	movff	USBTransferOnePacket@handle+1,fsr2h
  2320   001656  0E00               	movlw	0
  2321   001658  86DB               	bsf	plusw2,3,c
  2322   00165A                     
  2323                           ; BSR set to: 0
  2324                           ;../../../../../../framework/usb/src/usb_device.c: 1037:     handle->STAT.Val |= 0x80;
  2325   00165A  C083  FFD9         	movff	USBTransferOnePacket@handle,fsr2l
  2326   00165E  C084  FFDA         	movff	USBTransferOnePacket@handle+1,fsr2h
  2327   001662  0E00               	movlw	0
  2328   001664  8EDB               	bsf	plusw2,7,c
  2329   001666                     
  2330                           ; BSR set to: 0
  2331                           ;../../../../../../framework/usb/src/usb_device.c: 1040:     if(dir != 0)
  2332   001666  502E               	movf	USBTransferOnePacket@dir^0,w,c
  2333   001668  B4D8               	btfsc	status,2,c
  2334   00166A  EF39  F00B         	goto	u3231
  2335   00166E  EF3B  F00B         	goto	u3230
  2336   001672                     u3231:
  2337   001672  EF5A  F00B         	goto	l5291
  2338   001676                     u3230:
  2339   001676                     
  2340                           ; BSR set to: 0
  2341                           ;../../../../../../framework/usb/src/usb_device.c: 1041:     {;../../../../../../framewo
      +                          rk/usb/src/usb_device.c: 1043:         pBDTEntryIn[ep] = (BDT_ENTRY*)(((uint16_t)pBDTEnt
      +                          ryIn[ep]) ^ 0x0004);
  2342   001676  5182               	movf	USBTransferOnePacket@ep& (0+255),w,b
  2343   001678  0D02               	mullw	2
  2344   00167A  0E6E               	movlw	low _pBDTEntryIn
  2345   00167C  24F3               	addwf	243,w,c
  2346   00167E  6ED9               	movwf	fsr2l,c
  2347   001680  0E00               	movlw	high _pBDTEntryIn
  2348   001682  20F4               	addwfc	prodh,w,c
  2349   001684  6EDA               	movwf	fsr2h,c
  2350   001686  CFDE F07E          	movff	postinc2,??_USBTransferOnePacket
  2351   00168A  CFDD F07F          	movff	postdec2,??_USBTransferOnePacket+1
  2352   00168E  0E04               	movlw	4
  2353   001690  197E               	xorwf	??_USBTransferOnePacket& (0+255),w,b
  2354   001692  6F80               	movwf	(??_USBTransferOnePacket+2)& (0+255),b
  2355   001694  517F               	movf	(??_USBTransferOnePacket+1)& (0+255),w,b
  2356   001696  6F81               	movwf	(??_USBTransferOnePacket+3)& (0+255),b
  2357   001698  5182               	movf	USBTransferOnePacket@ep& (0+255),w,b
  2358   00169A  0D02               	mullw	2
  2359   00169C  0E6E               	movlw	low _pBDTEntryIn
  2360   00169E  24F3               	addwf	243,w,c
  2361   0016A0  6ED9               	movwf	fsr2l,c
  2362   0016A2  0E00               	movlw	high _pBDTEntryIn
  2363   0016A4  20F4               	addwfc	prodh,w,c
  2364   0016A6  6EDA               	movwf	fsr2h,c
  2365   0016A8  C080  FFDE         	movff	??_USBTransferOnePacket+2,postinc2
  2366   0016AC  C081  FFDD         	movff	??_USBTransferOnePacket+3,postdec2
  2367                           
  2368                           ;../../../../../../framework/usb/src/usb_device.c: 1044:     }
  2369   0016B0  EF77  F00B         	goto	l5293
  2370   0016B4                     l5291:
  2371                           
  2372                           ; BSR set to: 0
  2373                           ;../../../../../../framework/usb/src/usb_device.c: 1046:     {;../../../../../../framewo
      +                          rk/usb/src/usb_device.c: 1048:         pBDTEntryOut[ep] = (BDT_ENTRY*)(((uint16_t)pBDTEn
      +                          tryOut[ep]) ^ 0x0004);
  2374   0016B4  5182               	movf	USBTransferOnePacket@ep& (0+255),w,b
  2375   0016B6  0D02               	mullw	2
  2376   0016B8  0E72               	movlw	low _pBDTEntryOut
  2377   0016BA  24F3               	addwf	243,w,c
  2378   0016BC  6ED9               	movwf	fsr2l,c
  2379   0016BE  0E00               	movlw	high _pBDTEntryOut
  2380   0016C0  20F4               	addwfc	prodh,w,c
  2381   0016C2  6EDA               	movwf	fsr2h,c
  2382   0016C4  CFDE F07E          	movff	postinc2,??_USBTransferOnePacket
  2383   0016C8  CFDD F07F          	movff	postdec2,??_USBTransferOnePacket+1
  2384   0016CC  0E04               	movlw	4
  2385   0016CE  197E               	xorwf	??_USBTransferOnePacket& (0+255),w,b
  2386   0016D0  6F80               	movwf	(??_USBTransferOnePacket+2)& (0+255),b
  2387   0016D2  517F               	movf	(??_USBTransferOnePacket+1)& (0+255),w,b
  2388   0016D4  6F81               	movwf	(??_USBTransferOnePacket+3)& (0+255),b
  2389   0016D6  5182               	movf	USBTransferOnePacket@ep& (0+255),w,b
  2390   0016D8  0D02               	mullw	2
  2391   0016DA  0E72               	movlw	low _pBDTEntryOut
  2392   0016DC  24F3               	addwf	243,w,c
  2393   0016DE  6ED9               	movwf	fsr2l,c
  2394   0016E0  0E00               	movlw	high _pBDTEntryOut
  2395   0016E2  20F4               	addwfc	prodh,w,c
  2396   0016E4  6EDA               	movwf	fsr2h,c
  2397   0016E6  C080  FFDE         	movff	??_USBTransferOnePacket+2,postinc2
  2398   0016EA  C081  FFDD         	movff	??_USBTransferOnePacket+3,postdec2
  2399   0016EE                     l5293:
  2400                           
  2401                           ; BSR set to: 0
  2402                           ;../../../../../../framework/usb/src/usb_device.c: 1050:     return (void*)handle;
  2403   0016EE  C083  F02E         	movff	USBTransferOnePacket@handle,?_USBTransferOnePacket
  2404   0016F2  C084  F02F         	movff	USBTransferOnePacket@handle+1,?_USBTransferOnePacket+1
  2405   0016F6                     l302:
  2406                           
  2407                           ; BSR set to: 0
  2408   0016F6  0012               	return		;funcret
  2409   0016F8                     __end_of_USBTransferOnePacket:
  2410                           	callstack 0
  2411                           
  2412 ;; *************** function _LED_Toggle *****************
  2413 ;; Defined at:
  2414 ;;		line 178 in file "../../../../../../bsp/picdem_fs_usb/leds.c"
  2415 ;; Parameters:    Size  Location     Type
  2416 ;;  led             1    wreg     enum E2
  2417 ;; Auto vars:     Size  Location     Type
  2418 ;;  led             1   47[COMRAM] enum E2
  2419 ;; Return value:  Size  Location     Type
  2420 ;;                  1    wreg      void 
  2421 ;; Registers used:
  2422 ;;		wreg, status,2, status,0
  2423 ;; Tracked objects:
  2424 ;;		On entry : 0/0
  2425 ;;		On exit  : 0/0
  2426 ;;		Unchanged: 0/0
  2427 ;; Data sizes:     COMRAM   BANK0   BANK1   BANK2   BANK3   BANK4   BANK5   BANK6   BANK7
  2428 ;;      Params:         0       0       0       0       0       0       0       0       0
  2429 ;;      Locals:         1       0       0       0       0       0       0       0       0
  2430 ;;      Temps:          2       0       0       0       0       0       0       0       0
  2431 ;;      Totals:         3       0       0       0       0       0       0       0       0
  2432 ;;Total ram usage:        3 bytes
  2433 ;; Hardware stack levels used: 1
  2434 ;; Hardware stack levels required when called: 10
  2435 ;; This function calls:
  2436 ;;		Nothing
  2437 ;; This function is called by:
  2438 ;;		_APP_DeviceCustomHIDTasks
  2439 ;; This function uses a non-reentrant model
  2440 ;;
  2441                           
  2442                           	psect	text11
  2443   0029DC                     __ptext11:
  2444                           	callstack 0
  2445   0029DC                     _LED_Toggle:
  2446                           	callstack 19
  2447                           
  2448                           ; BSR set to: 0
  2449                           ;incstack = 0
  2450                           ;LED_Toggle@led stored from wreg
  2451   0029DC  6E30               	movwf	LED_Toggle@led^0,c
  2452   0029DE                     
  2453                           ;../../../../../../bsp/picdem_fs_usb/leds.c: 178: void LED_Toggle(LED led);../../../../.
      +                          ./../bsp/picdem_fs_usb/leds.c: 179: {;../../../../../../bsp/picdem_fs_usb/leds.c: 180:  
      +                             switch(led)
  2454   0029DE  EFFD  F014         	goto	l4223
  2455   0029E2                     l48:
  2456                           
  2457                           ;../../../../../../bsp/picdem_fs_usb/leds.c: 183:             LATDbits.LATD0 ^= 1;
  2458   0029E2  708C               	btg	140,0,c	;volatile
  2459                           
  2460                           ;../../../../../../bsp/picdem_fs_usb/leds.c: 184:             break;
  2461   0029E4  EF1E  F015         	goto	l54
  2462   0029E8                     l50:
  2463                           
  2464                           ;../../../../../../bsp/picdem_fs_usb/leds.c: 187:             LATDbits.LATD1 ^= 1;
  2465   0029E8  728C               	btg	140,1,c	;volatile
  2466                           
  2467                           ;../../../../../../bsp/picdem_fs_usb/leds.c: 188:             break;
  2468   0029EA  EF1E  F015         	goto	l54
  2469   0029EE                     l51:
  2470                           
  2471                           ;../../../../../../bsp/picdem_fs_usb/leds.c: 191:             LATDbits.LATD2 ^= 1;
  2472   0029EE  748C               	btg	140,2,c	;volatile
  2473                           
  2474                           ;../../../../../../bsp/picdem_fs_usb/leds.c: 192:             break;
  2475   0029F0  EF1E  F015         	goto	l54
  2476   0029F4                     l52:
  2477                           
  2478                           ;../../../../../../bsp/picdem_fs_usb/leds.c: 195:             LATDbits.LATD3 ^= 1;
  2479   0029F4  768C               	btg	140,3,c	;volatile
  2480                           
  2481                           ;../../../../../../bsp/picdem_fs_usb/leds.c: 196:             break;
  2482   0029F6  EF1E  F015         	goto	l54
  2483   0029FA                     l4223:
  2484   0029FA  5030               	movf	LED_Toggle@led^0,w,c
  2485   0029FC  6E2E               	movwf	??_LED_Toggle^0,c
  2486   0029FE  6A2F               	clrf	(??_LED_Toggle+1)^0,c
  2487                           
  2488                           ; Switch on 2 bytes has been partitioned into a top level switch of size 1, and 1 sub-sw
      +                          itches
  2489                           ; Switch size 1, requested type "simple"
  2490                           ; Number of cases is 1, Range of values is 0 to 0
  2491                           ; switch strategies available:
  2492                           ; Name         Instructions Cycles
  2493                           ; simple_byte            4     3 (average)
  2494                           ;	Chosen strategy is simple_byte
  2495   002A00  502F               	movf	(??_LED_Toggle+1)^0,w,c
  2496   002A02  0A00               	xorlw	0	; case 0
  2497   002A04  B4D8               	btfsc	status,2,c
  2498   002A06  EF07  F015         	goto	l5955
  2499   002A0A  EF1E  F015         	goto	l54
  2500   002A0E                     l5955:
  2501                           
  2502                           ; Switch size 1, requested type "simple"
  2503                           ; Number of cases is 5, Range of values is 0 to 4
  2504                           ; switch strategies available:
  2505                           ; Name         Instructions Cycles
  2506                           ; simple_byte           16     9 (average)
  2507                           ;	Chosen strategy is simple_byte
  2508   002A0E  502E               	movf	??_LED_Toggle^0,w,c
  2509   002A10  0A00               	xorlw	0	; case 0
  2510   002A12  B4D8               	btfsc	status,2,c
  2511   002A14  EF1E  F015         	goto	l54
  2512   002A18  0A01               	xorlw	1	; case 1
  2513   002A1A  B4D8               	btfsc	status,2,c
  2514   002A1C  EFF1  F014         	goto	l48
  2515   002A20  0A03               	xorlw	3	; case 2
  2516   002A22  B4D8               	btfsc	status,2,c
  2517   002A24  EFF4  F014         	goto	l50
  2518   002A28  0A01               	xorlw	1	; case 3
  2519   002A2A  B4D8               	btfsc	status,2,c
  2520   002A2C  EFF7  F014         	goto	l51
  2521   002A30  0A07               	xorlw	7	; case 4
  2522   002A32  B4D8               	btfsc	status,2,c
  2523   002A34  EFFA  F014         	goto	l52
  2524   002A38  EF1E  F015         	goto	l54
  2525   002A3C                     l54:
  2526   002A3C  0012               	return		;funcret
  2527   002A3E                     __end_of_LED_Toggle:
  2528                           	callstack 0
  2529                           
  2530 ;; *************** function _BUTTON_IsPressed *****************
  2531 ;; Defined at:
  2532 ;;		line 95 in file "../../../../../../bsp/picdem_fs_usb/buttons.c"
  2533 ;; Parameters:    Size  Location     Type
  2534 ;;  button          1    wreg     enum E3201
  2535 ;; Auto vars:     Size  Location     Type
  2536 ;;  button          1   47[COMRAM] enum E3201
  2537 ;; Return value:  Size  Location     Type
  2538 ;;                  1    wreg      _Bool 
  2539 ;; Registers used:
  2540 ;;		wreg, status,2, status,0
  2541 ;; Tracked objects:
  2542 ;;		On entry : 0/0
  2543 ;;		On exit  : 0/0
  2544 ;;		Unchanged: 0/0
  2545 ;; Data sizes:     COMRAM   BANK0   BANK1   BANK2   BANK3   BANK4   BANK5   BANK6   BANK7
  2546 ;;      Params:         0       0       0       0       0       0       0       0       0
  2547 ;;      Locals:         1       0       0       0       0       0       0       0       0
  2548 ;;      Temps:          2       0       0       0       0       0       0       0       0
  2549 ;;      Totals:         3       0       0       0       0       0       0       0       0
  2550 ;;Total ram usage:        3 bytes
  2551 ;; Hardware stack levels used: 1
  2552 ;; Hardware stack levels required when called: 10
  2553 ;; This function calls:
  2554 ;;		Nothing
  2555 ;; This function is called by:
  2556 ;;		_APP_DeviceCustomHIDTasks
  2557 ;; This function uses a non-reentrant model
  2558 ;;
  2559                           
  2560                           	psect	text12
  2561   0028A4                     __ptext12:
  2562                           	callstack 0
  2563   0028A4                     _BUTTON_IsPressed:
  2564                           	callstack 19
  2565                           
  2566                           ;incstack = 0
  2567                           ;BUTTON_IsPressed@button stored from wreg
  2568   0028A4  6E30               	movwf	BUTTON_IsPressed@button^0,c
  2569   0028A6                     
  2570                           ;../../../../../../bsp/picdem_fs_usb/buttons.c: 95: _Bool BUTTON_IsPressed(BUTTON button
      +                          );../../../../../../bsp/picdem_fs_usb/buttons.c: 96: {;../../../../../../bsp/picdem_fs_u
      +                          sb/buttons.c: 97:     switch(button)
  2571   0028A6  EF6E  F014         	goto	l4209
  2572   0028AA                     l8:
  2573                           
  2574                           ;../../../../../../bsp/picdem_fs_usb/buttons.c: 100:             return ( (PORTBbits.RB4
      +                           == 0) ? 1 : 0);
  2575   0028AA  A881               	btfss	129,4,c	;volatile
  2576   0028AC  EF5A  F014         	goto	u2521
  2577   0028B0  EF5D  F014         	goto	u2520
  2578   0028B4                     u2521:
  2579   0028B4  0E01               	movlw	1
  2580   0028B6  EF5E  F014         	goto	u2530
  2581   0028BA                     u2520:
  2582   0028BA  0E00               	movlw	0
  2583   0028BC                     u2530:
  2584   0028BC  EF87  F014         	goto	l9
  2585   0028C0                     l10:
  2586                           
  2587                           ;../../../../../../bsp/picdem_fs_usb/buttons.c: 103:             return ( (PORTBbits.RB5
      +                           == 0) ? 1 : 0);
  2588   0028C0  AA81               	btfss	129,5,c	;volatile
  2589   0028C2  EF65  F014         	goto	u2541
  2590   0028C6  EF68  F014         	goto	u2540
  2591   0028CA                     u2541:
  2592   0028CA  0E01               	movlw	1
  2593   0028CC  EF69  F014         	goto	u2550
  2594   0028D0                     u2540:
  2595   0028D0  0E00               	movlw	0
  2596   0028D2                     u2550:
  2597   0028D2  EF87  F014         	goto	l9
  2598   0028D6                     l4203:
  2599                           
  2600                           ;../../../../../../bsp/picdem_fs_usb/buttons.c: 106:             return 0;
  2601   0028D6  0E00               	movlw	0
  2602   0028D8  EF87  F014         	goto	l9
  2603   0028DC                     l4209:
  2604   0028DC  5030               	movf	BUTTON_IsPressed@button^0,w,c
  2605   0028DE  6E2E               	movwf	??_BUTTON_IsPressed^0,c
  2606   0028E0  6A2F               	clrf	(??_BUTTON_IsPressed+1)^0,c
  2607                           
  2608                           ; Switch on 2 bytes has been partitioned into a top level switch of size 1, and 1 sub-sw
      +                          itches
  2609                           ; Switch size 1, requested type "simple"
  2610                           ; Number of cases is 1, Range of values is 0 to 0
  2611                           ; switch strategies available:
  2612                           ; Name         Instructions Cycles
  2613                           ; simple_byte            4     3 (average)
  2614                           ;	Chosen strategy is simple_byte
  2615   0028E2  502F               	movf	(??_BUTTON_IsPressed+1)^0,w,c
  2616   0028E4  0A00               	xorlw	0	; case 0
  2617   0028E6  B4D8               	btfsc	status,2,c
  2618   0028E8  EF78  F014         	goto	l5957
  2619   0028EC  EF6B  F014         	goto	l4203
  2620   0028F0                     l5957:
  2621                           
  2622                           ; Switch size 1, requested type "simple"
  2623                           ; Number of cases is 3, Range of values is 0 to 2
  2624                           ; switch strategies available:
  2625                           ; Name         Instructions Cycles
  2626                           ; simple_byte           10     6 (average)
  2627                           ;	Chosen strategy is simple_byte
  2628   0028F0  502E               	movf	??_BUTTON_IsPressed^0,w,c
  2629   0028F2  0A00               	xorlw	0	; case 0
  2630   0028F4  B4D8               	btfsc	status,2,c
  2631   0028F6  EF6B  F014         	goto	l4203
  2632   0028FA  0A01               	xorlw	1	; case 1
  2633   0028FC  B4D8               	btfsc	status,2,c
  2634   0028FE  EF55  F014         	goto	l8
  2635   002902  0A03               	xorlw	3	; case 2
  2636   002904  B4D8               	btfsc	status,2,c
  2637   002906  EF60  F014         	goto	l10
  2638   00290A  EF6B  F014         	goto	l4203
  2639   00290E                     l9:
  2640   00290E  0012               	return		;funcret
  2641   002910                     __end_of_BUTTON_IsPressed:
  2642                           	callstack 0
  2643                           
  2644 ;; *************** function _ADC_Read10bit *****************
  2645 ;; Defined at:
  2646 ;;		line 115 in file "../../../../../../bsp/picdem_fs_usb/adc.c"
  2647 ;; Parameters:    Size  Location     Type
  2648 ;;  channel         1    wreg     enum E36
  2649 ;; Auto vars:     Size  Location     Type
  2650 ;;  channel         1    2[BANK0 ] enum E36
  2651 ;;  result          2    0[BANK0 ] unsigned short 
  2652 ;; Return value:  Size  Location     Type
  2653 ;;                  2   45[COMRAM] unsigned short 
  2654 ;; Registers used:
  2655 ;;		wreg, status,2, status,0
  2656 ;; Tracked objects:
  2657 ;;		On entry : 0/0
  2658 ;;		On exit  : 0/0
  2659 ;;		Unchanged: 0/0
  2660 ;; Data sizes:     COMRAM   BANK0   BANK1   BANK2   BANK3   BANK4   BANK5   BANK6   BANK7
  2661 ;;      Params:         2       0       0       0       0       0       0       0       0
  2662 ;;      Locals:         0       3       0       0       0       0       0       0       0
  2663 ;;      Temps:          2       0       0       0       0       0       0       0       0
  2664 ;;      Totals:         4       3       0       0       0       0       0       0       0
  2665 ;;Total ram usage:        7 bytes
  2666 ;; Hardware stack levels used: 1
  2667 ;; Hardware stack levels required when called: 10
  2668 ;; This function calls:
  2669 ;;		Nothing
  2670 ;; This function is called by:
  2671 ;;		_APP_DeviceCustomHIDTasks
  2672 ;;		_ADC_ReadPercentage
  2673 ;; This function uses a non-reentrant model
  2674 ;;
  2675                           
  2676                           	psect	text13
  2677   002832                     __ptext13:
  2678                           	callstack 0
  2679   002832                     _ADC_Read10bit:
  2680                           	callstack 19
  2681                           
  2682                           ;incstack = 0
  2683                           ;ADC_Read10bit@channel stored from wreg
  2684   002832  0100               	movlb	0	; () banked
  2685   002834  6F80               	movwf	ADC_Read10bit@channel& (0+255),b
  2686   002836                     
  2687                           ;../../../../../../bsp/picdem_fs_usb/adc.c: 115: uint16_t ADC_Read10bit(ADC_CHANNEL chan
      +                          nel);../../../../../../bsp/picdem_fs_usb/adc.c: 116: {;../../../../../../bsp/picdem_fs_u
      +                          sb/adc.c: 117:     uint16_t result;;../../../../../../bsp/picdem_fs_usb/adc.c: 119:     
      +                          switch(channel)
  2688   002836  EF21  F014         	goto	l5215
  2689   00283A                     l106:
  2690                           
  2691                           ; BSR set to: 0
  2692                           ;../../../../../../bsp/picdem_fs_usb/adc.c: 124:             return 0xFFFF;
  2693   00283A  682E               	setf	?_ADC_Read10bit^0,c
  2694   00283C  682F               	setf	(?_ADC_Read10bit+1)^0,c
  2695   00283E  EF51  F014         	goto	l107
  2696   002842                     l5215:
  2697   002842  0100               	movlb	0	; () banked
  2698   002844  5180               	movf	ADC_Read10bit@channel& (0+255),w,b
  2699   002846  6E30               	movwf	??_ADC_Read10bit^0,c
  2700   002848  6A31               	clrf	(??_ADC_Read10bit+1)^0,c
  2701                           
  2702                           ; Switch on 2 bytes has been partitioned into a top level switch of size 1, and 1 sub-sw
      +                          itches
  2703                           ; Switch size 1, requested type "simple"
  2704                           ; Number of cases is 1, Range of values is 0 to 0
  2705                           ; switch strategies available:
  2706                           ; Name         Instructions Cycles
  2707                           ; simple_byte            4     3 (average)
  2708                           ;	Chosen strategy is simple_byte
  2709   00284A  5031               	movf	(??_ADC_Read10bit+1)^0,w,c
  2710   00284C  0A00               	xorlw	0	; case 0
  2711   00284E  B4D8               	btfsc	status,2,c
  2712   002850  EF2C  F014         	goto	l5959
  2713   002854  EF1D  F014         	goto	l106
  2714   002858                     l5959:
  2715                           
  2716                           ; BSR set to: 0
  2717                           ; Switch size 1, requested type "simple"
  2718                           ; Number of cases is 1, Range of values is 0 to 0
  2719                           ; switch strategies available:
  2720                           ; Name         Instructions Cycles
  2721                           ; simple_byte            4     3 (average)
  2722                           ;	Chosen strategy is simple_byte
  2723   002858  5030               	movf	??_ADC_Read10bit^0,w,c
  2724   00285A  0A00               	xorlw	0	; case 0
  2725   00285C  B4D8               	btfsc	status,2,c
  2726   00285E  EF33  F014         	goto	l5217
  2727   002862  EF1D  F014         	goto	l106
  2728   002866                     l5217:
  2729                           
  2730                           ; BSR set to: 0
  2731                           ;../../../../../../bsp/picdem_fs_usb/adc.c: 127:     ADCON0bits.CHS = channel;
  2732   002866  C080  F030         	movff	ADC_Read10bit@channel,??_ADC_Read10bit
  2733   00286A  4630               	rlncf	??_ADC_Read10bit^0,f,c
  2734   00286C  4630               	rlncf	??_ADC_Read10bit^0,f,c
  2735   00286E  50C2               	movf	194,w,c	;volatile
  2736   002870  1830               	xorwf	??_ADC_Read10bit^0,w,c
  2737   002872  0BC3               	andlw	-61
  2738   002874  1830               	xorwf	??_ADC_Read10bit^0,w,c
  2739   002876  6EC2               	movwf	194,c	;volatile
  2740   002878                     
  2741                           ; BSR set to: 0
  2742                           ;../../../../../../bsp/picdem_fs_usb/adc.c: 129:     ADCON0bits.GO = 1;
  2743   002878  82C2               	bsf	194,1,c	;volatile
  2744   00287A                     l108:
  2745   00287A  B2C2               	btfsc	194,1,c	;volatile
  2746   00287C  EF42  F014         	goto	u3151
  2747   002880  EF44  F014         	goto	u3150
  2748   002884                     u3151:
  2749   002884  EF3D  F014         	goto	l108
  2750   002888                     u3150:
  2751   002888                     
  2752                           ;../../../../../../bsp/picdem_fs_usb/adc.c: 132:     result = ADRESH;
  2753   002888  CFC4 F07E          	movff	4036,ADC_Read10bit@result	;volatile
  2754   00288C  0100               	movlb	0	; () banked
  2755   00288E  6B7F               	clrf	(ADC_Read10bit@result+1)& (0+255),b
  2756   002890                     
  2757                           ; BSR set to: 0
  2758                           ;../../../../../../bsp/picdem_fs_usb/adc.c: 133:     result <<=8;
  2759   002890  517E               	movf	ADC_Read10bit@result& (0+255),w,b
  2760   002892  6F7F               	movwf	(ADC_Read10bit@result+1)& (0+255),b
  2761   002894  6B7E               	clrf	ADC_Read10bit@result& (0+255),b
  2762   002896                     
  2763                           ; BSR set to: 0
  2764                           ;../../../../../../bsp/picdem_fs_usb/adc.c: 134:     result |= ADRESL;
  2765   002896  50C3               	movf	195,w,c	;volatile
  2766   002898  137E               	iorwf	ADC_Read10bit@result& (0+255),f,b
  2767   00289A                     
  2768                           ; BSR set to: 0
  2769                           ;../../../../../../bsp/picdem_fs_usb/adc.c: 136:     return result;
  2770   00289A  C07E  F02E         	movff	ADC_Read10bit@result,?_ADC_Read10bit
  2771   00289E  C07F  F02F         	movff	ADC_Read10bit@result+1,?_ADC_Read10bit+1
  2772   0028A2                     l107:
  2773                           
  2774                           ; BSR set to: 0
  2775   0028A2  0012               	return		;funcret
  2776   0028A4                     __end_of_ADC_Read10bit:
  2777                           	callstack 0
  2778                           
  2779 ;; *************** function _SYS_InterruptHigh *****************
  2780 ;; Defined at:
  2781 ;;		line 109 in file "system.c"
  2782 ;; Parameters:    Size  Location     Type
  2783 ;;		None
  2784 ;; Auto vars:     Size  Location     Type
  2785 ;;		None
  2786 ;; Return value:  Size  Location     Type
  2787 ;;                  1    wreg      void 
  2788 ;; Registers used:
  2789 ;;		wreg, fsr0l, fsr0h, fsr1l, fsr1h, fsr2l, fsr2h, status,2, status,0, tblptrl, tblptrh, tblptru, prodl, prodh, cstack
  2790 ;; Tracked objects:
  2791 ;;		On entry : 0/0
  2792 ;;		On exit  : 0/0
  2793 ;;		Unchanged: 0/0
  2794 ;; Data sizes:     COMRAM   BANK0   BANK1   BANK2   BANK3   BANK4   BANK5   BANK6   BANK7
  2795 ;;      Params:         0       0       0       0       0       0       0       0       0
  2796 ;;      Locals:         0       0       0       0       0       0       0       0       0
  2797 ;;      Temps:         12       0       0       0       0       0       0       0       0
  2798 ;;      Totals:        12       0       0       0       0       0       0       0       0
  2799 ;;Total ram usage:       12 bytes
  2800 ;; Hardware stack levels used: 1
  2801 ;; Hardware stack levels required when called: 9
  2802 ;; This function calls:
  2803 ;;		_USBDeviceTasks
  2804 ;; This function is called by:
  2805 ;;		Interrupt level 2
  2806 ;; This function uses a non-reentrant model
  2807 ;;
  2808                           
  2809                           	psect	intcode
  2810   000008                     __pintcode:
  2811                           	callstack 0
  2812   000008                     _SYS_InterruptHigh:
  2813                           	callstack 19
  2814                           
  2815                           ; BSR set to: 0
  2816                           ;incstack = 0
  2817   000008  8251               	bsf	int$flags,1,c	;set compiler interrupt flag (level 2)
  2818   00000A  ED88  F014         	call	int_func,f	;refresh shadow registers
  2819                           
  2820                           	psect	intcode_body
  2821   002910                     __pintcode_body:
  2822                           	callstack 19
  2823   002910                     int_func:
  2824                           	callstack 19
  2825   002910  0006               	pop		; remove dummy address from shadow register refresh
  2826   002912  CFE9 F022          	movff	fsr0l,??_SYS_InterruptHigh
  2827   002916  CFEA F023          	movff	fsr0h,??_SYS_InterruptHigh+1
  2828   00291A  CFE1 F024          	movff	fsr1l,??_SYS_InterruptHigh+2
  2829   00291E  CFE2 F025          	movff	fsr1h,??_SYS_InterruptHigh+3
  2830   002922  CFD9 F026          	movff	fsr2l,??_SYS_InterruptHigh+4
  2831   002926  CFDA F027          	movff	fsr2h,??_SYS_InterruptHigh+5
  2832   00292A  CFF3 F028          	movff	prodl,??_SYS_InterruptHigh+6
  2833   00292E  CFF4 F029          	movff	prodh,??_SYS_InterruptHigh+7
  2834   002932  CFF6 F02A          	movff	tblptrl,??_SYS_InterruptHigh+8
  2835   002936  CFF7 F02B          	movff	tblptrh,??_SYS_InterruptHigh+9
  2836   00293A  CFF8 F02C          	movff	tblptru,??_SYS_InterruptHigh+10
  2837   00293E  CFF5 F02D          	movff	tablat,??_SYS_InterruptHigh+11
  2838   002942                     
  2839                           ;system.c: 112:         USBDeviceTasks();
  2840   002942  EC12  F006         	call	_USBDeviceTasks	;wreg free
  2841   002946  C02D  FFF5         	movff	??_SYS_InterruptHigh+11,tablat
  2842   00294A  C02C  FFF8         	movff	??_SYS_InterruptHigh+10,tblptru
  2843   00294E  C02B  FFF7         	movff	??_SYS_InterruptHigh+9,tblptrh
  2844   002952  C02A  FFF6         	movff	??_SYS_InterruptHigh+8,tblptrl
  2845   002956  C029  FFF4         	movff	??_SYS_InterruptHigh+7,prodh
  2846   00295A  C028  FFF3         	movff	??_SYS_InterruptHigh+6,prodl
  2847   00295E  C027  FFDA         	movff	??_SYS_InterruptHigh+5,fsr2h
  2848   002962  C026  FFD9         	movff	??_SYS_InterruptHigh+4,fsr2l
  2849   002966  C025  FFE2         	movff	??_SYS_InterruptHigh+3,fsr1h
  2850   00296A  C024  FFE1         	movff	??_SYS_InterruptHigh+2,fsr1l
  2851   00296E  C023  FFEA         	movff	??_SYS_InterruptHigh+1,fsr0h
  2852   002972  C022  FFE9         	movff	??_SYS_InterruptHigh,fsr0l
  2853   002976  9251               	bcf	int$flags,1,c	;clear compiler interrupt flag (level 2)
  2854   002978  0011               	retfie		f
  2855   00297A                     __end_of_SYS_InterruptHigh:
  2856                           	callstack 0
  2857                           
  2858 ;; *************** function _USBDeviceTasks *****************
  2859 ;; Defined at:
  2860 ;;		line 481 in file "../../../../../../framework/usb/src/usb_device.c"
  2861 ;; Parameters:    Size  Location     Type
  2862 ;;		None
  2863 ;; Auto vars:     Size  Location     Type
  2864 ;;  i               1   32[COMRAM] unsigned char 
  2865 ;; Return value:  Size  Location     Type
  2866 ;;                  1    wreg      void 
  2867 ;; Registers used:
  2868 ;;		wreg, fsr0l, fsr0h, fsr1l, fsr1h, fsr2l, fsr2h, status,2, status,0, tblptrl, tblptrh, tblptru, prodl, prodh, cstack
  2869 ;; Tracked objects:
  2870 ;;		On entry : 0/0
  2871 ;;		On exit  : 0/0
  2872 ;;		Unchanged: 0/0
  2873 ;; Data sizes:     COMRAM   BANK0   BANK1   BANK2   BANK3   BANK4   BANK5   BANK6   BANK7
  2874 ;;      Params:         0       0       0       0       0       0       0       0       0
  2875 ;;      Locals:         1       0       0       0       0       0       0       0       0
  2876 ;;      Temps:          0       0       0       0       0       0       0       0       0
  2877 ;;      Totals:         1       0       0       0       0       0       0       0       0
  2878 ;;Total ram usage:        1 bytes
  2879 ;; Hardware stack levels used: 1
  2880 ;; Hardware stack levels required when called: 8
  2881 ;; This function calls:
  2882 ;;		_USBCtrlEPAllowStatusStage
  2883 ;;		_USBCtrlEPService
  2884 ;;		_USBIncrement1msInternalTimers
  2885 ;;		_USBStallHandler
  2886 ;;		_USBSuspend
  2887 ;;		_USBWakeFromSuspend
  2888 ;;		_USER_USB_CALLBACK_EVENT_HANDLER
  2889 ;;		i2_USBDeviceInit
  2890 ;; This function is called by:
  2891 ;;		_SYS_InterruptHigh
  2892 ;; This function uses a non-reentrant model
  2893 ;;
  2894                           
  2895                           	psect	text15
  2896   000C24                     __ptext15:
  2897                           	callstack 0
  2898   000C24                     _USBDeviceTasks:
  2899                           	callstack 19
  2900   000C24                     
  2901                           ;../../../../../../framework/usb/src/usb_device.c: 483:     uint8_t i;;../../../../../..
      +                          /framework/usb/src/usb_device.c: 594:     if(USBDeviceState == ATTACHED_STATE)
  2902   000C24  044B               	decf	_USBDeviceState^0,w,c	;volatile
  2903   000C26  A4D8               	btfss	status,2,c
  2904   000C28  EF18  F006         	goto	i2u280_41
  2905   000C2C  EF1A  F006         	goto	i2u280_40
  2906   000C30                     i2u280_41:
  2907   000C30  EF27  F006         	goto	i2l4545
  2908   000C34                     i2u280_40:
  2909   000C34                     
  2910                           ;../../../../../../framework/usb/src/usb_device.c: 595:     {;../../../../../../framewor
      +                          k/usb/src/usb_device.c: 605:         if(!UCONbits.SE0)
  2911   000C34  BA6D               	btfsc	109,5,c	;volatile
  2912   000C36  EF1F  F006         	goto	i2u281_41
  2913   000C3A  EF21  F006         	goto	i2u281_40
  2914   000C3E                     i2u281_41:
  2915   000C3E  EF27  F006         	goto	i2l4545
  2916   000C42                     i2u281_40:
  2917   000C42                     
  2918                           ;../../../../../../framework/usb/src/usb_device.c: 606:         {;../../../../../../fram
      +                          ework/usb/src/usb_device.c: 612:                 {UIR = 0;};
  2919   000C42  0E00               	movlw	0
  2920   000C44  6E68               	movwf	104,c	;volatile
  2921   000C46                     
  2922                           ;../../../../../../framework/usb/src/usb_device.c: 618:             UIEbits.URSTIE = 1;
  2923   000C46  8069               	bsf	105,0,c	;volatile
  2924   000C48                     
  2925                           ;../../../../../../framework/usb/src/usb_device.c: 619:             UIEbits.IDLEIE = 1;
  2926   000C48  8869               	bsf	105,4,c	;volatile
  2927                           
  2928                           ;../../../../../../framework/usb/src/usb_device.c: 620:             USBDeviceState = POW
      +                          ERED_STATE;
  2929   000C4A  0E02               	movlw	2
  2930   000C4C  6E4B               	movwf	_USBDeviceState^0,c	;volatile
  2931   000C4E                     i2l4545:
  2932                           
  2933                           ;../../../../../../framework/usb/src/usb_device.c: 638:     if(UIRbits.ACTVIF && UIEbits
      +                          .ACTVIE)
  2934   000C4E  A468               	btfss	104,2,c	;volatile
  2935   000C50  EF2C  F006         	goto	i2u282_41
  2936   000C54  EF2E  F006         	goto	i2u282_40
  2937   000C58                     i2u282_41:
  2938   000C58  EF38  F006         	goto	i2l4553
  2939   000C5C                     i2u282_40:
  2940   000C5C  A469               	btfss	105,2,c	;volatile
  2941   000C5E  EF33  F006         	goto	i2u283_41
  2942   000C62  EF35  F006         	goto	i2u283_40
  2943   000C66                     i2u283_41:
  2944   000C66  EF38  F006         	goto	i2l4553
  2945   000C6A                     i2u283_40:
  2946   000C6A                     
  2947                           ;../../../../../../framework/usb/src/usb_device.c: 639:     {;../../../../../../framewor
      +                          k/usb/src/usb_device.c: 640:         (UIR &= 0xFB);
  2948   000C6A  9468               	bcf	104,2,c	;volatile
  2949   000C6C                     
  2950                           ;../../../../../../framework/usb/src/usb_device.c: 644:             USBWakeFromSuspend()
      +                          ;
  2951   000C6C  ECF6  F016         	call	_USBWakeFromSuspend	;wreg free
  2952   000C70                     i2l4553:
  2953                           
  2954                           ;../../../../../../framework/usb/src/usb_device.c: 651:     if(UCONbits.SUSPND==1)
  2955   000C70  A26D               	btfss	109,1,c	;volatile
  2956   000C72  EF3D  F006         	goto	i2u284_41
  2957   000C76  EF3F  F006         	goto	i2u284_40
  2958   000C7A                     i2u284_41:
  2959   000C7A  EF42  F006         	goto	i2l272
  2960   000C7E                     i2u284_40:
  2961   000C7E                     
  2962                           ;../../../../../../framework/usb/src/usb_device.c: 652:     {;../../../../../../framewor
      +                          k/usb/src/usb_device.c: 653:         {PIR2bits.USBIF = 0;};
  2963   000C7E  9AA1               	bcf	161,5,c	;volatile
  2964                           
  2965                           ;../../../../../../framework/usb/src/usb_device.c: 654:         return;
  2966   000C80  EF25  F007         	goto	i2l273
  2967   000C84                     i2l272:
  2968                           
  2969                           ;../../../../../../framework/usb/src/usb_device.c: 667:     if(UIRbits.URSTIF && UIEbits
      +                          .URSTIE)
  2970   000C84  A068               	btfss	104,0,c	;volatile
  2971   000C86  EF47  F006         	goto	i2u285_41
  2972   000C8A  EF49  F006         	goto	i2u285_40
  2973   000C8E                     i2u285_41:
  2974   000C8E  EF56  F006         	goto	i2l4567
  2975   000C92                     i2u285_40:
  2976   000C92  A069               	btfss	105,0,c	;volatile
  2977   000C94  EF4E  F006         	goto	i2u286_41
  2978   000C98  EF50  F006         	goto	i2u286_40
  2979   000C9C                     i2u286_41:
  2980   000C9C  EF56  F006         	goto	i2l4567
  2981   000CA0                     i2u286_40:
  2982   000CA0                     
  2983                           ;../../../../../../framework/usb/src/usb_device.c: 668:     {;../../../../../../framewor
      +                          k/usb/src/usb_device.c: 669:         USBDeviceInit();
  2984   000CA0  EC5F  F00D         	call	i2_USBDeviceInit	;wreg free
  2985   000CA4                     
  2986                           ;../../../../../../framework/usb/src/usb_device.c: 673:         {PIE2bits.USBIE = 1;};
  2987   000CA4  8AA0               	bsf	160,5,c	;volatile
  2988   000CA6                     
  2989                           ;../../../../../../framework/usb/src/usb_device.c: 675:         USBDeviceState = DEFAULT
      +                          _STATE;
  2990   000CA6  0E04               	movlw	4
  2991   000CA8  6E4B               	movwf	_USBDeviceState^0,c	;volatile
  2992   000CAA                     
  2993                           ;../../../../../../framework/usb/src/usb_device.c: 685:         (UIR &= 0xFE);
  2994   000CAA  9068               	bcf	104,0,c	;volatile
  2995   000CAC                     i2l4567:
  2996                           
  2997                           ;../../../../../../framework/usb/src/usb_device.c: 691:     if(UIRbits.IDLEIF && UIEbits
      +                          .IDLEIE)
  2998   000CAC  A868               	btfss	104,4,c	;volatile
  2999   000CAE  EF5B  F006         	goto	i2u287_41
  3000   000CB2  EF5D  F006         	goto	i2u287_40
  3001   000CB6                     i2u287_41:
  3002   000CB6  EF66  F006         	goto	i2l4573
  3003   000CBA                     i2u287_40:
  3004   000CBA  A869               	btfss	105,4,c	;volatile
  3005   000CBC  EF62  F006         	goto	i2u288_41
  3006   000CC0  EF64  F006         	goto	i2u288_40
  3007   000CC4                     i2u288_41:
  3008   000CC4  EF66  F006         	goto	i2l4573
  3009   000CC8                     i2u288_40:
  3010   000CC8                     
  3011                           ;../../../../../../framework/usb/src/usb_device.c: 692:     {;../../../../../../framewor
      +                          k/usb/src/usb_device.c: 698:             USBSuspend();
  3012   000CC8  EC78  F017         	call	_USBSuspend	;wreg free
  3013   000CCC                     i2l4573:
  3014                           
  3015                           ;../../../../../../framework/usb/src/usb_device.c: 712:     if(UIRbits.SOFIF)
  3016   000CCC  AC68               	btfss	104,6,c	;volatile
  3017   000CCE  EF6B  F006         	goto	i2u289_41
  3018   000CD2  EF6D  F006         	goto	i2u289_40
  3019   000CD6                     i2u289_41:
  3020   000CD6  EF98  F006         	goto	i2l4591
  3021   000CDA                     i2u289_40:
  3022   000CDA                     
  3023                           ;../../../../../../framework/usb/src/usb_device.c: 713:     {;../../../../../../framewor
      +                          k/usb/src/usb_device.c: 715:         if(UIEbits.SOFIE)
  3024   000CDA  AC69               	btfss	105,6,c	;volatile
  3025   000CDC  EF72  F006         	goto	i2u290_41
  3026   000CE0  EF74  F006         	goto	i2u290_40
  3027   000CE4                     i2u290_41:
  3028   000CE4  EF82  F006         	goto	i2l4579
  3029   000CE8                     i2u290_40:
  3030   000CE8                     
  3031                           ;../../../../../../framework/usb/src/usb_device.c: 716:         {;../../../../../../fram
      +                          ework/usb/src/usb_device.c: 717:             USER_USB_CALLBACK_EVENT_HANDLER((USB_EVENT)
      +                          EVENT_SOF,0,1);
  3032   000CE8  0E00               	movlw	0
  3033   000CEA  6E10               	movwf	(USER_USB_CALLBACK_EVENT_HANDLER@event+1)^0,c
  3034   000CEC  0E73               	movlw	115
  3035   000CEE  6E0F               	movwf	USER_USB_CALLBACK_EVENT_HANDLER@event^0,c
  3036   000CF0  0E00               	movlw	0
  3037   000CF2  6E11               	movwf	USER_USB_CALLBACK_EVENT_HANDLER@pdata^0,c
  3038   000CF4  0E00               	movlw	0
  3039   000CF6  6E12               	movwf	(USER_USB_CALLBACK_EVENT_HANDLER@pdata+1)^0,c
  3040   000CF8  0E00               	movlw	0
  3041   000CFA  6E14               	movwf	(USER_USB_CALLBACK_EVENT_HANDLER@size+1)^0,c
  3042   000CFC  0E01               	movlw	1
  3043   000CFE  6E13               	movwf	USER_USB_CALLBACK_EVENT_HANDLER@size^0,c
  3044   000D00  EC41  F013         	call	_USER_USB_CALLBACK_EVENT_HANDLER	;wreg free
  3045   000D04                     i2l4579:
  3046                           
  3047                           ;../../../../../../framework/usb/src/usb_device.c: 719:         (UIR &= 0xBF);
  3048   000D04  9C68               	bcf	104,6,c	;volatile
  3049   000D06                     
  3050                           ;../../../../../../framework/usb/src/usb_device.c: 722:             USBIncrement1msInter
      +                          nalTimers();
  3051   000D06  EC2F  F017         	call	_USBIncrement1msInternalTimers	;wreg free
  3052   000D0A                     
  3053                           ;../../../../../../framework/usb/src/usb_device.c: 739:             if(USBStatusStageTim
      +                          eoutCounter != 0u)
  3054   000D0A  5044               	movf	_USBStatusStageTimeoutCounter^0,w,c	;volatile
  3055   000D0C  B4D8               	btfsc	status,2,c
  3056   000D0E  EF8B  F006         	goto	i2u291_41
  3057   000D12  EF8D  F006         	goto	i2u291_40
  3058   000D16                     i2u291_41:
  3059   000D16  EF8E  F006         	goto	i2l4587
  3060   000D1A                     i2u291_40:
  3061   000D1A                     
  3062                           ;../../../../../../framework/usb/src/usb_device.c: 740:             {;../../../../../../
      +                          framework/usb/src/usb_device.c: 741:                 USBStatusStageTimeoutCounter--;
  3063   000D1A  0644               	decf	_USBStatusStageTimeoutCounter^0,f,c	;volatile
  3064   000D1C                     i2l4587:
  3065                           
  3066                           ;../../../../../../framework/usb/src/usb_device.c: 748:             if(USBStatusStageTim
      +                          eoutCounter == 0)
  3067   000D1C  5044               	movf	_USBStatusStageTimeoutCounter^0,w,c	;volatile
  3068   000D1E  A4D8               	btfss	status,2,c
  3069   000D20  EF94  F006         	goto	i2u292_41
  3070   000D24  EF96  F006         	goto	i2u292_40
  3071   000D28                     i2u292_41:
  3072   000D28  EF98  F006         	goto	i2l4591
  3073   000D2C                     i2u292_40:
  3074   000D2C                     
  3075                           ;../../../../../../framework/usb/src/usb_device.c: 749:             {;../../../../../../
      +                          framework/usb/src/usb_device.c: 750:                 USBCtrlEPAllowStatusStage();
  3076   000D2C  EC48  F011         	call	_USBCtrlEPAllowStatusStage	;wreg free
  3077   000D30                     i2l4591:
  3078                           
  3079                           ;../../../../../../framework/usb/src/usb_device.c: 755:     if(UIRbits.STALLIF && UIEbit
      +                          s.STALLIE)
  3080   000D30  AA68               	btfss	104,5,c	;volatile
  3081   000D32  EF9D  F006         	goto	i2u293_41
  3082   000D36  EF9F  F006         	goto	i2u293_40
  3083   000D3A                     i2u293_41:
  3084   000D3A  EFA8  F006         	goto	i2l4597
  3085   000D3E                     i2u293_40:
  3086   000D3E  AA69               	btfss	105,5,c	;volatile
  3087   000D40  EFA4  F006         	goto	i2u294_41
  3088   000D44  EFA6  F006         	goto	i2u294_40
  3089   000D48                     i2u294_41:
  3090   000D48  EFA8  F006         	goto	i2l4597
  3091   000D4C                     i2u294_40:
  3092   000D4C                     
  3093                           ;../../../../../../framework/usb/src/usb_device.c: 756:     {;../../../../../../framewor
      +                          k/usb/src/usb_device.c: 757:         USBStallHandler();
  3094   000D4C  ECB2  F015         	call	_USBStallHandler	;wreg free
  3095   000D50                     i2l4597:
  3096                           
  3097                           ;../../../../../../framework/usb/src/usb_device.c: 760:     if(UIRbits.UERRIF && UIEbits
      +                          .UERRIE)
  3098   000D50  A268               	btfss	104,1,c	;volatile
  3099   000D52  EFAD  F006         	goto	i2u295_41
  3100   000D56  EFAF  F006         	goto	i2u295_40
  3101   000D5A                     i2u295_41:
  3102   000D5A  EFC5  F006         	goto	i2l4605
  3103   000D5E                     i2u295_40:
  3104   000D5E  A269               	btfss	105,1,c	;volatile
  3105   000D60  EFB4  F006         	goto	i2u296_41
  3106   000D64  EFB6  F006         	goto	i2u296_40
  3107   000D68                     i2u296_41:
  3108   000D68  EFC5  F006         	goto	i2l4605
  3109   000D6C                     i2u296_40:
  3110   000D6C                     
  3111                           ;../../../../../../framework/usb/src/usb_device.c: 761:     {;../../../../../../framewor
      +                          k/usb/src/usb_device.c: 762:         USER_USB_CALLBACK_EVENT_HANDLER((USB_EVENT)EVENT_BU
      +                          S_ERROR,0,1);
  3112   000D6C  0E7F               	movlw	127
  3113   000D6E  6E10               	movwf	(USER_USB_CALLBACK_EVENT_HANDLER@event+1)^0,c
  3114   000D70  680F               	setf	USER_USB_CALLBACK_EVENT_HANDLER@event^0,c
  3115   000D72  0E00               	movlw	0
  3116   000D74  6E11               	movwf	USER_USB_CALLBACK_EVENT_HANDLER@pdata^0,c
  3117   000D76  0E00               	movlw	0
  3118   000D78  6E12               	movwf	(USER_USB_CALLBACK_EVENT_HANDLER@pdata+1)^0,c
  3119   000D7A  0E00               	movlw	0
  3120   000D7C  6E14               	movwf	(USER_USB_CALLBACK_EVENT_HANDLER@size+1)^0,c
  3121   000D7E  0E01               	movlw	1
  3122   000D80  6E13               	movwf	USER_USB_CALLBACK_EVENT_HANDLER@size^0,c
  3123   000D82  EC41  F013         	call	_USER_USB_CALLBACK_EVENT_HANDLER	;wreg free
  3124   000D86                     
  3125                           ;../../../../../../framework/usb/src/usb_device.c: 763:         {UEIR = 0;};
  3126   000D86  0E00               	movlw	0
  3127   000D88  6E6A               	movwf	106,c	;volatile
  3128   000D8A                     i2l4605:
  3129                           
  3130                           ;../../../../../../framework/usb/src/usb_device.c: 778:     if(USBDeviceState < DEFAULT_
      +                          STATE)
  3131   000D8A  0E04               	movlw	4
  3132   000D8C  604B               	cpfslt	_USBDeviceState^0,c	;volatile
  3133   000D8E  EFCB  F006         	goto	i2u297_41
  3134   000D92  EFCD  F006         	goto	i2u297_40
  3135   000D96                     i2u297_41:
  3136   000D96  EFD0  F006         	goto	i2l282
  3137   000D9A                     i2u297_40:
  3138   000D9A                     
  3139                           ;../../../../../../framework/usb/src/usb_device.c: 779:     {;../../../../../../framewor
      +                          k/usb/src/usb_device.c: 780:         {PIR2bits.USBIF = 0;};
  3140   000D9A  9AA1               	bcf	161,5,c	;volatile
  3141                           
  3142                           ;../../../../../../framework/usb/src/usb_device.c: 781:         return;
  3143   000D9C  EF25  F007         	goto	i2l273
  3144   000DA0                     i2l282:
  3145                           
  3146                           ;../../../../../../framework/usb/src/usb_device.c: 787:     if(UIEbits.TRNIE)
  3147   000DA0  A669               	btfss	105,3,c	;volatile
  3148   000DA2  EFD5  F006         	goto	i2u298_41
  3149   000DA6  EFD7  F006         	goto	i2u298_40
  3150   000DAA                     i2u298_41:
  3151   000DAA  EF24  F007         	goto	i2l283
  3152   000DAE                     i2u298_40:
  3153   000DAE                     
  3154                           ;../../../../../../framework/usb/src/usb_device.c: 788:     {;../../../../../../framewor
      +                          k/usb/src/usb_device.c: 789:         for(i = 0; i < 4u; i++)
  3155   000DAE  0E00               	movlw	0
  3156   000DB0  6E21               	movwf	USBDeviceTasks@i^0,c
  3157   000DB2                     i2l284:
  3158                           
  3159                           ;../../../../../../framework/usb/src/usb_device.c: 790:         {;../../../../../../fram
      +                          ework/usb/src/usb_device.c: 791:             if(UIRbits.TRNIF)
  3160   000DB2  A668               	btfss	104,3,c	;volatile
  3161   000DB4  EFDE  F006         	goto	i2u299_41
  3162   000DB8  EFE0  F006         	goto	i2u299_40
  3163   000DBC                     i2u299_41:
  3164   000DBC  EF24  F007         	goto	i2l283
  3165   000DC0                     i2u299_40:
  3166   000DC0                     
  3167                           ;../../../../../../framework/usb/src/usb_device.c: 792:             {;../../../../../../
      +                          framework/usb/src/usb_device.c: 794:                 USTATcopy.Val = USTAT;
  3168   000DC0  CF6C F04E          	movff	3948,_USTATcopy	;volatile
  3169   000DC4                     
  3170                           ;../../../../../../framework/usb/src/usb_device.c: 795:                 endpoint_number 
      +                          = USTATcopy.endpoint_number;
  3171   000DC4  304E               	rrcf	_USTATcopy^0,w,c	;volatile
  3172   000DC6  32E8               	rrcf	wreg,f,c
  3173   000DC8  32E8               	rrcf	wreg,f,c
  3174   000DCA  0B0F               	andlw	15
  3175   000DCC  6E46               	movwf	_endpoint_number^0,c	;volatile
  3176   000DCE                     
  3177                           ;../../../../../../framework/usb/src/usb_device.c: 797:                 (UIR &= 0xF7);
  3178   000DCE  9668               	bcf	104,3,c	;volatile
  3179   000DD0                     
  3180                           ;../../../../../../framework/usb/src/usb_device.c: 802:                 if(USTATcopy.dir
      +                          ection == 0)
  3181   000DD0  B44E               	btfsc	_USTATcopy^0,2,c	;volatile
  3182   000DD2  EFED  F006         	goto	i2u300_41
  3183   000DD6  EFEF  F006         	goto	i2u300_40
  3184   000DDA                     i2u300_41:
  3185   000DDA  EFF9  F006         	goto	i2l4625
  3186   000DDE                     i2u300_40:
  3187   000DDE                     
  3188                           ;../../../../../../framework/usb/src/usb_device.c: 803:                 {;../../../../..
      +                          /../framework/usb/src/usb_device.c: 804:                     ep_data_out[endpoint_number
      +                          ].bits.ping_pong_state ^= 1;
  3189   000DDE  0E7A               	movlw	low _ep_data_out
  3190   000DE0  2446               	addwf	_endpoint_number^0,w,c	;volatile
  3191   000DE2  6ED9               	movwf	fsr2l,c
  3192   000DE4  6ADA               	clrf	fsr2h,c
  3193   000DE6  0E00               	movlw	high _ep_data_out
  3194   000DE8  22DA               	addwfc	fsr2h,f,c
  3195   000DEA  0100               	movlb	0	; () banked
  3196   000DEC  70DF               	btg	indf2,0,c
  3197                           
  3198                           ;../../../../../../framework/usb/src/usb_device.c: 805:                 }
  3199   000DEE  EF01  F007         	goto	i2l4627
  3200   000DF2                     i2l4625:
  3201                           
  3202                           ;../../../../../../framework/usb/src/usb_device.c: 807:                 {;../../../../..
      +                          /../framework/usb/src/usb_device.c: 808:                     ep_data_in[endpoint_number]
      +                          .bits.ping_pong_state ^= 1;
  3203   000DF2  0E7C               	movlw	low _ep_data_in
  3204   000DF4  2446               	addwf	_endpoint_number^0,w,c	;volatile
  3205   000DF6  6ED9               	movwf	fsr2l,c
  3206   000DF8  6ADA               	clrf	fsr2h,c
  3207   000DFA  0E00               	movlw	high _ep_data_in
  3208   000DFC  22DA               	addwfc	fsr2h,f,c
  3209   000DFE  0100               	movlb	0	; () banked
  3210   000E00  70DF               	btg	indf2,0,c
  3211   000E02                     i2l4627:
  3212                           
  3213                           ; BSR set to: 0
  3214                           ;../../../../../../framework/usb/src/usb_device.c: 814:                 if(endpoint_numb
      +                          er == 0)
  3215   000E02  5046               	movf	_endpoint_number^0,w,c	;volatile
  3216   000E04  A4D8               	btfss	status,2,c
  3217   000E06  EF07  F007         	goto	i2u301_41
  3218   000E0A  EF09  F007         	goto	i2u301_40
  3219   000E0E                     i2u301_41:
  3220   000E0E  EF0D  F007         	goto	i2l4631
  3221   000E12                     i2u301_40:
  3222   000E12                     
  3223                           ; BSR set to: 0
  3224                           ;../../../../../../framework/usb/src/usb_device.c: 815:                 {;../../../../..
      +                          /../framework/usb/src/usb_device.c: 816:                     USBCtrlEPService();
  3225   000E12  EC33  F012         	call	_USBCtrlEPService	;wreg free
  3226                           
  3227                           ;../../../../../../framework/usb/src/usb_device.c: 817:                 }
  3228   000E16  EF1B  F007         	goto	i2l4633
  3229   000E1A                     i2l4631:
  3230                           
  3231                           ; BSR set to: 0
  3232                           ;../../../../../../framework/usb/src/usb_device.c: 819:                 {;../../../../..
      +                          /../framework/usb/src/usb_device.c: 820:                     USER_USB_CALLBACK_EVENT_HAN
      +                          DLER((USB_EVENT)EVENT_TRANSFER,(uint8_t*)&USTATcopy.Val,0);
  3233   000E1A  0E00               	movlw	0
  3234   000E1C  6E10               	movwf	(USER_USB_CALLBACK_EVENT_HANDLER@event+1)^0,c
  3235   000E1E  0E72               	movlw	114
  3236   000E20  6E0F               	movwf	USER_USB_CALLBACK_EVENT_HANDLER@event^0,c
  3237   000E22  0E4E               	movlw	low _USTATcopy
  3238   000E24  6E11               	movwf	USER_USB_CALLBACK_EVENT_HANDLER@pdata^0,c
  3239   000E26  0E00               	movlw	high _USTATcopy
  3240   000E28  6E12               	movwf	(USER_USB_CALLBACK_EVENT_HANDLER@pdata+1)^0,c
  3241   000E2A  0E00               	movlw	0
  3242   000E2C  6E14               	movwf	(USER_USB_CALLBACK_EVENT_HANDLER@size+1)^0,c
  3243   000E2E  0E00               	movlw	0
  3244   000E30  6E13               	movwf	USER_USB_CALLBACK_EVENT_HANDLER@size^0,c
  3245   000E32  EC41  F013         	call	_USER_USB_CALLBACK_EVENT_HANDLER	;wreg free
  3246   000E36                     i2l4633:
  3247                           
  3248                           ;../../../../../../framework/usb/src/usb_device.c: 827:         }
  3249   000E36  2A21               	incf	USBDeviceTasks@i^0,f,c
  3250   000E38  0E03               	movlw	3
  3251   000E3A  6421               	cpfsgt	USBDeviceTasks@i^0,c
  3252   000E3C  EF22  F007         	goto	i2u302_41
  3253   000E40  EF24  F007         	goto	i2u302_40
  3254   000E44                     i2u302_41:
  3255   000E44  EFD9  F006         	goto	i2l284
  3256   000E48                     i2u302_40:
  3257   000E48                     i2l283:
  3258                           
  3259                           ;../../../../../../framework/usb/src/usb_device.c: 830:     {PIR2bits.USBIF = 0;};
  3260   000E48  9AA1               	bcf	161,5,c	;volatile
  3261   000E4A                     i2l273:
  3262   000E4A  0012               	return		;funcret
  3263   000E4C                     __end_of_USBDeviceTasks:
  3264                           	callstack 0
  3265                           
  3266 ;; *************** function i2_USBDeviceInit *****************
  3267 ;; Defined at:
  3268 ;;		line 281 in file "../../../../../../framework/usb/src/usb_device.c"
  3269 ;; Parameters:    Size  Location     Type
  3270 ;;		None
  3271 ;; Auto vars:     Size  Location     Type
  3272 ;;  i               1   12[COMRAM] unsigned char 
  3273 ;; Return value:  Size  Location     Type
  3274 ;;                  1    wreg      void 
  3275 ;; Registers used:
  3276 ;;		wreg, fsr2l, fsr2h, status,2, status,0, prodl, prodh, cstack
  3277 ;; Tracked objects:
  3278 ;;		On entry : 0/0
  3279 ;;		On exit  : 0/0
  3280 ;;		Unchanged: 0/0
  3281 ;; Data sizes:     COMRAM   BANK0   BANK1   BANK2   BANK3   BANK4   BANK5   BANK6   BANK7
  3282 ;;      Params:         0       0       0       0       0       0       0       0       0
  3283 ;;      Locals:         1       0       0       0       0       0       0       0       0
  3284 ;;      Temps:          0       0       0       0       0       0       0       0       0
  3285 ;;      Totals:         1       0       0       0       0       0       0       0       0
  3286 ;;Total ram usage:        1 bytes
  3287 ;; Hardware stack levels used: 1
  3288 ;; Hardware stack levels required when called: 1
  3289 ;; This function calls:
  3290 ;;		i2_memset
  3291 ;; This function is called by:
  3292 ;;		_USBDeviceTasks
  3293 ;; This function uses a non-reentrant model
  3294 ;;
  3295                           
  3296                           	psect	text16
  3297   001ABE                     __ptext16:
  3298                           	callstack 0
  3299   001ABE                     i2_USBDeviceInit:
  3300                           	callstack 25
  3301   001ABE                     
  3302                           ;../../../../../../framework/usb/src/usb_device.c: 283:     uint8_t i;;../../../../../..
      +                          /framework/usb/src/usb_device.c: 285:     {PIE2bits.USBIE = 0;};
  3303   001ABE  9AA0               	bcf	160,5,c	;volatile
  3304   001AC0                     
  3305                           ;../../../../../../framework/usb/src/usb_device.c: 292:     {UEIR = 0;};
  3306   001AC0  0E00               	movlw	0
  3307   001AC2  6E6A               	movwf	106,c	;volatile
  3308                           
  3309                           ;../../../../../../framework/usb/src/usb_device.c: 295:     {UIR = 0;};
  3310   001AC4  0E00               	movlw	0
  3311   001AC6  6E68               	movwf	104,c	;volatile
  3312                           
  3313                           ;../../../../../../framework/usb/src/usb_device.c: 298:     UEP0 = 0;
  3314   001AC8  0E00               	movlw	0
  3315   001ACA  6E70               	movwf	112,c	;volatile
  3316   001ACC                     
  3317                           ;../../../../../../framework/usb/src/usb_device.c: 300:     memset((void*)&UEP1,0x00,(1)
      +                          );;
  3318   001ACC  0E71               	movlw	113
  3319   001ACE  6E01               	movwf	i2memset@dest^0,c
  3320   001AD0  0E0F               	movlw	15
  3321   001AD2  6E02               	movwf	(i2memset@dest+1)^0,c
  3322   001AD4  0E00               	movlw	0
  3323   001AD6  6E04               	movwf	(i2memset@c+1)^0,c
  3324   001AD8  0E00               	movlw	0
  3325   001ADA  6E03               	movwf	i2memset@c^0,c
  3326   001ADC  0E00               	movlw	0
  3327   001ADE  6E06               	movwf	(i2memset@n+1)^0,c
  3328   001AE0  0E01               	movlw	1
  3329   001AE2  6E05               	movwf	i2memset@n^0,c
  3330   001AE4  ECAC  F008         	call	i2_memset	;wreg free
  3331   001AE8                     
  3332                           ;../../../../../../framework/usb/src/usb_device.c: 302:     { UCFG = 0x10 | 0x00 | 0x04 
      +                          | 0x02; UEIE = 0x9F; UIE = 0x39 | 0x40 | 0x02; };
  3333   001AE8  0E16               	movlw	22
  3334   001AEA  6E6F               	movwf	111,c	;volatile
  3335   001AEC  0E9F               	movlw	159
  3336   001AEE  6E6B               	movwf	107,c	;volatile
  3337   001AF0  0E7B               	movlw	123
  3338   001AF2  6E69               	movwf	105,c	;volatile
  3339   001AF4                     
  3340                           ;../../../../../../framework/usb/src/usb_device.c: 311:     for(i = 0; i < (sizeof(BDT)/
      +                          sizeof(BDT_ENTRY)); i++)
  3341   001AF4  0E00               	movlw	0
  3342   001AF6  6E0D               	movwf	i2USBDeviceInit@i^0,c
  3343   001AF8                     i2l4401:
  3344                           
  3345                           ;../../../../../../framework/usb/src/usb_device.c: 312:     {;../../../../../../framewor
      +                          k/usb/src/usb_device.c: 313:         BDT[i].Val = 0x00;
  3346   001AF8  500D               	movf	i2USBDeviceInit@i^0,w,c
  3347   001AFA  0D04               	mullw	4
  3348   001AFC  0E00               	movlw	0
  3349   001AFE  24F3               	addwf	243,w,c
  3350   001B00  6ED9               	movwf	fsr2l,c
  3351   001B02  0E04               	movlw	4
  3352   001B04  20F4               	addwfc	prodh,w,c
  3353   001B06  6EDA               	movwf	fsr2h,c
  3354   001B08  6ADE               	clrf	postinc2,c
  3355   001B0A  6ADE               	clrf	postinc2,c
  3356   001B0C  6ADE               	clrf	postinc2,c
  3357   001B0E  6ADD               	clrf	postdec2,c
  3358   001B10                     
  3359                           ;../../../../../../framework/usb/src/usb_device.c: 314:     }
  3360   001B10  2A0D               	incf	i2USBDeviceInit@i^0,f,c
  3361   001B12  0E07               	movlw	7
  3362   001B14  640D               	cpfsgt	i2USBDeviceInit@i^0,c
  3363   001B16  EF8F  F00D         	goto	i2u274_41
  3364   001B1A  EF91  F00D         	goto	i2u274_40
  3365   001B1E                     i2u274_41:
  3366   001B1E  EF7C  F00D         	goto	i2l4401
  3367   001B22                     i2u274_40:
  3368   001B22                     
  3369                           ;../../../../../../framework/usb/src/usb_device.c: 317:     UCONbits.PPBRST = 1;
  3370   001B22  8C6D               	bsf	109,6,c	;volatile
  3371   001B24                     
  3372                           ;../../../../../../framework/usb/src/usb_device.c: 320:     UADDR = 0x00;
  3373   001B24  0E00               	movlw	0
  3374   001B26  6E6E               	movwf	110,c	;volatile
  3375   001B28                     
  3376                           ;../../../../../../framework/usb/src/usb_device.c: 323:     UCONbits.PKTDIS = 0;
  3377   001B28  986D               	bcf	109,4,c	;volatile
  3378   001B2A                     
  3379                           ;../../../../../../framework/usb/src/usb_device.c: 326:     UCONbits.PPBRST = 0;
  3380   001B2A  9C6D               	bcf	109,6,c	;volatile
  3381   001B2C                     i2l4413:
  3382                           
  3383                           ;../../../../../../framework/usb/src/usb_device.c: 330:     {;../../../../../../framewor
      +                          k/usb/src/usb_device.c: 331:         (UIR &= 0xF7);
  3384   001B2C  9668               	bcf	104,3,c	;volatile
  3385   001B2E                     
  3386                           ;../../../../../../framework/usb/src/usb_device.c: 333:         inPipes[0].info.Val = 0;
  3387   001B2E  0E00               	movlw	0
  3388   001B30  0100               	movlb	0	; () banked
  3389   001B32  6F6B               	movwf	(_inPipes+3)& (0+255),b	;volatile
  3390   001B34                     
  3391                           ; BSR set to: 0
  3392                           ;../../../../../../framework/usb/src/usb_device.c: 334:         outPipes[0].info.Val = 0
      +                          ;
  3393   001B34  0E00               	movlw	0
  3394   001B36  6F63               	movwf	(_outPipes+3)& (0+255),b	;volatile
  3395   001B38                     
  3396                           ; BSR set to: 0
  3397                           ;../../../../../../framework/usb/src/usb_device.c: 335:         outPipes[0].wCount.Val =
      +                           0;
  3398   001B38  0E00               	movlw	0
  3399   001B3A  6F65               	movwf	(_outPipes+5)& (0+255),b	;volatile
  3400   001B3C  0E00               	movlw	0
  3401   001B3E  6F64               	movwf	(_outPipes+4)& (0+255),b	;volatile
  3402   001B40                     
  3403                           ; BSR set to: 0
  3404                           ;../../../../../../framework/usb/src/usb_device.c: 336:     }while(UIRbits.TRNIF == 1);
  3405   001B40  B668               	btfsc	104,3,c	;volatile
  3406   001B42  EFA5  F00D         	goto	i2u275_41
  3407   001B46  EFA7  F00D         	goto	i2u275_40
  3408   001B4A                     i2u275_41:
  3409   001B4A  EF96  F00D         	goto	i2l4413
  3410   001B4E                     i2u275_40:
  3411   001B4E                     
  3412                           ; BSR set to: 0
  3413                           ;../../../../../../framework/usb/src/usb_device.c: 340:     USBStatusStageEnabledFlag1 =
      +                           1;
  3414   001B4E  0E01               	movlw	1
  3415   001B50  6E42               	movwf	_USBStatusStageEnabledFlag1^0,c	;volatile
  3416                           
  3417                           ;../../../../../../framework/usb/src/usb_device.c: 341:     USBStatusStageEnabledFlag2 =
      +                           1;
  3418   001B52  0E01               	movlw	1
  3419   001B54  6E41               	movwf	_USBStatusStageEnabledFlag2^0,c	;volatile
  3420                           
  3421                           ;../../../../../../framework/usb/src/usb_device.c: 343:     USBDeferINDataStagePackets =
      +                           0;
  3422   001B56  0E00               	movlw	0
  3423   001B58  6E40               	movwf	_USBDeferINDataStagePackets^0,c	;volatile
  3424                           
  3425                           ;../../../../../../framework/usb/src/usb_device.c: 344:     USBDeferOUTDataStagePackets 
      +                          = 0;
  3426   001B5A  0E00               	movlw	0
  3427   001B5C  6E3F               	movwf	_USBDeferOUTDataStagePackets^0,c	;volatile
  3428                           
  3429                           ;../../../../../../framework/usb/src/usb_device.c: 345:     USBBusIsSuspended = 0;
  3430   001B5E  0E00               	movlw	0
  3431   001B60  6E47               	movwf	_USBBusIsSuspended^0,c	;volatile
  3432                           
  3433                           ;../../../../../../framework/usb/src/usb_device.c: 349:     for(i = 0; i < (uint8_t)(1 +
      +                          1u); i++)
  3434   001B62  0E00               	movlw	0
  3435   001B64  6E0D               	movwf	i2USBDeviceInit@i^0,c
  3436   001B66                     i2l4429:
  3437                           
  3438                           ;../../../../../../framework/usb/src/usb_device.c: 350:     {;../../../../../../framewor
      +                          k/usb/src/usb_device.c: 351:         pBDTEntryIn[i] = 0u;
  3439   001B66  500D               	movf	i2USBDeviceInit@i^0,w,c
  3440   001B68  0D02               	mullw	2
  3441   001B6A  0E6E               	movlw	low _pBDTEntryIn
  3442   001B6C  24F3               	addwf	243,w,c
  3443   001B6E  6ED9               	movwf	fsr2l,c
  3444   001B70  0E00               	movlw	high _pBDTEntryIn
  3445   001B72  20F4               	addwfc	prodh,w,c
  3446   001B74  6EDA               	movwf	fsr2h,c
  3447   001B76  6ADE               	clrf	postinc2,c
  3448   001B78  6ADD               	clrf	postdec2,c
  3449                           
  3450                           ;../../../../../../framework/usb/src/usb_device.c: 352:         pBDTEntryOut[i] = 0u;
  3451   001B7A  500D               	movf	i2USBDeviceInit@i^0,w,c
  3452   001B7C  0D02               	mullw	2
  3453   001B7E  0E72               	movlw	low _pBDTEntryOut
  3454   001B80  24F3               	addwf	243,w,c
  3455   001B82  6ED9               	movwf	fsr2l,c
  3456   001B84  0E00               	movlw	high _pBDTEntryOut
  3457   001B86  20F4               	addwfc	prodh,w,c
  3458   001B88  6EDA               	movwf	fsr2h,c
  3459   001B8A  6ADE               	clrf	postinc2,c
  3460   001B8C  6ADD               	clrf	postdec2,c
  3461   001B8E                     
  3462                           ;../../../../../../framework/usb/src/usb_device.c: 353:         ep_data_in[i].Val = 0u;
  3463   001B8E  0E7C               	movlw	low _ep_data_in
  3464   001B90  240D               	addwf	i2USBDeviceInit@i^0,w,c
  3465   001B92  6ED9               	movwf	fsr2l,c
  3466   001B94  6ADA               	clrf	fsr2h,c
  3467   001B96  0E00               	movlw	high _ep_data_in
  3468   001B98  22DA               	addwfc	fsr2h,f,c
  3469   001B9A  6ADF               	clrf	indf2,c
  3470   001B9C                     
  3471                           ;../../../../../../framework/usb/src/usb_device.c: 354:         ep_data_out[i].Val = 0u;
  3472   001B9C  0E7A               	movlw	low _ep_data_out
  3473   001B9E  240D               	addwf	i2USBDeviceInit@i^0,w,c
  3474   001BA0  6ED9               	movwf	fsr2l,c
  3475   001BA2  6ADA               	clrf	fsr2h,c
  3476   001BA4  0E00               	movlw	high _ep_data_out
  3477   001BA6  22DA               	addwfc	fsr2h,f,c
  3478   001BA8  6ADF               	clrf	indf2,c
  3479   001BAA                     
  3480                           ;../../../../../../framework/usb/src/usb_device.c: 355:     }
  3481   001BAA  2A0D               	incf	i2USBDeviceInit@i^0,f,c
  3482   001BAC  0E01               	movlw	1
  3483   001BAE  640D               	cpfsgt	i2USBDeviceInit@i^0,c
  3484   001BB0  EFDC  F00D         	goto	i2u276_41
  3485   001BB4  EFDE  F00D         	goto	i2u276_40
  3486   001BB8                     i2u276_41:
  3487   001BB8  EFB3  F00D         	goto	i2l4429
  3488   001BBC                     i2u276_40:
  3489   001BBC                     
  3490                           ;../../../../../../framework/usb/src/usb_device.c: 358:     pBDTEntryIn[0] = (volatile B
      +                          DT_ENTRY*)&BDT[2];
  3491   001BBC  0E08               	movlw	8
  3492   001BBE  0100               	movlb	0	; () banked
  3493   001BC0  6F6E               	movwf	_pBDTEntryIn& (0+255),b
  3494   001BC2  0E04               	movlw	4
  3495   001BC4  6F6F               	movwf	(_pBDTEntryIn+1)& (0+255),b
  3496   001BC6                     
  3497                           ; BSR set to: 0
  3498                           ;../../../../../../framework/usb/src/usb_device.c: 360:     UEP0 = 0x06|0x10;
  3499   001BC6  0E16               	movlw	22
  3500   001BC8  6E70               	movwf	112,c	;volatile
  3501   001BCA                     
  3502                           ; BSR set to: 0
  3503                           ;../../../../../../framework/usb/src/usb_device.c: 362:     BDT[0].ADR = ((uint16_t)(&Se
      +                          tupPkt));
  3504   001BCA  0E04               	movlw	4
  3505   001BCC  0104               	movlb	4	; () banked
  3506   001BCE  6F03               	movwf	3,b	;volatile
  3507   001BD0  0E20               	movlw	32
  3508   001BD2  6F02               	movwf	2,b	;volatile
  3509   001BD4                     
  3510                           ; BSR set to: 4
  3511                           ;../../../../../../framework/usb/src/usb_device.c: 363:     BDT[0].CNT = 8;
  3512   001BD4  0E08               	movlw	8
  3513   001BD6  6F01               	movwf	1,b	;volatile
  3514   001BD8                     
  3515                           ; BSR set to: 4
  3516                           ;../../../../../../framework/usb/src/usb_device.c: 364:     BDT[0].STAT.Val = 0x00|0x04;
  3517   001BD8  0E04               	movlw	4
  3518   001BDA  6F00               	movwf	0,b	;volatile
  3519   001BDC                     
  3520                           ; BSR set to: 4
  3521                           ;../../../../../../framework/usb/src/usb_device.c: 365:     BDT[0].STAT.Val |= 0x80;
  3522   001BDC  8F00               	bsf	0,7,b	;volatile
  3523   001BDE                     
  3524                           ; BSR set to: 4
  3525                           ;../../../../../../framework/usb/src/usb_device.c: 368:     USBActiveConfiguration = 0;
  3526   001BDE  0E00               	movlw	0
  3527   001BE0  6E50               	movwf	_USBActiveConfiguration^0,c	;volatile
  3528   001BE2                     
  3529                           ; BSR set to: 4
  3530                           ;../../../../../../framework/usb/src/usb_device.c: 370:     USB1msTickCount = 0;
  3531   001BE2  0E00               	movlw	0
  3532   001BE4  6E32               	movwf	_USB1msTickCount^0,c	;volatile
  3533   001BE6  0E00               	movlw	0
  3534   001BE8  6E33               	movwf	(_USB1msTickCount+1)^0,c	;volatile
  3535   001BEA  0E00               	movlw	0
  3536   001BEC  6E34               	movwf	(_USB1msTickCount+2)^0,c	;volatile
  3537   001BEE  0E00               	movlw	0
  3538   001BF0  6E35               	movwf	(_USB1msTickCount+3)^0,c	;volatile
  3539   001BF2                     
  3540                           ; BSR set to: 4
  3541                           ;../../../../../../framework/usb/src/usb_device.c: 371:     USBTicksSinceSuspendEnd = 0;
  3542   001BF2  0E00               	movlw	0
  3543   001BF4  6E3E               	movwf	_USBTicksSinceSuspendEnd^0,c	;volatile
  3544   001BF6                     
  3545                           ; BSR set to: 4
  3546                           ;../../../../../../framework/usb/src/usb_device.c: 374:     USBDeviceState = DETACHED_ST
      +                          ATE;
  3547   001BF6  0E00               	movlw	0
  3548   001BF8  6E4B               	movwf	_USBDeviceState^0,c	;volatile
  3549   001BFA                     
  3550                           ; BSR set to: 4
  3551   001BFA  0012               	return		;funcret
  3552   001BFC                     __end_ofi2_USBDeviceInit:
  3553                           	callstack 0
  3554                           
  3555 ;; *************** function _USBWakeFromSuspend *****************
  3556 ;; Defined at:
  3557 ;;		line 2310 in file "../../../../../../framework/usb/src/usb_device.c"
  3558 ;; Parameters:    Size  Location     Type
  3559 ;;		None
  3560 ;; Auto vars:     Size  Location     Type
  3561 ;;		None
  3562 ;; Return value:  Size  Location     Type
  3563 ;;                  1    wreg      void 
  3564 ;; Registers used:
  3565 ;;		wreg, fsr2l, fsr2h, status,2, status,0, prodl, prodh, cstack
  3566 ;; Tracked objects:
  3567 ;;		On entry : 0/0
  3568 ;;		On exit  : 0/0
  3569 ;;		Unchanged: 0/0
  3570 ;; Data sizes:     COMRAM   BANK0   BANK1   BANK2   BANK3   BANK4   BANK5   BANK6   BANK7
  3571 ;;      Params:         0       0       0       0       0       0       0       0       0
  3572 ;;      Locals:         0       0       0       0       0       0       0       0       0
  3573 ;;      Temps:          0       0       0       0       0       0       0       0       0
  3574 ;;      Totals:         0       0       0       0       0       0       0       0       0
  3575 ;;Total ram usage:        0 bytes
  3576 ;; Hardware stack levels used: 1
  3577 ;; Hardware stack levels required when called: 4
  3578 ;; This function calls:
  3579 ;;		_USER_USB_CALLBACK_EVENT_HANDLER
  3580 ;; This function is called by:
  3581 ;;		_USBDeviceTasks
  3582 ;; This function uses a non-reentrant model
  3583 ;;
  3584                           
  3585                           	psect	text17
  3586   002DEC                     __ptext17:
  3587                           	callstack 0
  3588   002DEC                     _USBWakeFromSuspend:
  3589                           	callstack 22
  3590   002DEC                     
  3591                           ;../../../../../../framework/usb/src/usb_device.c: 2312:     USBBusIsSuspended = 0;
  3592   002DEC  0E00               	movlw	0
  3593   002DEE  6E47               	movwf	_USBBusIsSuspended^0,c	;volatile
  3594   002DF0                     
  3595                           ;../../../../../../framework/usb/src/usb_device.c: 2318:     USER_USB_CALLBACK_EVENT_HAN
      +                          DLER((USB_EVENT)EVENT_RESUME,0,0);
  3596   002DF0  0E00               	movlw	0
  3597   002DF2  6E10               	movwf	(USER_USB_CALLBACK_EVENT_HANDLER@event+1)^0,c
  3598   002DF4  0E74               	movlw	116
  3599   002DF6  6E0F               	movwf	USER_USB_CALLBACK_EVENT_HANDLER@event^0,c
  3600   002DF8  0E00               	movlw	0
  3601   002DFA  6E11               	movwf	USER_USB_CALLBACK_EVENT_HANDLER@pdata^0,c
  3602   002DFC  0E00               	movlw	0
  3603   002DFE  6E12               	movwf	(USER_USB_CALLBACK_EVENT_HANDLER@pdata+1)^0,c
  3604   002E00  0E00               	movlw	0
  3605   002E02  6E14               	movwf	(USER_USB_CALLBACK_EVENT_HANDLER@size+1)^0,c
  3606   002E04  0E00               	movlw	0
  3607   002E06  6E13               	movwf	USER_USB_CALLBACK_EVENT_HANDLER@size^0,c
  3608   002E08  EC41  F013         	call	_USER_USB_CALLBACK_EVENT_HANDLER	;wreg free
  3609   002E0C                     
  3610                           ;../../../../../../framework/usb/src/usb_device.c: 2325:         UCONbits.SUSPND = 0;
  3611   002E0C  926D               	bcf	109,1,c	;volatile
  3612   002E0E                     
  3613                           ;../../../../../../framework/usb/src/usb_device.c: 2330:     UIEbits.ACTVIE = 0;
  3614   002E0E  9469               	bcf	105,2,c	;volatile
  3615                           
  3616                           ;../../../../../../framework/usb/src/usb_device.c: 2348:     while(UIRbits.ACTVIF)
  3617   002E10  EF0B  F017         	goto	i2l4293
  3618   002E14                     i2l4291:
  3619                           
  3620                           ;../../../../../../framework/usb/src/usb_device.c: 2350:     {;../../../../../../framewo
      +                          rk/usb/src/usb_device.c: 2351:         (UIR &= 0xFB);
  3621   002E14  9468               	bcf	104,2,c	;volatile
  3622   002E16                     i2l4293:
  3623                           
  3624                           ;../../../../../../framework/usb/src/usb_device.c: 2348:     while(UIRbits.ACTVIF)
  3625   002E16  B468               	btfsc	104,2,c	;volatile
  3626   002E18  EF10  F017         	goto	i2u262_41
  3627   002E1C  EF12  F017         	goto	i2u262_40
  3628   002E20                     i2u262_41:
  3629   002E20  EF0A  F017         	goto	i2l4291
  3630   002E24                     i2u262_40:
  3631   002E24                     
  3632                           ;../../../../../../framework/usb/src/usb_device.c: 2354:     USBTicksSinceSuspendEnd = 0
      +                          ;
  3633   002E24  0E00               	movlw	0
  3634   002E26  6E3E               	movwf	_USBTicksSinceSuspendEnd^0,c	;volatile
  3635   002E28  0012               	return		;funcret
  3636   002E2A                     __end_of_USBWakeFromSuspend:
  3637                           	callstack 0
  3638                           
  3639 ;; *************** function _USBSuspend *****************
  3640 ;; Defined at:
  3641 ;;		line 2252 in file "../../../../../../framework/usb/src/usb_device.c"
  3642 ;; Parameters:    Size  Location     Type
  3643 ;;		None
  3644 ;; Auto vars:     Size  Location     Type
  3645 ;;		None
  3646 ;; Return value:  Size  Location     Type
  3647 ;;                  1    wreg      void 
  3648 ;; Registers used:
  3649 ;;		wreg, fsr2l, fsr2h, status,2, status,0, prodl, prodh, cstack
  3650 ;; Tracked objects:
  3651 ;;		On entry : 0/0
  3652 ;;		On exit  : 0/0
  3653 ;;		Unchanged: 0/0
  3654 ;; Data sizes:     COMRAM   BANK0   BANK1   BANK2   BANK3   BANK4   BANK5   BANK6   BANK7
  3655 ;;      Params:         0       0       0       0       0       0       0       0       0
  3656 ;;      Locals:         0       0       0       0       0       0       0       0       0
  3657 ;;      Temps:          0       0       0       0       0       0       0       0       0
  3658 ;;      Totals:         0       0       0       0       0       0       0       0       0
  3659 ;;Total ram usage:        0 bytes
  3660 ;; Hardware stack levels used: 1
  3661 ;; Hardware stack levels required when called: 4
  3662 ;; This function calls:
  3663 ;;		_USER_USB_CALLBACK_EVENT_HANDLER
  3664 ;; This function is called by:
  3665 ;;		_USBDeviceTasks
  3666 ;; This function uses a non-reentrant model
  3667 ;;
  3668                           
  3669                           	psect	text18
  3670   002EF0                     __ptext18:
  3671                           	callstack 0
  3672   002EF0                     _USBSuspend:
  3673                           	callstack 22
  3674   002EF0                     
  3675                           ;../../../../../../framework/usb/src/usb_device.c: 2277:     UIEbits.ACTVIE = 1;
  3676   002EF0  8469               	bsf	105,2,c	;volatile
  3677   002EF2                     
  3678                           ;../../../../../../framework/usb/src/usb_device.c: 2278:     (UIR &= 0xEF);
  3679   002EF2  9868               	bcf	104,4,c	;volatile
  3680   002EF4                     
  3681                           ;../../../../../../framework/usb/src/usb_device.c: 2281:         UCONbits.SUSPND = 1;
  3682   002EF4  826D               	bsf	109,1,c	;volatile
  3683   002EF6                     
  3684                           ;../../../../../../framework/usb/src/usb_device.c: 2284:     USBBusIsSuspended = 1;
  3685   002EF6  0E01               	movlw	1
  3686   002EF8  6E47               	movwf	_USBBusIsSuspended^0,c	;volatile
  3687   002EFA                     
  3688                           ;../../../../../../framework/usb/src/usb_device.c: 2285:     USBTicksSinceSuspendEnd = 0
      +                          ;
  3689   002EFA  0E00               	movlw	0
  3690   002EFC  6E3E               	movwf	_USBTicksSinceSuspendEnd^0,c	;volatile
  3691   002EFE                     
  3692                           ;../../../../../../framework/usb/src/usb_device.c: 2292:     USER_USB_CALLBACK_EVENT_HAN
      +                          DLER((USB_EVENT)EVENT_SUSPEND,0,0);
  3693   002EFE  0E00               	movlw	0
  3694   002F00  6E10               	movwf	(USER_USB_CALLBACK_EVENT_HANDLER@event+1)^0,c
  3695   002F02  0E75               	movlw	117
  3696   002F04  6E0F               	movwf	USER_USB_CALLBACK_EVENT_HANDLER@event^0,c
  3697   002F06  0E00               	movlw	0
  3698   002F08  6E11               	movwf	USER_USB_CALLBACK_EVENT_HANDLER@pdata^0,c
  3699   002F0A  0E00               	movlw	0
  3700   002F0C  6E12               	movwf	(USER_USB_CALLBACK_EVENT_HANDLER@pdata+1)^0,c
  3701   002F0E  0E00               	movlw	0
  3702   002F10  6E14               	movwf	(USER_USB_CALLBACK_EVENT_HANDLER@size+1)^0,c
  3703   002F12  0E00               	movlw	0
  3704   002F14  6E13               	movwf	USER_USB_CALLBACK_EVENT_HANDLER@size^0,c
  3705   002F16  EC41  F013         	call	_USER_USB_CALLBACK_EVENT_HANDLER	;wreg free
  3706   002F1A  0012               	return		;funcret
  3707   002F1C                     __end_of_USBSuspend:
  3708                           	callstack 0
  3709                           
  3710 ;; *************** function _USBStallHandler *****************
  3711 ;; Defined at:
  3712 ;;		line 2209 in file "../../../../../../framework/usb/src/usb_device.c"
  3713 ;; Parameters:    Size  Location     Type
  3714 ;;		None
  3715 ;; Auto vars:     Size  Location     Type
  3716 ;;		None
  3717 ;; Return value:  Size  Location     Type
  3718 ;;                  1    wreg      void 
  3719 ;; Registers used:
  3720 ;;		wreg, fsr2l, fsr2h, status,2, status,0
  3721 ;; Tracked objects:
  3722 ;;		On entry : 0/0
  3723 ;;		On exit  : 0/0
  3724 ;;		Unchanged: 0/0
  3725 ;; Data sizes:     COMRAM   BANK0   BANK1   BANK2   BANK3   BANK4   BANK5   BANK6   BANK7
  3726 ;;      Params:         0       0       0       0       0       0       0       0       0
  3727 ;;      Locals:         0       0       0       0       0       0       0       0       0
  3728 ;;      Temps:          1       0       0       0       0       0       0       0       0
  3729 ;;      Totals:         1       0       0       0       0       0       0       0       0
  3730 ;;Total ram usage:        1 bytes
  3731 ;; Hardware stack levels used: 1
  3732 ;; This function calls:
  3733 ;;		Nothing
  3734 ;; This function is called by:
  3735 ;;		_USBDeviceTasks
  3736 ;; This function uses a non-reentrant model
  3737 ;;
  3738                           
  3739                           	psect	text19
  3740   002B64                     __ptext19:
  3741                           	callstack 0
  3742   002B64                     _USBStallHandler:
  3743                           	callstack 26
  3744   002B64                     
  3745                           ;../../../../../../framework/usb/src/usb_device.c: 2221:     if(UEP0bits.EPSTALL == 1)
  3746   002B64  A070               	btfss	112,0,c	;volatile
  3747   002B66  EFB7  F015         	goto	i2u265_41
  3748   002B6A  EFB9  F015         	goto	i2u265_40
  3749   002B6E                     i2u265_41:
  3750   002B6E  EFE0  F015         	goto	i2l423
  3751   002B72                     i2u265_40:
  3752   002B72                     
  3753                           ;../../../../../../framework/usb/src/usb_device.c: 2222:     {;../../../../../../framewo
      +                          rk/usb/src/usb_device.c: 2224:         if((pBDTEntryEP0OutCurrent->STAT.Val == 0x80) && 
      +                          (pBDTEntryIn[0]->STAT.Val == (0x80|0x04)))
  3754   002B72  C03C  FFD9         	movff	_pBDTEntryEP0OutCurrent,fsr2l
  3755   002B76  C03D  FFDA         	movff	_pBDTEntryEP0OutCurrent+1,fsr2h
  3756   002B7A  0E80               	movlw	128
  3757   002B7C  18DE               	xorwf	postinc2,w,c
  3758   002B7E  A4D8               	btfss	status,2,c
  3759   002B80  EFC4  F015         	goto	i2u266_41
  3760   002B84  EFC6  F015         	goto	i2u266_40
  3761   002B88                     i2u266_41:
  3762   002B88  EFDF  F015         	goto	i2l4329
  3763   002B8C                     i2u266_40:
  3764   002B8C  C06E  FFD9         	movff	_pBDTEntryIn,fsr2l
  3765   002B90  C06F  FFDA         	movff	_pBDTEntryIn+1,fsr2h
  3766   002B94  0E84               	movlw	132
  3767   002B96  18DE               	xorwf	postinc2,w,c
  3768   002B98  A4D8               	btfss	status,2,c
  3769   002B9A  EFD1  F015         	goto	i2u267_41
  3770   002B9E  EFD3  F015         	goto	i2u267_40
  3771   002BA2                     i2u267_41:
  3772   002BA2  EFDF  F015         	goto	i2l4329
  3773   002BA6                     i2u267_40:
  3774   002BA6                     
  3775                           ;../../../../../../framework/usb/src/usb_device.c: 2225:         {;../../../../../../fra
      +                          mework/usb/src/usb_device.c: 2227:             pBDTEntryEP0OutCurrent->STAT.Val = 0x00|(
      +                          0x08 & 0x08)|0x04;
  3776   002BA6  C03C  FFD9         	movff	_pBDTEntryEP0OutCurrent,fsr2l
  3777   002BAA  C03D  FFDA         	movff	_pBDTEntryEP0OutCurrent+1,fsr2h
  3778   002BAE  0E0C               	movlw	12
  3779   002BB0  6EDF               	movwf	indf2,c
  3780   002BB2                     
  3781                           ;../../../../../../framework/usb/src/usb_device.c: 2228:             pBDTEntryEP0OutCurr
      +                          ent->STAT.Val |= 0x80;
  3782   002BB2  C03C  FFD9         	movff	_pBDTEntryEP0OutCurrent,fsr2l
  3783   002BB6  C03D  FFDA         	movff	_pBDTEntryEP0OutCurrent+1,fsr2h
  3784   002BBA  0E00               	movlw	0
  3785   002BBC  8EDB               	bsf	plusw2,7,c
  3786   002BBE                     i2l4329:
  3787                           
  3788                           ;../../../../../../framework/usb/src/usb_device.c: 2230:         UEP0bits.EPSTALL = 0;
  3789   002BBE  9070               	bcf	112,0,c	;volatile
  3790   002BC0                     i2l423:
  3791                           
  3792                           ;../../../../../../framework/usb/src/usb_device.c: 2233:     (UIR &= 0xDF);
  3793   002BC0  9A68               	bcf	104,5,c	;volatile
  3794   002BC2  0012               	return		;funcret
  3795   002BC4                     __end_of_USBStallHandler:
  3796                           	callstack 0
  3797                           
  3798 ;; *************** function _USBIncrement1msInternalTimers *****************
  3799 ;; Defined at:
  3800 ;;		line 2998 in file "../../../../../../framework/usb/src/usb_device.c"
  3801 ;; Parameters:    Size  Location     Type
  3802 ;;		None
  3803 ;; Auto vars:     Size  Location     Type
  3804 ;;		None
  3805 ;; Return value:  Size  Location     Type
  3806 ;;                  1    wreg      void 
  3807 ;; Registers used:
  3808 ;;		wreg, status,2, status,0
  3809 ;; Tracked objects:
  3810 ;;		On entry : 0/0
  3811 ;;		On exit  : 0/0
  3812 ;;		Unchanged: 0/0
  3813 ;; Data sizes:     COMRAM   BANK0   BANK1   BANK2   BANK3   BANK4   BANK5   BANK6   BANK7
  3814 ;;      Params:         0       0       0       0       0       0       0       0       0
  3815 ;;      Locals:         0       0       0       0       0       0       0       0       0
  3816 ;;      Temps:          0       0       0       0       0       0       0       0       0
  3817 ;;      Totals:         0       0       0       0       0       0       0       0       0
  3818 ;;Total ram usage:        0 bytes
  3819 ;; Hardware stack levels used: 1
  3820 ;; This function calls:
  3821 ;;		Nothing
  3822 ;; This function is called by:
  3823 ;;		_USBDeviceTasks
  3824 ;; This function uses a non-reentrant model
  3825 ;;
  3826                           
  3827                           	psect	text20
  3828   002E5E                     __ptext20:
  3829                           	callstack 0
  3830   002E5E                     _USBIncrement1msInternalTimers:
  3831                           	callstack 26
  3832   002E5E                     
  3833                           ;../../../../../../framework/usb/src/usb_device.c: 3006:     USB1msTickCount++;
  3834   002E5E  0E01               	movlw	1
  3835   002E60  2632               	addwf	_USB1msTickCount^0,f,c	;volatile
  3836   002E62  0E00               	movlw	0
  3837   002E64  2233               	addwfc	(_USB1msTickCount+1)^0,f,c	;volatile
  3838   002E66  2234               	addwfc	(_USB1msTickCount+2)^0,f,c	;volatile
  3839   002E68  2235               	addwfc	(_USB1msTickCount+3)^0,f,c	;volatile
  3840   002E6A                     
  3841                           ;../../../../../../framework/usb/src/usb_device.c: 3007:     if(USBBusIsSuspended == 0)
  3842   002E6A  5047               	movf	_USBBusIsSuspended^0,w,c	;volatile
  3843   002E6C  A4D8               	btfss	status,2,c
  3844   002E6E  EF3B  F017         	goto	i2u263_41
  3845   002E72  EF3D  F017         	goto	i2u263_40
  3846   002E76                     i2u263_41:
  3847   002E76  EF47  F017         	goto	i2l515
  3848   002E7A                     i2u263_40:
  3849   002E7A                     
  3850                           ;../../../../../../framework/usb/src/usb_device.c: 3008:     {;../../../../../../framewo
      +                          rk/usb/src/usb_device.c: 3009:         USBTicksSinceSuspendEnd++;
  3851   002E7A  2A3E               	incf	_USBTicksSinceSuspendEnd^0,f,c	;volatile
  3852   002E7C                     
  3853                           ;../../../../../../framework/usb/src/usb_device.c: 3011:         if(USBTicksSinceSuspend
      +                          End == 0)
  3854   002E7C  503E               	movf	_USBTicksSinceSuspendEnd^0,w,c	;volatile
  3855   002E7E  A4D8               	btfss	status,2,c
  3856   002E80  EF44  F017         	goto	i2u264_41
  3857   002E84  EF46  F017         	goto	i2u264_40
  3858   002E88                     i2u264_41:
  3859   002E88  EF47  F017         	goto	i2l515
  3860   002E8C                     i2u264_40:
  3861   002E8C                     
  3862                           ;../../../../../../framework/usb/src/usb_device.c: 3012:         {;../../../../../../fra
      +                          mework/usb/src/usb_device.c: 3013:             USBTicksSinceSuspendEnd = 255;
  3863   002E8C  683E               	setf	_USBTicksSinceSuspendEnd^0,c	;volatile
  3864   002E8E                     i2l515:
  3865   002E8E  0012               	return		;funcret
  3866   002E90                     __end_of_USBIncrement1msInternalTimers:
  3867                           	callstack 0
  3868                           
  3869 ;; *************** function _USBCtrlEPService *****************
  3870 ;; Defined at:
  3871 ;;		line 2379 in file "../../../../../../framework/usb/src/usb_device.c"
  3872 ;; Parameters:    Size  Location     Type
  3873 ;;		None
  3874 ;; Auto vars:     Size  Location     Type
  3875 ;;		None
  3876 ;; Return value:  Size  Location     Type
  3877 ;;                  1    wreg      void 
  3878 ;; Registers used:
  3879 ;;		wreg, fsr0l, fsr0h, fsr1l, fsr1h, fsr2l, fsr2h, status,2, status,0, tblptrl, tblptrh, tblptru, prodl, prodh, cstack
  3880 ;; Tracked objects:
  3881 ;;		On entry : 0/0
  3882 ;;		On exit  : 0/0
  3883 ;;		Unchanged: 0/0
  3884 ;; Data sizes:     COMRAM   BANK0   BANK1   BANK2   BANK3   BANK4   BANK5   BANK6   BANK7
  3885 ;;      Params:         0       0       0       0       0       0       0       0       0
  3886 ;;      Locals:         0       0       0       0       0       0       0       0       0
  3887 ;;      Temps:          1       0       0       0       0       0       0       0       0
  3888 ;;      Totals:         1       0       0       0       0       0       0       0       0
  3889 ;;Total ram usage:        1 bytes
  3890 ;; Hardware stack levels used: 1
  3891 ;; Hardware stack levels required when called: 7
  3892 ;; This function calls:
  3893 ;;		_USBCtrlTrfInHandler
  3894 ;;		_USBCtrlTrfOutHandler
  3895 ;;		_USBCtrlTrfSetupHandler
  3896 ;;		_memcpy
  3897 ;; This function is called by:
  3898 ;;		_USBDeviceTasks
  3899 ;; This function uses a non-reentrant model
  3900 ;;
  3901                           
  3902                           	psect	text21
  3903   002466                     __ptext21:
  3904                           	callstack 0
  3905   002466                     _USBCtrlEPService:
  3906                           	callstack 19
  3907   002466                     
  3908                           ;../../../../../../framework/usb/src/usb_device.c: 2385:         USBStatusStageTimeoutCo
      +                          unter = (uint8_t)45;
  3909   002466  0E2D               	movlw	45
  3910   002468  6E44               	movwf	_USBStatusStageTimeoutCounter^0,c	;volatile
  3911   00246A                     
  3912                           ;../../../../../../framework/usb/src/usb_device.c: 2389:     if((USTATcopy.Val & ~0x02) 
      +                          == 0x00)
  3913   00246A  C04E  F020         	movff	_USTATcopy,??_USBCtrlEPService	;volatile
  3914   00246E  0EFD               	movlw	253
  3915   002470  1620               	andwf	??_USBCtrlEPService^0,f,c
  3916   002472  A4D8               	btfss	status,2,c
  3917   002474  EF3E  F012         	goto	i2u268_41
  3918   002478  EF40  F012         	goto	i2u268_40
  3919   00247C                     i2u268_41:
  3920   00247C  EF82  F012         	goto	i2l4349
  3921   002480                     i2u268_40:
  3922   002480                     
  3923                           ;../../../../../../framework/usb/src/usb_device.c: 2390:     {;../../../../../../framewo
      +                          rk/usb/src/usb_device.c: 2393:             pBDTEntryEP0OutCurrent = (volatile BDT_ENTRY*
      +                          )&BDT[(USTATcopy.Val & 0x7E)>>1];
  3924   002480  C04E  F020         	movff	_USTATcopy,??_USBCtrlEPService	;volatile
  3925   002484  90D8               	bcf	status,0,c
  3926   002486  3220               	rrcf	??_USBCtrlEPService^0,f,c
  3927   002488  0E3F               	movlw	63
  3928   00248A  1620               	andwf	??_USBCtrlEPService^0,f,c
  3929   00248C  5020               	movf	??_USBCtrlEPService^0,w,c
  3930   00248E  0D04               	mullw	4
  3931   002490  0E00               	movlw	0
  3932   002492  24F3               	addwf	243,w,c
  3933   002494  6E3C               	movwf	_pBDTEntryEP0OutCurrent^0,c
  3934   002496  0E04               	movlw	4
  3935   002498  20F4               	addwfc	prodh,w,c
  3936   00249A  6E3D               	movwf	(_pBDTEntryEP0OutCurrent+1)^0,c
  3937   00249C                     
  3938                           ;../../../../../../framework/usb/src/usb_device.c: 2401:         pBDTEntryEP0OutNext = p
      +                          BDTEntryEP0OutCurrent;
  3939   00249C  C03C  F03A         	movff	_pBDTEntryEP0OutCurrent,_pBDTEntryEP0OutNext
  3940   0024A0  C03D  F03B         	movff	_pBDTEntryEP0OutCurrent+1,_pBDTEntryEP0OutNext+1
  3941   0024A4                     
  3942                           ;../../../../../../framework/usb/src/usb_device.c: 2403:         pBDTEntryEP0OutNext = (
      +                          volatile BDT_ENTRY*)(((uint16_t)pBDTEntryEP0OutNext) ^ 0x0004);
  3943   0024A4  0E04               	movlw	4
  3944   0024A6  183A               	xorwf	_pBDTEntryEP0OutNext^0,w,c
  3945   0024A8  6E3A               	movwf	_pBDTEntryEP0OutNext^0,c
  3946   0024AA  503B               	movf	(_pBDTEntryEP0OutNext+1)^0,w,c
  3947   0024AC  6E3B               	movwf	(_pBDTEntryEP0OutNext+1)^0,c
  3948   0024AE                     
  3949                           ;../../../../../../framework/usb/src/usb_device.c: 2406:         if(pBDTEntryEP0OutCurre
      +                          nt->STAT.PID == 0xD)
  3950   0024AE  C03C  FFD9         	movff	_pBDTEntryEP0OutCurrent,fsr2l
  3951   0024B2  C03D  FFDA         	movff	_pBDTEntryEP0OutCurrent+1,fsr2h
  3952   0024B6  30DF               	rrcf	223,w,c
  3953   0024B8  32E8               	rrcf	wreg,f,c
  3954   0024BA  0B0F               	andlw	15
  3955   0024BC  0A0D               	xorlw	13
  3956   0024BE  A4D8               	btfss	status,2,c
  3957   0024C0  EF64  F012         	goto	i2u269_41
  3958   0024C4  EF66  F012         	goto	i2u269_40
  3959   0024C8                     i2u269_41:
  3960   0024C8  EF7E  F012         	goto	i2l4347
  3961   0024CC                     i2u269_40:
  3962   0024CC                     
  3963                           ;../../../../../../framework/usb/src/usb_device.c: 2407:         {;../../../../../../fra
      +                          mework/usb/src/usb_device.c: 2412:             memcpy((uint8_t*)&SetupPkt, (uint8_t*)((v
      +                          oid *)(pBDTEntryEP0OutCurrent->ADR)), 8);
  3964   0024CC  0E20               	movlw	32
  3965   0024CE  6E01               	movwf	memcpy@d1^0,c
  3966   0024D0  0E04               	movlw	4
  3967   0024D2  6E02               	movwf	(memcpy@d1+1)^0,c
  3968   0024D4  EE20 F002          	lfsr	2,2
  3969   0024D8  503C               	movf	_pBDTEntryEP0OutCurrent^0,w,c
  3970   0024DA  26D9               	addwf	fsr2l,f,c
  3971   0024DC  503D               	movf	(_pBDTEntryEP0OutCurrent+1)^0,w,c
  3972   0024DE  22DA               	addwfc	fsr2h,f,c
  3973   0024E0  CFDE F003          	movff	postinc2,memcpy@s1
  3974   0024E4  CFDD F004          	movff	postdec2,memcpy@s1+1
  3975   0024E8  0E00               	movlw	0
  3976   0024EA  6E06               	movwf	(memcpy@n+1)^0,c
  3977   0024EC  0E08               	movlw	8
  3978   0024EE  6E05               	movwf	memcpy@n^0,c
  3979   0024F0  EC3F  F016         	call	_memcpy	;wreg free
  3980   0024F4                     
  3981                           ;../../../../../../framework/usb/src/usb_device.c: 2415:             USBCtrlTrfSetupHand
      +                          ler();
  3982   0024F4  EC97  F013         	call	_USBCtrlTrfSetupHandler	;wreg free
  3983                           
  3984                           ;../../../../../../framework/usb/src/usb_device.c: 2416:         }
  3985   0024F8  EF8E  F012         	goto	i2l442
  3986   0024FC                     i2l4347:
  3987                           
  3988                           ;../../../../../../framework/usb/src/usb_device.c: 2418:         {;../../../../../../fra
      +                          mework/usb/src/usb_device.c: 2420:             USBCtrlTrfOutHandler();
  3989   0024FC  ECDF  F013         	call	_USBCtrlTrfOutHandler	;wreg free
  3990   002500  EF8E  F012         	goto	i2l442
  3991   002504                     i2l4349:
  3992   002504  504E               	movf	_USTATcopy^0,w,c	;volatile
  3993   002506  0BFD               	andlw	253
  3994   002508  0A04               	xorlw	4
  3995   00250A  A4D8               	btfss	status,2,c
  3996   00250C  EF8A  F012         	goto	i2u270_41
  3997   002510  EF8C  F012         	goto	i2u270_40
  3998   002514                     i2u270_41:
  3999   002514  EF8E  F012         	goto	i2l442
  4000   002518                     i2u270_40:
  4001   002518                     
  4002                           ;../../../../../../framework/usb/src/usb_device.c: 2424:     {;../../../../../../framewo
      +                          rk/usb/src/usb_device.c: 2427:         USBCtrlTrfInHandler();
  4003   002518  EC49  F010         	call	_USBCtrlTrfInHandler	;wreg free
  4004   00251C                     i2l442:
  4005   00251C  0012               	return		;funcret
  4006   00251E                     __end_of_USBCtrlEPService:
  4007                           	callstack 0
  4008                           
  4009 ;; *************** function _memcpy *****************
  4010 ;; Defined at:
  4011 ;;		line 4 in file "C:\Program Files\Microchip\xc8\v2.41\pic\sources\c99\common\memcpy.c"
  4012 ;; Parameters:    Size  Location     Type
  4013 ;;  d1              2    0[COMRAM] PTR void 
  4014 ;;		 -> SetupPkt(8), 
  4015 ;;  s1              2    2[COMRAM] PTR const void 
  4016 ;;		 -> CtrlTrfData(8), RAM(2047), SetupPkt(8), 
  4017 ;;  n               2    4[COMRAM] unsigned int 
  4018 ;; Auto vars:     Size  Location     Type
  4019 ;;  s               2    8[COMRAM] PTR const unsigned char 
  4020 ;;		 -> CtrlTrfData(8), RAM(2047), SetupPkt(8), 
  4021 ;;  d               2    6[COMRAM] PTR unsigned char 
  4022 ;;		 -> SetupPkt(8), 
  4023 ;;  tmp             1   10[COMRAM] unsigned char 
  4024 ;; Return value:  Size  Location     Type
  4025 ;;                  2    0[COMRAM] PTR void 
  4026 ;; Registers used:
  4027 ;;		wreg, fsr2l, fsr2h, status,2, status,0
  4028 ;; Tracked objects:
  4029 ;;		On entry : 0/0
  4030 ;;		On exit  : 0/0
  4031 ;;		Unchanged: 0/0
  4032 ;; Data sizes:     COMRAM   BANK0   BANK1   BANK2   BANK3   BANK4   BANK5   BANK6   BANK7
  4033 ;;      Params:         6       0       0       0       0       0       0       0       0
  4034 ;;      Locals:         5       0       0       0       0       0       0       0       0
  4035 ;;      Temps:          0       0       0       0       0       0       0       0       0
  4036 ;;      Totals:        11       0       0       0       0       0       0       0       0
  4037 ;;Total ram usage:       11 bytes
  4038 ;; Hardware stack levels used: 1
  4039 ;; This function calls:
  4040 ;;		Nothing
  4041 ;; This function is called by:
  4042 ;;		_USBCtrlEPService
  4043 ;; This function uses a non-reentrant model
  4044 ;;
  4045                           
  4046                           	psect	text22
  4047   002C7E                     __ptext22:
  4048                           	callstack 0
  4049   002C7E                     _memcpy:
  4050                           	callstack 25
  4051   002C7E  C003  F009         	movff	memcpy@s1,memcpy@s
  4052   002C82  C004  F00A         	movff	memcpy@s1+1,memcpy@s+1
  4053   002C86  C001  F007         	movff	memcpy@d1,memcpy@d
  4054   002C8A  C002  F008         	movff	memcpy@d1+1,memcpy@d+1
  4055   002C8E  EF59  F016         	goto	i2l4119
  4056   002C92                     i2l4111:
  4057   002C92  C009  FFD9         	movff	memcpy@s,fsr2l
  4058   002C96  C00A  FFDA         	movff	memcpy@s+1,fsr2h
  4059   002C9A  50DF               	movf	indf2,w,c
  4060   002C9C  6E0B               	movwf	memcpy@tmp^0,c
  4061   002C9E  4A09               	infsnz	memcpy@s^0,f,c
  4062   002CA0  2A0A               	incf	(memcpy@s+1)^0,f,c
  4063   002CA2  C007  FFD9         	movff	memcpy@d,fsr2l
  4064   002CA6  C008  FFDA         	movff	memcpy@d+1,fsr2h
  4065   002CAA  C00B  FFDF         	movff	memcpy@tmp,indf2
  4066   002CAE  4A07               	infsnz	memcpy@d^0,f,c
  4067   002CB0  2A08               	incf	(memcpy@d+1)^0,f,c
  4068   002CB2                     i2l4119:
  4069   002CB2  0605               	decf	memcpy@n^0,f,c
  4070   002CB4  A0D8               	btfss	status,0,c
  4071   002CB6  0606               	decf	(memcpy@n+1)^0,f,c
  4072   002CB8  2805               	incf	memcpy@n^0,w,c
  4073   002CBA  E106               	bnz	i2u243_41
  4074   002CBC  2806               	incf	(memcpy@n+1)^0,w,c
  4075   002CBE  A4D8               	btfss	status,2,c
  4076   002CC0  EF64  F016         	goto	i2u243_41
  4077   002CC4  EF66  F016         	goto	i2u243_40
  4078   002CC8                     i2u243_41:
  4079   002CC8  EF49  F016         	goto	i2l4111
  4080   002CCC                     i2u243_40:
  4081   002CCC  0012               	return		;funcret
  4082   002CCE                     __end_of_memcpy:
  4083                           	callstack 0
  4084                           
  4085 ;; *************** function _USBCtrlTrfSetupHandler *****************
  4086 ;; Defined at:
  4087 ;;		line 2472 in file "../../../../../../framework/usb/src/usb_device.c"
  4088 ;; Parameters:    Size  Location     Type
  4089 ;;		None
  4090 ;; Auto vars:     Size  Location     Type
  4091 ;;		None
  4092 ;; Return value:  Size  Location     Type
  4093 ;;                  1    wreg      void 
  4094 ;; Registers used:
  4095 ;;		wreg, fsr0l, fsr0h, fsr2l, fsr2h, status,2, status,0, tblptrl, tblptrh, tblptru, prodl, prodh, cstack
  4096 ;; Tracked objects:
  4097 ;;		On entry : 0/0
  4098 ;;		On exit  : 0/0
  4099 ;;		Unchanged: 0/0
  4100 ;; Data sizes:     COMRAM   BANK0   BANK1   BANK2   BANK3   BANK4   BANK5   BANK6   BANK7
  4101 ;;      Params:         0       0       0       0       0       0       0       0       0
  4102 ;;      Locals:         0       0       0       0       0       0       0       0       0
  4103 ;;      Temps:          0       0       0       0       0       0       0       0       0
  4104 ;;      Totals:         0       0       0       0       0       0       0       0       0
  4105 ;;Total ram usage:        0 bytes
  4106 ;; Hardware stack levels used: 1
  4107 ;; Hardware stack levels required when called: 6
  4108 ;; This function calls:
  4109 ;;		_USBCheckStdRequest
  4110 ;;		_USBCtrlEPServiceComplete
  4111 ;;		_USER_USB_CALLBACK_EVENT_HANDLER
  4112 ;; This function is called by:
  4113 ;;		_USBCtrlEPService
  4114 ;; This function uses a non-reentrant model
  4115 ;;
  4116                           
  4117                           	psect	text23
  4118   00272E                     __ptext23:
  4119                           	callstack 0
  4120   00272E                     _USBCtrlTrfSetupHandler:
  4121                           	callstack 19
  4122   00272E                     
  4123                           ;../../../../../../framework/usb/src/usb_device.c: 2477:     shortPacketStatus = 0;
  4124   00272E  0E00               	movlw	0
  4125   002730  6E4A               	movwf	_shortPacketStatus^0,c	;volatile
  4126                           
  4127                           ;../../../../../../framework/usb/src/usb_device.c: 2478:     USBDeferStatusStagePacket =
      +                           0;
  4128   002732  0E00               	movlw	0
  4129   002734  6E43               	movwf	_USBDeferStatusStagePacket^0,c	;volatile
  4130                           
  4131                           ;../../../../../../framework/usb/src/usb_device.c: 2479:     USBDeferINDataStagePackets 
      +                          = 0;
  4132   002736  0E00               	movlw	0
  4133   002738  6E40               	movwf	_USBDeferINDataStagePackets^0,c	;volatile
  4134                           
  4135                           ;../../../../../../framework/usb/src/usb_device.c: 2480:     USBDeferOUTDataStagePackets
      +                           = 0;
  4136   00273A  0E00               	movlw	0
  4137   00273C  6E3F               	movwf	_USBDeferOUTDataStagePackets^0,c	;volatile
  4138                           
  4139                           ;../../../../../../framework/usb/src/usb_device.c: 2481:     BothEP0OutUOWNsSet = 0;
  4140   00273E  0E00               	movlw	0
  4141   002740  6E45               	movwf	_BothEP0OutUOWNsSet^0,c	;volatile
  4142                           
  4143                           ;../../../../../../framework/usb/src/usb_device.c: 2482:     controlTransferState = 0;
  4144   002742  0E00               	movlw	0
  4145   002744  6E49               	movwf	_controlTransferState^0,c	;volatile
  4146   002746                     
  4147                           ;../../../../../../framework/usb/src/usb_device.c: 2491:     pBDTEntryIn[0]->STAT.Val &=
      +                           ~(0x80);
  4148   002746  C06E  FFD9         	movff	_pBDTEntryIn,fsr2l
  4149   00274A  C06F  FFDA         	movff	_pBDTEntryIn+1,fsr2h
  4150   00274E  0E7F               	movlw	127
  4151   002750  16DF               	andwf	indf2,f,c
  4152   002752                     
  4153                           ;../../../../../../framework/usb/src/usb_device.c: 2493:     pBDTEntryIn[0] = (volatile 
      +                          BDT_ENTRY*)(((uint16_t)pBDTEntryIn[0]) ^ 0x0004);
  4154   002752  0E04               	movlw	4
  4155   002754  0100               	movlb	0	; () banked
  4156   002756  196E               	xorwf	_pBDTEntryIn& (0+255),w,b
  4157   002758  6F6E               	movwf	_pBDTEntryIn& (0+255),b
  4158   00275A  516F               	movf	(_pBDTEntryIn+1)& (0+255),w,b
  4159   00275C  6F6F               	movwf	(_pBDTEntryIn+1)& (0+255),b
  4160   00275E                     
  4161                           ; BSR set to: 0
  4162                           ;../../../../../../framework/usb/src/usb_device.c: 2494:     pBDTEntryIn[0]->STAT.Val &=
      +                           ~(0x80);
  4163   00275E  C06E  FFD9         	movff	_pBDTEntryIn,fsr2l
  4164   002762  C06F  FFDA         	movff	_pBDTEntryIn+1,fsr2h
  4165   002766  0E7F               	movlw	127
  4166   002768  16DF               	andwf	indf2,f,c
  4167   00276A                     
  4168                           ; BSR set to: 0
  4169                           ;../../../../../../framework/usb/src/usb_device.c: 2495:     pBDTEntryIn[0] = (volatile 
      +                          BDT_ENTRY*)(((uint16_t)pBDTEntryIn[0]) ^ 0x0004);
  4170   00276A  0E04               	movlw	4
  4171   00276C  196E               	xorwf	_pBDTEntryIn& (0+255),w,b
  4172   00276E  6F6E               	movwf	_pBDTEntryIn& (0+255),b
  4173   002770  516F               	movf	(_pBDTEntryIn+1)& (0+255),w,b
  4174   002772  6F6F               	movwf	(_pBDTEntryIn+1)& (0+255),b
  4175   002774                     
  4176                           ; BSR set to: 0
  4177                           ;../../../../../../framework/usb/src/usb_device.c: 2496:     pBDTEntryEP0OutNext->STAT.V
      +                          al &= ~(0x80);
  4178   002774  C03A  FFD9         	movff	_pBDTEntryEP0OutNext,fsr2l
  4179   002778  C03B  FFDA         	movff	_pBDTEntryEP0OutNext+1,fsr2h
  4180   00277C  0E7F               	movlw	127
  4181   00277E  16DF               	andwf	indf2,f,c
  4182   002780                     
  4183                           ; BSR set to: 0
  4184                           ;../../../../../../framework/usb/src/usb_device.c: 2498:     inPipes[0].info.Val = 0;
  4185   002780  0E00               	movlw	0
  4186   002782  6F6B               	movwf	(_inPipes+3)& (0+255),b	;volatile
  4187   002784                     
  4188                           ; BSR set to: 0
  4189                           ;../../../../../../framework/usb/src/usb_device.c: 2499:     inPipes[0].wCount.Val = 0;
  4190   002784  0E00               	movlw	0
  4191   002786  6F6D               	movwf	(_inPipes+5)& (0+255),b	;volatile
  4192   002788  0E00               	movlw	0
  4193   00278A  6F6C               	movwf	(_inPipes+4)& (0+255),b	;volatile
  4194   00278C                     
  4195                           ; BSR set to: 0
  4196                           ;../../../../../../framework/usb/src/usb_device.c: 2500:     outPipes[0].info.Val = 0;
  4197   00278C  0E00               	movlw	0
  4198   00278E  6F63               	movwf	(_outPipes+3)& (0+255),b	;volatile
  4199   002790                     
  4200                           ; BSR set to: 0
  4201                           ;../../../../../../framework/usb/src/usb_device.c: 2501:     outPipes[0].wCount.Val = 0;
  4202   002790  0E00               	movlw	0
  4203   002792  6F65               	movwf	(_outPipes+5)& (0+255),b	;volatile
  4204   002794  0E00               	movlw	0
  4205   002796  6F64               	movwf	(_outPipes+4)& (0+255),b	;volatile
  4206   002798                     
  4207                           ; BSR set to: 0
  4208                           ;../../../../../../framework/usb/src/usb_device.c: 2507:     USBCheckStdRequest();
  4209   002798  EC9D  F00E         	call	_USBCheckStdRequest	;wreg free
  4210   00279C                     
  4211                           ;../../../../../../framework/usb/src/usb_device.c: 2508:     USER_USB_CALLBACK_EVENT_HAN
      +                          DLER((USB_EVENT)EVENT_EP0_REQUEST,0,0);
  4212   00279C  0E00               	movlw	0
  4213   00279E  6E10               	movwf	(USER_USB_CALLBACK_EVENT_HANDLER@event+1)^0,c
  4214   0027A0  0E03               	movlw	3
  4215   0027A2  6E0F               	movwf	USER_USB_CALLBACK_EVENT_HANDLER@event^0,c
  4216   0027A4  0E00               	movlw	0
  4217   0027A6  6E11               	movwf	USER_USB_CALLBACK_EVENT_HANDLER@pdata^0,c
  4218   0027A8  0E00               	movlw	0
  4219   0027AA  6E12               	movwf	(USER_USB_CALLBACK_EVENT_HANDLER@pdata+1)^0,c
  4220   0027AC  0E00               	movlw	0
  4221   0027AE  6E14               	movwf	(USER_USB_CALLBACK_EVENT_HANDLER@size+1)^0,c
  4222   0027B0  0E00               	movlw	0
  4223   0027B2  6E13               	movwf	USER_USB_CALLBACK_EVENT_HANDLER@size^0,c
  4224   0027B4  EC41  F013         	call	_USER_USB_CALLBACK_EVENT_HANDLER	;wreg free
  4225   0027B8                     
  4226                           ;../../../../../../framework/usb/src/usb_device.c: 2521:     USBCtrlEPServiceComplete();
  4227   0027B8  EC1E  F00C         	call	_USBCtrlEPServiceComplete	;wreg free
  4228   0027BC  0012               	return		;funcret
  4229   0027BE                     __end_of_USBCtrlTrfSetupHandler:
  4230                           	callstack 0
  4231                           
  4232 ;; *************** function _USBCtrlEPServiceComplete *****************
  4233 ;; Defined at:
  4234 ;;		line 1620 in file "../../../../../../framework/usb/src/usb_device.c"
  4235 ;; Parameters:    Size  Location     Type
  4236 ;;		None
  4237 ;; Auto vars:     Size  Location     Type
  4238 ;;		None
  4239 ;; Return value:  Size  Location     Type
  4240 ;;                  1    wreg      void 
  4241 ;; Registers used:
  4242 ;;		wreg, fsr0l, fsr0h, fsr2l, fsr2h, status,2, status,0, tblptrl, tblptrh, tblptru, cstack
  4243 ;; Tracked objects:
  4244 ;;		On entry : 0/0
  4245 ;;		On exit  : 0/0
  4246 ;;		Unchanged: 0/0
  4247 ;; Data sizes:     COMRAM   BANK0   BANK1   BANK2   BANK3   BANK4   BANK5   BANK6   BANK7
  4248 ;;      Params:         0       0       0       0       0       0       0       0       0
  4249 ;;      Locals:         0       0       0       0       0       0       0       0       0
  4250 ;;      Temps:          0       0       0       0       0       0       0       0       0
  4251 ;;      Totals:         0       0       0       0       0       0       0       0       0
  4252 ;;Total ram usage:        0 bytes
  4253 ;; Hardware stack levels used: 1
  4254 ;; Hardware stack levels required when called: 2
  4255 ;; This function calls:
  4256 ;;		_USBCtrlEPAllowDataStage
  4257 ;;		_USBCtrlEPAllowStatusStage
  4258 ;; This function is called by:
  4259 ;;		_USBCtrlTrfSetupHandler
  4260 ;; This function uses a non-reentrant model
  4261 ;;
  4262                           
  4263                           	psect	text24
  4264   00183C                     __ptext24:
  4265                           	callstack 0
  4266   00183C                     _USBCtrlEPServiceComplete:
  4267                           	callstack 22
  4268   00183C                     
  4269                           ;../../../../../../framework/usb/src/usb_device.c: 1626:     UCONbits.PKTDIS = 0;
  4270   00183C  986D               	bcf	109,4,c	;volatile
  4271                           
  4272                           ;../../../../../../framework/usb/src/usb_device.c: 1632:     if(inPipes[0].info.bits.bus
      +                          y == 0)
  4273   00183E  0100               	movlb	0	; () banked
  4274   001840  BF6B               	btfsc	(_inPipes+3)& (0+255),7,b	;volatile
  4275   001842  EF25  F00C         	goto	i2u230_41
  4276   001846  EF27  F00C         	goto	i2u230_40
  4277   00184A                     i2u230_41:
  4278   00184A  EF6C  F00C         	goto	i2l346
  4279   00184E                     i2u230_40:
  4280   00184E                     
  4281                           ; BSR set to: 0
  4282                           ;../../../../../../framework/usb/src/usb_device.c: 1633:     {;../../../../../../framewo
      +                          rk/usb/src/usb_device.c: 1634:         if(outPipes[0].info.bits.busy == 1)
  4283   00184E  AF63               	btfss	(_outPipes+3)& (0+255),7,b	;volatile
  4284   001850  EF2C  F00C         	goto	i2u231_41
  4285   001854  EF2E  F00C         	goto	i2u231_40
  4286   001858                     i2u231_41:
  4287   001858  EF40  F00C         	goto	i2l3983
  4288   00185C                     i2u231_40:
  4289   00185C                     
  4290                           ; BSR set to: 0
  4291                           ;../../../../../../framework/usb/src/usb_device.c: 1635:         {;../../../../../../fra
      +                          mework/usb/src/usb_device.c: 1636:             controlTransferState = 2;
  4292   00185C  0E02               	movlw	2
  4293   00185E  6E49               	movwf	_controlTransferState^0,c	;volatile
  4294                           
  4295                           ;../../../../../../framework/usb/src/usb_device.c: 1647:             if(USBDeferOUTDataS
      +                          tagePackets == 0)
  4296   001860  503F               	movf	_USBDeferOUTDataStagePackets^0,w,c	;volatile
  4297   001862  A4D8               	btfss	status,2,c
  4298   001864  EF36  F00C         	goto	i2u232_41
  4299   001868  EF38  F00C         	goto	i2u232_40
  4300   00186C                     i2u232_41:
  4301   00186C  EF3A  F00C         	goto	i2l3979
  4302   001870                     i2u232_40:
  4303   001870                     
  4304                           ; BSR set to: 0
  4305                           ;../../../../../../framework/usb/src/usb_device.c: 1648:             {;../../../../../..
      +                          /framework/usb/src/usb_device.c: 1649:                 USBCtrlEPAllowDataStage();
  4306   001870  EC8F  F012         	call	_USBCtrlEPAllowDataStage	;wreg free
  4307   001874                     i2l3979:
  4308                           
  4309                           ;../../../../../../framework/usb/src/usb_device.c: 1654:             USBStatusStageEnabl
      +                          edFlag2 = 0;
  4310   001874  0E00               	movlw	0
  4311   001876  6E41               	movwf	_USBStatusStageEnabledFlag2^0,c	;volatile
  4312   001878                     
  4313                           ;../../../../../../framework/usb/src/usb_device.c: 1655:             USBStatusStageEnabl
      +                          edFlag1 = 0;
  4314   001878  0E00               	movlw	0
  4315   00187A  6E42               	movwf	_USBStatusStageEnabledFlag1^0,c	;volatile
  4316                           
  4317                           ;../../../../../../framework/usb/src/usb_device.c: 1656:         }
  4318   00187C  EFBE  F00C         	goto	i2l356
  4319   001880                     i2l3983:
  4320                           
  4321                           ; BSR set to: 0
  4322                           ;../../../../../../framework/usb/src/usb_device.c: 1658:         {;../../../../../../fra
      +                          mework/usb/src/usb_device.c: 1663:             pBDTEntryEP0OutNext->CNT = 8;
  4323   001880  EE20 F001          	lfsr	2,1
  4324   001884  503A               	movf	_pBDTEntryEP0OutNext^0,w,c
  4325   001886  26D9               	addwf	fsr2l,f,c
  4326   001888  503B               	movf	(_pBDTEntryEP0OutNext+1)^0,w,c
  4327   00188A  22DA               	addwfc	fsr2h,f,c
  4328   00188C  0E08               	movlw	8
  4329   00188E  6EDF               	movwf	indf2,c
  4330                           
  4331                           ;../../../../../../framework/usb/src/usb_device.c: 1664:             pBDTEntryEP0OutNext
      +                          ->ADR = ((uint16_t)(&SetupPkt));
  4332   001890  EE20 F002          	lfsr	2,2
  4333   001894  503A               	movf	_pBDTEntryEP0OutNext^0,w,c
  4334   001896  26D9               	addwf	fsr2l,f,c
  4335   001898  503B               	movf	(_pBDTEntryEP0OutNext+1)^0,w,c
  4336   00189A  22DA               	addwfc	fsr2h,f,c
  4337   00189C  0E20               	movlw	32
  4338   00189E  6EDE               	movwf	postinc2,c
  4339   0018A0  0E04               	movlw	4
  4340   0018A2  6EDD               	movwf	postdec2,c
  4341   0018A4                     
  4342                           ; BSR set to: 0
  4343                           ;../../../../../../framework/usb/src/usb_device.c: 1665:             pBDTEntryEP0OutNext
      +                          ->STAT.Val = 0x00|(0x08 & 0x08)|0x04;
  4344   0018A4  C03A  FFD9         	movff	_pBDTEntryEP0OutNext,fsr2l
  4345   0018A8  C03B  FFDA         	movff	_pBDTEntryEP0OutNext+1,fsr2h
  4346   0018AC  0E0C               	movlw	12
  4347   0018AE  6EDF               	movwf	indf2,c
  4348   0018B0                     
  4349                           ; BSR set to: 0
  4350                           ;../../../../../../framework/usb/src/usb_device.c: 1666:             pBDTEntryEP0OutNext
      +                          ->STAT.Val |= 0x80;
  4351   0018B0  C03A  FFD9         	movff	_pBDTEntryEP0OutNext,fsr2l
  4352   0018B4  C03B  FFDA         	movff	_pBDTEntryEP0OutNext+1,fsr2h
  4353   0018B8  0E00               	movlw	0
  4354   0018BA  8EDB               	bsf	plusw2,7,c
  4355                           
  4356                           ;../../../../../../framework/usb/src/usb_device.c: 1667:             pBDTEntryIn[0]->STA
      +                          T.Val = 0x04;
  4357   0018BC  C06E  FFD9         	movff	_pBDTEntryIn,fsr2l
  4358   0018C0  C06F  FFDA         	movff	_pBDTEntryIn+1,fsr2h
  4359   0018C4  0E04               	movlw	4
  4360   0018C6  6EDF               	movwf	indf2,c
  4361   0018C8                     
  4362                           ; BSR set to: 0
  4363                           ;../../../../../../framework/usb/src/usb_device.c: 1668:             pBDTEntryIn[0]->STA
      +                          T.Val |= 0x80;
  4364   0018C8  C06E  FFD9         	movff	_pBDTEntryIn,fsr2l
  4365   0018CC  C06F  FFDA         	movff	_pBDTEntryIn+1,fsr2h
  4366   0018D0  0E00               	movlw	0
  4367   0018D2  8EDB               	bsf	plusw2,7,c
  4368   0018D4  EFBE  F00C         	goto	i2l356
  4369   0018D8                     i2l346:
  4370                           
  4371                           ; BSR set to: 0
  4372                           ;../../../../../../framework/usb/src/usb_device.c: 1672:     {;../../../../../../framewo
      +                          rk/usb/src/usb_device.c: 1673:   if(SetupPkt.DataDir == (0x80>>7))
  4373   0018D8  0104               	movlb	4	; () banked
  4374   0018DA  AF20               	btfss	32,7,b	;volatile
  4375   0018DC  EF72  F00C         	goto	i2u233_41
  4376   0018E0  EF74  F00C         	goto	i2u233_40
  4377   0018E4                     i2u233_41:
  4378   0018E4  EF90  F00C         	goto	i2l4003
  4379   0018E8                     i2u233_40:
  4380   0018E8                     
  4381                           ; BSR set to: 4
  4382                           ;../../../../../../framework/usb/src/usb_device.c: 1674:   {;../../../../../../framework
      +                          /usb/src/usb_device.c: 1675:    controlTransferState = 1;
  4383   0018E8  0E01               	movlw	1
  4384   0018EA  6E49               	movwf	_controlTransferState^0,c	;volatile
  4385                           
  4386                           ;../../../../../../framework/usb/src/usb_device.c: 1689:    if(USBDeferINDataStagePacket
      +                          s == 0)
  4387   0018EC  5040               	movf	_USBDeferINDataStagePackets^0,w,c	;volatile
  4388   0018EE  A4D8               	btfss	status,2,c
  4389   0018F0  EF7C  F00C         	goto	i2u234_41
  4390   0018F4  EF7E  F00C         	goto	i2u234_40
  4391   0018F8                     i2u234_41:
  4392   0018F8  EF80  F00C         	goto	i2l3995
  4393   0018FC                     i2u234_40:
  4394   0018FC                     
  4395                           ; BSR set to: 4
  4396                           ;../../../../../../framework/usb/src/usb_device.c: 1690:             {;../../../../../..
      +                          /framework/usb/src/usb_device.c: 1691:                 USBCtrlEPAllowDataStage();
  4397   0018FC  EC8F  F012         	call	_USBCtrlEPAllowDataStage	;wreg free
  4398   001900                     i2l3995:
  4399                           
  4400                           ;../../../../../../framework/usb/src/usb_device.c: 1714:             USBStatusStageEnabl
      +                          edFlag2 = 0;
  4401   001900  0E00               	movlw	0
  4402   001902  6E41               	movwf	_USBStatusStageEnabledFlag2^0,c	;volatile
  4403   001904                     
  4404                           ;../../../../../../framework/usb/src/usb_device.c: 1715:             USBStatusStageEnabl
      +                          edFlag1 = 0;
  4405   001904  0E00               	movlw	0
  4406   001906  6E42               	movwf	_USBStatusStageEnabledFlag1^0,c	;volatile
  4407   001908                     
  4408                           ;../../../../../../framework/usb/src/usb_device.c: 1716:             if(USBDeferStatusSt
      +                          agePacket == 0)
  4409   001908  5043               	movf	_USBDeferStatusStagePacket^0,w,c	;volatile
  4410   00190A  A4D8               	btfss	status,2,c
  4411   00190C  EF8A  F00C         	goto	i2u235_41
  4412   001910  EF8C  F00C         	goto	i2u235_40
  4413   001914                     i2u235_41:
  4414   001914  EFBE  F00C         	goto	i2l356
  4415   001918                     i2u235_40:
  4416   001918                     i2l4001:
  4417                           
  4418                           ;../../../../../../framework/usb/src/usb_device.c: 1717:             {;../../../../../..
      +                          /framework/usb/src/usb_device.c: 1718:                 USBCtrlEPAllowStatusStage();
  4419   001918  EC48  F011         	call	_USBCtrlEPAllowStatusStage	;wreg free
  4420   00191C  EFBE  F00C         	goto	i2l356
  4421   001920                     i2l4003:
  4422                           
  4423                           ; BSR set to: 4
  4424                           ;../../../../../../framework/usb/src/usb_device.c: 1722:   {;../../../../../../framework
      +                          /usb/src/usb_device.c: 1733:    controlTransferState = 2;
  4425   001920  0E02               	movlw	2
  4426   001922  6E49               	movwf	_controlTransferState^0,c	;volatile
  4427   001924                     
  4428                           ; BSR set to: 4
  4429                           ;../../../../../../framework/usb/src/usb_device.c: 1736:    pBDTEntryEP0OutNext->CNT = 8
      +                          ;
  4430   001924  EE20 F001          	lfsr	2,1
  4431   001928  503A               	movf	_pBDTEntryEP0OutNext^0,w,c
  4432   00192A  26D9               	addwf	fsr2l,f,c
  4433   00192C  503B               	movf	(_pBDTEntryEP0OutNext+1)^0,w,c
  4434   00192E  22DA               	addwfc	fsr2h,f,c
  4435   001930  0E08               	movlw	8
  4436   001932  6EDF               	movwf	indf2,c
  4437   001934                     
  4438                           ; BSR set to: 4
  4439                           ;../../../../../../framework/usb/src/usb_device.c: 1737:    pBDTEntryEP0OutNext->ADR = (
      +                          (uint16_t)(&SetupPkt));
  4440   001934  EE20 F002          	lfsr	2,2
  4441   001938  503A               	movf	_pBDTEntryEP0OutNext^0,w,c
  4442   00193A  26D9               	addwf	fsr2l,f,c
  4443   00193C  503B               	movf	(_pBDTEntryEP0OutNext+1)^0,w,c
  4444   00193E  22DA               	addwfc	fsr2h,f,c
  4445   001940  0E20               	movlw	32
  4446   001942  6EDE               	movwf	postinc2,c
  4447   001944  0E04               	movlw	4
  4448   001946  6EDD               	movwf	postdec2,c
  4449   001948                     
  4450                           ; BSR set to: 4
  4451                           ;../../../../../../framework/usb/src/usb_device.c: 1738:    pBDTEntryEP0OutNext->STAT.Va
      +                          l = 0x04;
  4452   001948  C03A  FFD9         	movff	_pBDTEntryEP0OutNext,fsr2l
  4453   00194C  C03B  FFDA         	movff	_pBDTEntryEP0OutNext+1,fsr2h
  4454   001950  0E04               	movlw	4
  4455   001952  6EDF               	movwf	indf2,c
  4456   001954                     
  4457                           ; BSR set to: 4
  4458                           ;../../../../../../framework/usb/src/usb_device.c: 1739:             pBDTEntryEP0OutNext
      +                          ->STAT.Val |= 0x80;
  4459   001954  C03A  FFD9         	movff	_pBDTEntryEP0OutNext,fsr2l
  4460   001958  C03B  FFDA         	movff	_pBDTEntryEP0OutNext+1,fsr2h
  4461   00195C  0E00               	movlw	0
  4462   00195E  8EDB               	bsf	plusw2,7,c
  4463   001960                     
  4464                           ; BSR set to: 4
  4465                           ;../../../../../../framework/usb/src/usb_device.c: 1742:             USBStatusStageEnabl
      +                          edFlag2 = 0;
  4466   001960  0E00               	movlw	0
  4467   001962  6E41               	movwf	_USBStatusStageEnabledFlag2^0,c	;volatile
  4468   001964                     
  4469                           ; BSR set to: 4
  4470                           ;../../../../../../framework/usb/src/usb_device.c: 1743:             USBStatusStageEnabl
      +                          edFlag1 = 0;
  4471   001964  0E00               	movlw	0
  4472   001966  6E42               	movwf	_USBStatusStageEnabledFlag1^0,c	;volatile
  4473   001968                     
  4474                           ; BSR set to: 4
  4475                           ;../../../../../../framework/usb/src/usb_device.c: 1744:    if(USBDeferStatusStagePacket
      +                           == 0)
  4476   001968  5043               	movf	_USBDeferStatusStagePacket^0,w,c	;volatile
  4477   00196A  A4D8               	btfss	status,2,c
  4478   00196C  EFBA  F00C         	goto	i2u236_41
  4479   001970  EFBC  F00C         	goto	i2u236_40
  4480   001974                     i2u236_41:
  4481   001974  EFBE  F00C         	goto	i2l356
  4482   001978                     i2u236_40:
  4483   001978  EF8C  F00C         	goto	i2l4001
  4484   00197C                     i2l356:
  4485   00197C  0012               	return		;funcret
  4486   00197E                     __end_of_USBCtrlEPServiceComplete:
  4487                           	callstack 0
  4488                           
  4489 ;; *************** function _USBCtrlEPAllowDataStage *****************
  4490 ;; Defined at:
  4491 ;;		line 1492 in file "../../../../../../framework/usb/src/usb_device.c"
  4492 ;; Parameters:    Size  Location     Type
  4493 ;;		None
  4494 ;; Auto vars:     Size  Location     Type
  4495 ;;		None
  4496 ;; Return value:  Size  Location     Type
  4497 ;;                  1    wreg      void 
  4498 ;; Registers used:
  4499 ;;		wreg, fsr0l, fsr0h, fsr2l, fsr2h, status,2, status,0, tblptrl, tblptrh, tblptru, cstack
  4500 ;; Tracked objects:
  4501 ;;		On entry : 0/0
  4502 ;;		On exit  : 0/0
  4503 ;;		Unchanged: 0/0
  4504 ;; Data sizes:     COMRAM   BANK0   BANK1   BANK2   BANK3   BANK4   BANK5   BANK6   BANK7
  4505 ;;      Params:         0       0       0       0       0       0       0       0       0
  4506 ;;      Locals:         0       0       0       0       0       0       0       0       0
  4507 ;;      Temps:          0       0       0       0       0       0       0       0       0
  4508 ;;      Totals:         0       0       0       0       0       0       0       0       0
  4509 ;;Total ram usage:        0 bytes
  4510 ;; Hardware stack levels used: 1
  4511 ;; Hardware stack levels required when called: 1
  4512 ;; This function calls:
  4513 ;;		_USBCtrlTrfTxService
  4514 ;; This function is called by:
  4515 ;;		_USBCtrlEPServiceComplete
  4516 ;; This function uses a non-reentrant model
  4517 ;;
  4518                           
  4519                           	psect	text25
  4520   00251E                     __ptext25:
  4521                           	callstack 0
  4522   00251E                     _USBCtrlEPAllowDataStage:
  4523                           	callstack 22
  4524   00251E                     
  4525                           ;../../../../../../framework/usb/src/usb_device.c: 1494:     USBDeferINDataStagePackets 
      +                          = 0;
  4526   00251E  0E00               	movlw	0
  4527   002520  6E40               	movwf	_USBDeferINDataStagePackets^0,c	;volatile
  4528                           
  4529                           ;../../../../../../framework/usb/src/usb_device.c: 1495:     USBDeferOUTDataStagePackets
      +                           = 0;
  4530   002522  0E00               	movlw	0
  4531   002524  6E3F               	movwf	_USBDeferOUTDataStagePackets^0,c	;volatile
  4532   002526                     
  4533                           ;../../../../../../framework/usb/src/usb_device.c: 1497:     if(controlTransferState == 
      +                          2)
  4534   002526  0E02               	movlw	2
  4535   002528  1849               	xorwf	_controlTransferState^0,w,c	;volatile
  4536   00252A  A4D8               	btfss	status,2,c
  4537   00252C  EF9A  F012         	goto	i2u196_41
  4538   002530  EF9C  F012         	goto	i2u196_40
  4539   002534                     i2u196_41:
  4540   002534  EFBC  F012         	goto	i2l3765
  4541   002538                     i2u196_40:
  4542   002538                     
  4543                           ;../../../../../../framework/usb/src/usb_device.c: 1498:     {;../../../../../../framewo
      +                          rk/usb/src/usb_device.c: 1500:         pBDTEntryEP0OutNext->CNT = 8;
  4544   002538  EE20 F001          	lfsr	2,1
  4545   00253C  503A               	movf	_pBDTEntryEP0OutNext^0,w,c
  4546   00253E  26D9               	addwf	fsr2l,f,c
  4547   002540  503B               	movf	(_pBDTEntryEP0OutNext+1)^0,w,c
  4548   002542  22DA               	addwfc	fsr2h,f,c
  4549   002544  0E08               	movlw	8
  4550   002546  6EDF               	movwf	indf2,c
  4551                           
  4552                           ;../../../../../../framework/usb/src/usb_device.c: 1501:         pBDTEntryEP0OutNext->AD
      +                          R = ((uint16_t)(&CtrlTrfData));
  4553   002548  EE20 F002          	lfsr	2,2
  4554   00254C  503A               	movf	_pBDTEntryEP0OutNext^0,w,c
  4555   00254E  26D9               	addwf	fsr2l,f,c
  4556   002550  503B               	movf	(_pBDTEntryEP0OutNext+1)^0,w,c
  4557   002552  22DA               	addwfc	fsr2h,f,c
  4558   002554  0E28               	movlw	40
  4559   002556  6EDE               	movwf	postinc2,c
  4560   002558  0E04               	movlw	4
  4561   00255A  6EDD               	movwf	postdec2,c
  4562   00255C                     
  4563                           ;../../../../../../framework/usb/src/usb_device.c: 1502:         pBDTEntryEP0OutNext->ST
      +                          AT.Val = 0x40|(0x08 & 0x08);
  4564   00255C  C03A  FFD9         	movff	_pBDTEntryEP0OutNext,fsr2l
  4565   002560  C03B  FFDA         	movff	_pBDTEntryEP0OutNext+1,fsr2h
  4566   002564  0E48               	movlw	72
  4567   002566  6EDF               	movwf	indf2,c
  4568   002568                     
  4569                           ;../../../../../../framework/usb/src/usb_device.c: 1503:         pBDTEntryEP0OutNext->ST
      +                          AT.Val |= 0x80;
  4570   002568  C03A  FFD9         	movff	_pBDTEntryEP0OutNext,fsr2l
  4571   00256C  C03B  FFDA         	movff	_pBDTEntryEP0OutNext+1,fsr2h
  4572   002570  0E00               	movlw	0
  4573   002572  8EDB               	bsf	plusw2,7,c
  4574                           
  4575                           ;../../../../../../framework/usb/src/usb_device.c: 1504:     }
  4576   002574  EFE8  F012         	goto	i2l338
  4577   002578                     i2l3765:
  4578                           
  4579                           ;../../../../../../framework/usb/src/usb_device.c: 1506:     {;../../../../../../framewo
      +                          rk/usb/src/usb_device.c: 1509:   if(SetupPkt.wLength < inPipes[0].wCount.Val)
  4580   002578  0100               	movlb	0	; () banked
  4581   00257A  516C               	movf	(_inPipes+4)& (0+255),w,b	;volatile
  4582   00257C  0104               	movlb	4	; () banked
  4583   00257E  5D26               	subwf	38,w,b	;volatile
  4584   002580  0100               	movlb	0	; () banked
  4585   002582  516D               	movf	(_inPipes+5)& (0+255),w,b	;volatile
  4586   002584  0104               	movlb	4	; () banked
  4587   002586  5927               	subwfb	39,w,b	;volatile
  4588   002588  B0D8               	btfsc	status,0,c
  4589   00258A  EFC9  F012         	goto	i2u197_41
  4590   00258E  EFCB  F012         	goto	i2u197_40
  4591   002592                     i2u197_41:
  4592   002592  EFCF  F012         	goto	i2l3769
  4593   002596                     i2u197_40:
  4594   002596                     
  4595                           ; BSR set to: 4
  4596                           ;../../../../../../framework/usb/src/usb_device.c: 1510:   {;../../../../../../framework
      +                          /usb/src/usb_device.c: 1511:    inPipes[0].wCount.Val = SetupPkt.wLength;
  4597   002596  C426 F06C          	movff	1062,_inPipes+4	;volatile
  4598   00259A  C427 F06D          	movff	1063,_inPipes+5	;volatile
  4599   00259E                     i2l3769:
  4600                           
  4601                           ; BSR set to: 4
  4602                           ;../../../../../../framework/usb/src/usb_device.c: 1513:   USBCtrlTrfTxService();
  4603   00259E  ECC1  F00F         	call	_USBCtrlTrfTxService	;wreg free
  4604   0025A2                     
  4605                           ;../../../../../../framework/usb/src/usb_device.c: 1518:   pBDTEntryIn[0]->ADR = ((uint1
      +                          6_t)(&CtrlTrfData));
  4606   0025A2  0100               	movlb	0	; () banked
  4607   0025A4  EE20 F002          	lfsr	2,2
  4608   0025A8  516E               	movf	_pBDTEntryIn& (0+255),w,b
  4609   0025AA  26D9               	addwf	fsr2l,f,c
  4610   0025AC  516F               	movf	(_pBDTEntryIn+1)& (0+255),w,b
  4611   0025AE  22DA               	addwfc	fsr2h,f,c
  4612   0025B0  0E28               	movlw	40
  4613   0025B2  6EDE               	movwf	postinc2,c
  4614   0025B4  0E04               	movlw	4
  4615   0025B6  6EDD               	movwf	postdec2,c
  4616   0025B8                     
  4617                           ; BSR set to: 0
  4618                           ;../../../../../../framework/usb/src/usb_device.c: 1519:   pBDTEntryIn[0]->STAT.Val = 0x
      +                          40|(0x08 & 0x08);
  4619   0025B8  C06E  FFD9         	movff	_pBDTEntryIn,fsr2l
  4620   0025BC  C06F  FFDA         	movff	_pBDTEntryIn+1,fsr2h
  4621   0025C0  0E48               	movlw	72
  4622   0025C2  6EDF               	movwf	indf2,c
  4623   0025C4                     
  4624                           ; BSR set to: 0
  4625                           ;../../../../../../framework/usb/src/usb_device.c: 1520:         pBDTEntryIn[0]->STAT.Va
      +                          l |= 0x80;
  4626   0025C4  C06E  FFD9         	movff	_pBDTEntryIn,fsr2l
  4627   0025C8  C06F  FFDA         	movff	_pBDTEntryIn+1,fsr2h
  4628   0025CC  0E00               	movlw	0
  4629   0025CE  8EDB               	bsf	plusw2,7,c
  4630   0025D0                     i2l338:
  4631   0025D0  0012               	return		;funcret
  4632   0025D2                     __end_of_USBCtrlEPAllowDataStage:
  4633                           	callstack 0
  4634                           
  4635 ;; *************** function _USBCheckStdRequest *****************
  4636 ;; Defined at:
  4637 ;;		line 2693 in file "../../../../../../framework/usb/src/usb_device.c"
  4638 ;; Parameters:    Size  Location     Type
  4639 ;;		None
  4640 ;; Auto vars:     Size  Location     Type
  4641 ;;		None
  4642 ;; Return value:  Size  Location     Type
  4643 ;;                  1    wreg      void 
  4644 ;; Registers used:
  4645 ;;		wreg, fsr0l, fsr0h, fsr2l, fsr2h, status,2, status,0, tblptrl, tblptrh, tblptru, prodl, prodh, cstack
  4646 ;; Tracked objects:
  4647 ;;		On entry : 0/0
  4648 ;;		On exit  : 0/0
  4649 ;;		Unchanged: 0/0
  4650 ;; Data sizes:     COMRAM   BANK0   BANK1   BANK2   BANK3   BANK4   BANK5   BANK6   BANK7
  4651 ;;      Params:         0       0       0       0       0       0       0       0       0
  4652 ;;      Locals:         0       0       0       0       0       0       0       0       0
  4653 ;;      Temps:          2       0       0       0       0       0       0       0       0
  4654 ;;      Totals:         2       0       0       0       0       0       0       0       0
  4655 ;;Total ram usage:        2 bytes
  4656 ;; Hardware stack levels used: 1
  4657 ;; Hardware stack levels required when called: 5
  4658 ;; This function calls:
  4659 ;;		_USBStdFeatureReqHandler
  4660 ;;		_USBStdGetDscHandler
  4661 ;;		_USBStdGetStatusHandler
  4662 ;;		_USBStdSetCfgHandler
  4663 ;;		_USER_USB_CALLBACK_EVENT_HANDLER
  4664 ;; This function is called by:
  4665 ;;		_USBCtrlTrfSetupHandler
  4666 ;; This function uses a non-reentrant model
  4667 ;;
  4668                           
  4669                           	psect	text26
  4670   001D3A                     __ptext26:
  4671                           	callstack 0
  4672   001D3A                     _USBCheckStdRequest:
  4673                           	callstack 19
  4674   001D3A                     
  4675                           ;../../../../../../framework/usb/src/usb_device.c: 2695:     if(SetupPkt.RequestType != 
      +                          (0x00>>5)) return;
  4676   001D3A  0104               	movlb	4	; () banked
  4677   001D3C  3920               	swapf	32,w,b	;volatile
  4678   001D3E  32E8               	rrcf	wreg,f,c
  4679   001D40  0B03               	andlw	3
  4680   001D42  0900               	iorlw	0
  4681   001D44  B4D8               	btfsc	status,2,c
  4682   001D46  EFA7  F00E         	goto	i2u242_41
  4683   001D4A  EFA9  F00E         	goto	i2u242_40
  4684   001D4E                     i2u242_41:
  4685   001D4E  EFF6  F00E         	goto	i2l4101
  4686   001D52                     i2u242_40:
  4687   001D52  EF2F  F00F         	goto	i2l470
  4688   001D56                     i2l472:
  4689                           
  4690                           ; BSR set to: 4
  4691                           ;../../../../../../framework/usb/src/usb_device.c: 2700:             inPipes[0].info.bit
      +                          s.busy = 1;
  4692   001D56  0100               	movlb	0	; () banked
  4693   001D58  8F6B               	bsf	(_inPipes+3)& (0+255),7,b	;volatile
  4694   001D5A                     
  4695                           ; BSR set to: 0
  4696                           ;../../../../../../framework/usb/src/usb_device.c: 2701:             USBDeviceState = AD
      +                          R_PENDING_STATE;
  4697   001D5A  0E08               	movlw	8
  4698   001D5C  6E4B               	movwf	_USBDeviceState^0,c	;volatile
  4699                           
  4700                           ;../../../../../../framework/usb/src/usb_device.c: 2703:             break;
  4701   001D5E  EF2F  F00F         	goto	i2l470
  4702   001D62                     i2l4071:
  4703                           
  4704                           ; BSR set to: 4
  4705                           ;../../../../../../framework/usb/src/usb_device.c: 2705:             USBStdGetDscHandler
      +                          ();
  4706   001D62  EC67  F009         	call	_USBStdGetDscHandler	;wreg free
  4707                           
  4708                           ;../../../../../../framework/usb/src/usb_device.c: 2706:             break;
  4709   001D66  EF2F  F00F         	goto	i2l470
  4710   001D6A                     i2l4073:
  4711                           
  4712                           ; BSR set to: 4
  4713                           ;../../../../../../framework/usb/src/usb_device.c: 2708:             USBStdSetCfgHandler
      +                          ();
  4714   001D6A  ECC0  F011         	call	_USBStdSetCfgHandler	;wreg free
  4715                           
  4716                           ;../../../../../../framework/usb/src/usb_device.c: 2709:             break;
  4717   001D6E  EF2F  F00F         	goto	i2l470
  4718   001D72                     i2l4075:
  4719                           
  4720                           ; BSR set to: 4
  4721                           ;../../../../../../framework/usb/src/usb_device.c: 2711:             inPipes[0].pSrc.bRa
      +                          m = (uint8_t*)&USBActiveConfiguration;
  4722   001D72  0E50               	movlw	low _USBActiveConfiguration
  4723   001D74  0100               	movlb	0	; () banked
  4724   001D76  6F68               	movwf	_inPipes& (0+255),b	;volatile
  4725   001D78  0E00               	movlw	high _USBActiveConfiguration
  4726   001D7A  6F69               	movwf	(_inPipes+1)& (0+255),b	;volatile
  4727   001D7C                     
  4728                           ; BSR set to: 0
  4729                           ;../../../../../../framework/usb/src/usb_device.c: 2712:             inPipes[0].info.bit
      +                          s.ctrl_trf_mem = 0x01;
  4730   001D7C  816B               	bsf	(_inPipes+3)& (0+255),0,b	;volatile
  4731   001D7E                     
  4732                           ; BSR set to: 0
  4733                           ;../../../../../../framework/usb/src/usb_device.c: 2713:             inPipes[0].wCount.v
      +                          [0] = 1;
  4734   001D7E  0E01               	movlw	1
  4735   001D80  6F6C               	movwf	(_inPipes+4)& (0+255),b	;volatile
  4736   001D82                     
  4737                           ; BSR set to: 0
  4738                           ;../../../../../../framework/usb/src/usb_device.c: 2714:             inPipes[0].info.bit
      +                          s.busy = 1;
  4739   001D82  8F6B               	bsf	(_inPipes+3)& (0+255),7,b	;volatile
  4740                           
  4741                           ;../../../../../../framework/usb/src/usb_device.c: 2715:             break;
  4742   001D84  EF2F  F00F         	goto	i2l470
  4743   001D88                     i2l4083:
  4744                           
  4745                           ; BSR set to: 4
  4746                           ;../../../../../../framework/usb/src/usb_device.c: 2717:             USBStdGetStatusHand
      +                          ler();
  4747   001D88  EC30  F00F         	call	_USBStdGetStatusHandler	;wreg free
  4748                           
  4749                           ;../../../../../../framework/usb/src/usb_device.c: 2718:             break;
  4750   001D8C  EF2F  F00F         	goto	i2l470
  4751   001D90                     i2l4085:
  4752                           
  4753                           ; BSR set to: 4
  4754                           ;../../../../../../framework/usb/src/usb_device.c: 2721:             USBStdFeatureReqHan
      +                          dler();
  4755   001D90  EC64  F004         	call	_USBStdFeatureReqHandler	;wreg free
  4756                           
  4757                           ;../../../../../../framework/usb/src/usb_device.c: 2722:             break;
  4758   001D94  EF2F  F00F         	goto	i2l470
  4759   001D98                     i2l4087:
  4760                           
  4761                           ; BSR set to: 4
  4762                           ;../../../../../../framework/usb/src/usb_device.c: 2724:             inPipes[0].pSrc.bRa
      +                          m = (uint8_t*)&USBAlternateInterface[SetupPkt.bIntfID];
  4763   001D98  0E4F               	movlw	low _USBAlternateInterface
  4764   001D9A  2524               	addwf	36,w,b	;volatile
  4765   001D9C  0100               	movlb	0	; () banked
  4766   001D9E  6F68               	movwf	_inPipes& (0+255),b	;volatile
  4767   001DA0  6B69               	clrf	(_inPipes+1)& (0+255),b	;volatile
  4768   001DA2  0E00               	movlw	high _USBAlternateInterface
  4769   001DA4  2369               	addwfc	(_inPipes+1)& (0+255),f,b	;volatile
  4770   001DA6                     
  4771                           ; BSR set to: 0
  4772                           ;../../../../../../framework/usb/src/usb_device.c: 2725:             inPipes[0].info.bit
      +                          s.ctrl_trf_mem = 0x01;
  4773   001DA6  816B               	bsf	(_inPipes+3)& (0+255),0,b	;volatile
  4774   001DA8                     
  4775                           ; BSR set to: 0
  4776                           ;../../../../../../framework/usb/src/usb_device.c: 2726:             inPipes[0].wCount.v
      +                          [0] = 1;
  4777   001DA8  0E01               	movlw	1
  4778   001DAA  6F6C               	movwf	(_inPipes+4)& (0+255),b	;volatile
  4779   001DAC                     
  4780                           ; BSR set to: 0
  4781                           ;../../../../../../framework/usb/src/usb_device.c: 2727:             inPipes[0].info.bit
      +                          s.busy = 1;
  4782   001DAC  8F6B               	bsf	(_inPipes+3)& (0+255),7,b	;volatile
  4783                           
  4784                           ;../../../../../../framework/usb/src/usb_device.c: 2728:             break;
  4785   001DAE  EF2F  F00F         	goto	i2l470
  4786   001DB2                     i2l481:
  4787                           
  4788                           ; BSR set to: 4
  4789                           ;../../../../../../framework/usb/src/usb_device.c: 2730:             inPipes[0].info.bit
      +                          s.busy = 1;
  4790   001DB2  0100               	movlb	0	; () banked
  4791   001DB4  8F6B               	bsf	(_inPipes+3)& (0+255),7,b	;volatile
  4792   001DB6                     
  4793                           ; BSR set to: 0
  4794                           ;../../../../../../framework/usb/src/usb_device.c: 2731:             USBAlternateInterfa
      +                          ce[SetupPkt.bIntfID] = SetupPkt.bAltID;
  4795   001DB6  0E4F               	movlw	low _USBAlternateInterface
  4796   001DB8  0104               	movlb	4	; () banked
  4797   001DBA  2524               	addwf	36,w,b	;volatile
  4798   001DBC  6ED9               	movwf	fsr2l,c
  4799   001DBE  6ADA               	clrf	fsr2h,c
  4800   001DC0  0E00               	movlw	high _USBAlternateInterface
  4801   001DC2  22DA               	addwfc	fsr2h,f,c
  4802   001DC4  C422 FFDF          	movff	1058,indf2	;volatile
  4803                           
  4804                           ;../../../../../../framework/usb/src/usb_device.c: 2732:             break;
  4805   001DC8  EF2F  F00F         	goto	i2l470
  4806   001DCC                     i2l4097:
  4807                           
  4808                           ; BSR set to: 4
  4809                           ;../../../../../../framework/usb/src/usb_device.c: 2734:             USER_USB_CALLBACK_E
      +                          VENT_HANDLER((USB_EVENT)EVENT_SET_DESCRIPTOR,0,0);
  4810   001DCC  0E00               	movlw	0
  4811   001DCE  6E10               	movwf	(USER_USB_CALLBACK_EVENT_HANDLER@event+1)^0,c
  4812   001DD0  0E02               	movlw	2
  4813   001DD2  6E0F               	movwf	USER_USB_CALLBACK_EVENT_HANDLER@event^0,c
  4814   001DD4  0E00               	movlw	0
  4815   001DD6  6E11               	movwf	USER_USB_CALLBACK_EVENT_HANDLER@pdata^0,c
  4816   001DD8  0E00               	movlw	0
  4817   001DDA  6E12               	movwf	(USER_USB_CALLBACK_EVENT_HANDLER@pdata+1)^0,c
  4818   001DDC  0E00               	movlw	0
  4819   001DDE  6E14               	movwf	(USER_USB_CALLBACK_EVENT_HANDLER@size+1)^0,c
  4820   001DE0  0E00               	movlw	0
  4821   001DE2  6E13               	movwf	USER_USB_CALLBACK_EVENT_HANDLER@size^0,c
  4822   001DE4  EC41  F013         	call	_USER_USB_CALLBACK_EVENT_HANDLER	;wreg free
  4823                           
  4824                           ;../../../../../../framework/usb/src/usb_device.c: 2735:             break;
  4825   001DE8  EF2F  F00F         	goto	i2l470
  4826   001DEC                     i2l4101:
  4827                           
  4828                           ; BSR set to: 4
  4829   001DEC  5121               	movf	33,w,b	;volatile
  4830   001DEE  6E1E               	movwf	??_USBCheckStdRequest^0,c
  4831   001DF0  6A1F               	clrf	(??_USBCheckStdRequest+1)^0,c
  4832                           
  4833                           ; Switch on 2 bytes has been partitioned into a top level switch of size 1, and 1 sub-sw
      +                          itches
  4834                           ; Switch size 1, requested type "simple"
  4835                           ; Number of cases is 1, Range of values is 0 to 0
  4836                           ; switch strategies available:
  4837                           ; Name         Instructions Cycles
  4838                           ; simple_byte            4     3 (average)
  4839                           ;	Chosen strategy is simple_byte
  4840   001DF2  501F               	movf	(??_USBCheckStdRequest+1)^0,w,c
  4841   001DF4  0A00               	xorlw	0	; case 0
  4842   001DF6  B4D8               	btfsc	status,2,c
  4843   001DF8  EF00  F00F         	goto	i2l5961
  4844   001DFC  EF2F  F00F         	goto	i2l470
  4845   001E00                     i2l5961:
  4846                           
  4847                           ; BSR set to: 4
  4848                           ; Switch size 1, requested type "simple"
  4849                           ; Number of cases is 11, Range of values is 0 to 12
  4850                           ; switch strategies available:
  4851                           ; Name         Instructions Cycles
  4852                           ; simple_byte           34    18 (average)
  4853                           ;	Chosen strategy is simple_byte
  4854   001E00  501E               	movf	??_USBCheckStdRequest^0,w,c
  4855   001E02  0A00               	xorlw	0	; case 0
  4856   001E04  B4D8               	btfsc	status,2,c
  4857   001E06  EFC4  F00E         	goto	i2l4083
  4858   001E0A  0A01               	xorlw	1	; case 1
  4859   001E0C  B4D8               	btfsc	status,2,c
  4860   001E0E  EFC8  F00E         	goto	i2l4085
  4861   001E12  0A02               	xorlw	2	; case 3
  4862   001E14  B4D8               	btfsc	status,2,c
  4863   001E16  EFC8  F00E         	goto	i2l4085
  4864   001E1A  0A06               	xorlw	6	; case 5
  4865   001E1C  B4D8               	btfsc	status,2,c
  4866   001E1E  EFAB  F00E         	goto	i2l472
  4867   001E22  0A03               	xorlw	3	; case 6
  4868   001E24  B4D8               	btfsc	status,2,c
  4869   001E26  EFB1  F00E         	goto	i2l4071
  4870   001E2A  0A01               	xorlw	1	; case 7
  4871   001E2C  B4D8               	btfsc	status,2,c
  4872   001E2E  EFE6  F00E         	goto	i2l4097
  4873   001E32  0A0F               	xorlw	15	; case 8
  4874   001E34  B4D8               	btfsc	status,2,c
  4875   001E36  EFB9  F00E         	goto	i2l4075
  4876   001E3A  0A01               	xorlw	1	; case 9
  4877   001E3C  B4D8               	btfsc	status,2,c
  4878   001E3E  EFB5  F00E         	goto	i2l4073
  4879   001E42  0A03               	xorlw	3	; case 10
  4880   001E44  B4D8               	btfsc	status,2,c
  4881   001E46  EFCC  F00E         	goto	i2l4087
  4882   001E4A  0A01               	xorlw	1	; case 11
  4883   001E4C  B4D8               	btfsc	status,2,c
  4884   001E4E  EFD9  F00E         	goto	i2l481
  4885   001E52  0A07               	xorlw	7	; case 12
  4886   001E54  B4D8               	btfsc	status,2,c
  4887   001E56  EF2F  F00F         	goto	i2l470
  4888   001E5A  EF2F  F00F         	goto	i2l470
  4889   001E5E                     i2l470:
  4890   001E5E  0012               	return		;funcret
  4891   001E60                     __end_of_USBCheckStdRequest:
  4892                           	callstack 0
  4893                           
  4894 ;; *************** function _USBStdSetCfgHandler *****************
  4895 ;; Defined at:
  4896 ;;		line 1972 in file "../../../../../../framework/usb/src/usb_device.c"
  4897 ;; Parameters:    Size  Location     Type
  4898 ;;		None
  4899 ;; Auto vars:     Size  Location     Type
  4900 ;;  i               1   22[COMRAM] unsigned char 
  4901 ;; Return value:  Size  Location     Type
  4902 ;;                  1    wreg      void 
  4903 ;; Registers used:
  4904 ;;		wreg, fsr2l, fsr2h, status,2, status,0, prodl, prodh, cstack
  4905 ;; Tracked objects:
  4906 ;;		On entry : 0/0
  4907 ;;		On exit  : 0/0
  4908 ;;		Unchanged: 0/0
  4909 ;; Data sizes:     COMRAM   BANK0   BANK1   BANK2   BANK3   BANK4   BANK5   BANK6   BANK7
  4910 ;;      Params:         0       0       0       0       0       0       0       0       0
  4911 ;;      Locals:         1       0       0       0       0       0       0       0       0
  4912 ;;      Temps:          0       0       0       0       0       0       0       0       0
  4913 ;;      Totals:         1       0       0       0       0       0       0       0       0
  4914 ;;Total ram usage:        1 bytes
  4915 ;; Hardware stack levels used: 1
  4916 ;; Hardware stack levels required when called: 4
  4917 ;; This function calls:
  4918 ;;		_USER_USB_CALLBACK_EVENT_HANDLER
  4919 ;;		i2_memset
  4920 ;; This function is called by:
  4921 ;;		_USBCheckStdRequest
  4922 ;; This function uses a non-reentrant model
  4923 ;;
  4924                           
  4925                           	psect	text27
  4926   002380                     __ptext27:
  4927                           	callstack 0
  4928   002380                     _USBStdSetCfgHandler:
  4929                           	callstack 19
  4930   002380                     
  4931                           ;../../../../../../framework/usb/src/usb_device.c: 1974:     uint8_t i;;../../../../../.
      +                          ./framework/usb/src/usb_device.c: 1977:     inPipes[0].info.bits.busy = 1;
  4932   002380  0100               	movlb	0	; () banked
  4933   002382  8F6B               	bsf	(_inPipes+3)& (0+255),7,b	;volatile
  4934   002384                     
  4935                           ; BSR set to: 0
  4936                           ;../../../../../../framework/usb/src/usb_device.c: 1980:     memset((void*)&UEP1,0x00,(1
      +                          ));;
  4937   002384  0E71               	movlw	113
  4938   002386  6E01               	movwf	i2memset@dest^0,c
  4939   002388  0E0F               	movlw	15
  4940   00238A  6E02               	movwf	(i2memset@dest+1)^0,c
  4941   00238C  0E00               	movlw	0
  4942   00238E  6E04               	movwf	(i2memset@c+1)^0,c
  4943   002390  0E00               	movlw	0
  4944   002392  6E03               	movwf	i2memset@c^0,c
  4945   002394  0E00               	movlw	0
  4946   002396  6E06               	movwf	(i2memset@n+1)^0,c
  4947   002398  0E01               	movlw	1
  4948   00239A  6E05               	movwf	i2memset@n^0,c
  4949   00239C  ECAC  F008         	call	i2_memset	;wreg free
  4950                           
  4951                           ;../../../../../../framework/usb/src/usb_device.c: 1983:     memset((void*)&BDT[0], 0x00
      +                          , sizeof(BDT));
  4952   0023A0  0E00               	movlw	0
  4953   0023A2  6E01               	movwf	i2memset@dest^0,c
  4954   0023A4  0E04               	movlw	4
  4955   0023A6  6E02               	movwf	(i2memset@dest+1)^0,c
  4956   0023A8  0E00               	movlw	0
  4957   0023AA  6E04               	movwf	(i2memset@c+1)^0,c
  4958   0023AC  0E00               	movlw	0
  4959   0023AE  6E03               	movwf	i2memset@c^0,c
  4960   0023B0  0E00               	movlw	0
  4961   0023B2  6E06               	movwf	(i2memset@n+1)^0,c
  4962   0023B4  0E20               	movlw	32
  4963   0023B6  6E05               	movwf	i2memset@n^0,c
  4964   0023B8  ECAC  F008         	call	i2_memset	;wreg free
  4965   0023BC                     
  4966                           ;../../../../../../framework/usb/src/usb_device.c: 1986:     UCONbits.PPBRST = 1;
  4967   0023BC  8C6D               	bsf	109,6,c	;volatile
  4968   0023BE                     
  4969                           ;../../../../../../framework/usb/src/usb_device.c: 1991:  for(i = 0; i < (uint8_t)(1 +1u
      +                          ); i++)
  4970   0023BE  0E00               	movlw	0
  4971   0023C0  6E17               	movwf	USBStdSetCfgHandler@i^0,c
  4972   0023C2                     i2l3789:
  4973                           
  4974                           ;../../../../../../framework/usb/src/usb_device.c: 1992:  {;../../../../../../framework/
      +                          usb/src/usb_device.c: 1993:   ep_data_in[i].Val = 0u;
  4975   0023C2  0E7C               	movlw	low _ep_data_in
  4976   0023C4  2417               	addwf	USBStdSetCfgHandler@i^0,w,c
  4977   0023C6  6ED9               	movwf	fsr2l,c
  4978   0023C8  6ADA               	clrf	fsr2h,c
  4979   0023CA  0E00               	movlw	high _ep_data_in
  4980   0023CC  22DA               	addwfc	fsr2h,f,c
  4981   0023CE  6ADF               	clrf	indf2,c
  4982                           
  4983                           ;../../../../../../framework/usb/src/usb_device.c: 1994:         ep_data_out[i].Val = 0u
      +                          ;
  4984   0023D0  0E7A               	movlw	low _ep_data_out
  4985   0023D2  2417               	addwf	USBStdSetCfgHandler@i^0,w,c
  4986   0023D4  6ED9               	movwf	fsr2l,c
  4987   0023D6  6ADA               	clrf	fsr2h,c
  4988   0023D8  0E00               	movlw	high _ep_data_out
  4989   0023DA  22DA               	addwfc	fsr2h,f,c
  4990   0023DC  6ADF               	clrf	indf2,c
  4991   0023DE                     
  4992                           ;../../../../../../framework/usb/src/usb_device.c: 1995:  }
  4993   0023DE  2A17               	incf	USBStdSetCfgHandler@i^0,f,c
  4994   0023E0  0E01               	movlw	1
  4995   0023E2  6417               	cpfsgt	USBStdSetCfgHandler@i^0,c
  4996   0023E4  EFF6  F011         	goto	i2u198_41
  4997   0023E8  EFF8  F011         	goto	i2u198_40
  4998   0023EC                     i2u198_41:
  4999   0023EC  EFE1  F011         	goto	i2l3789
  5000   0023F0                     i2u198_40:
  5001   0023F0                     
  5002                           ;../../../../../../framework/usb/src/usb_device.c: 1998:     memset((void*)&USBAlternate
      +                          Interface,0x00,1);
  5003   0023F0  0E4F               	movlw	low _USBAlternateInterface
  5004   0023F2  6E01               	movwf	i2memset@dest^0,c
  5005   0023F4  0E00               	movlw	high _USBAlternateInterface
  5006   0023F6  6E02               	movwf	(i2memset@dest+1)^0,c
  5007   0023F8  0E00               	movlw	0
  5008   0023FA  6E04               	movwf	(i2memset@c+1)^0,c
  5009   0023FC  0E00               	movlw	0
  5010   0023FE  6E03               	movwf	i2memset@c^0,c
  5011   002400  0E00               	movlw	0
  5012   002402  6E06               	movwf	(i2memset@n+1)^0,c
  5013   002404  0E01               	movlw	1
  5014   002406  6E05               	movwf	i2memset@n^0,c
  5015   002408  ECAC  F008         	call	i2_memset	;wreg free
  5016   00240C                     
  5017                           ;../../../../../../framework/usb/src/usb_device.c: 2001:     UCONbits.PPBRST = 0;
  5018   00240C  9C6D               	bcf	109,6,c	;volatile
  5019   00240E                     
  5020                           ;../../../../../../framework/usb/src/usb_device.c: 2003:     pBDTEntryIn[0] = (volatile 
      +                          BDT_ENTRY*)&BDT[2];
  5021   00240E  0E08               	movlw	8
  5022   002410  0100               	movlb	0	; () banked
  5023   002412  6F6E               	movwf	_pBDTEntryIn& (0+255),b
  5024   002414  0E04               	movlw	4
  5025   002416  6F6F               	movwf	(_pBDTEntryIn+1)& (0+255),b
  5026   002418                     
  5027                           ; BSR set to: 0
  5028                           ;../../../../../../framework/usb/src/usb_device.c: 2006:     pBDTEntryEP0OutCurrent = (v
      +                          olatile BDT_ENTRY*)&BDT[0];
  5029   002418  0E00               	movlw	0
  5030   00241A  6E3C               	movwf	_pBDTEntryEP0OutCurrent^0,c
  5031   00241C  0E04               	movlw	4
  5032   00241E  6E3D               	movwf	(_pBDTEntryEP0OutCurrent+1)^0,c
  5033   002420                     
  5034                           ; BSR set to: 0
  5035                           ;../../../../../../framework/usb/src/usb_device.c: 2007:     pBDTEntryEP0OutNext = pBDTE
      +                          ntryEP0OutCurrent;
  5036   002420  C03C  F03A         	movff	_pBDTEntryEP0OutCurrent,_pBDTEntryEP0OutNext
  5037   002424  C03D  F03B         	movff	_pBDTEntryEP0OutCurrent+1,_pBDTEntryEP0OutNext+1
  5038   002428                     
  5039                           ; BSR set to: 0
  5040                           ;../../../../../../framework/usb/src/usb_device.c: 2010:     USBActiveConfiguration = Se
      +                          tupPkt.bConfigurationValue;
  5041   002428  C422 F050          	movff	1058,_USBActiveConfiguration	;volatile
  5042   00242C                     
  5043                           ; BSR set to: 0
  5044                           ;../../../../../../framework/usb/src/usb_device.c: 2013:     if(USBActiveConfiguration =
      +                          = 0)
  5045   00242C  5050               	movf	_USBActiveConfiguration^0,w,c	;volatile
  5046   00242E  A4D8               	btfss	status,2,c
  5047   002430  EF1C  F012         	goto	i2u199_41
  5048   002434  EF1E  F012         	goto	i2u199_40
  5049   002438                     i2u199_41:
  5050   002438  EF22  F012         	goto	i2l3811
  5051   00243C                     i2u199_40:
  5052   00243C                     
  5053                           ; BSR set to: 0
  5054                           ;../../../../../../framework/usb/src/usb_device.c: 2014:     {;../../../../../../framewo
      +                          rk/usb/src/usb_device.c: 2016:         USBDeviceState = ADDRESS_STATE;
  5055   00243C  0E10               	movlw	16
  5056   00243E  6E4B               	movwf	_USBDeviceState^0,c	;volatile
  5057                           
  5058                           ;../../../../../../framework/usb/src/usb_device.c: 2017:     }
  5059   002440  EF32  F012         	goto	i2l391
  5060   002444                     i2l3811:
  5061                           
  5062                           ; BSR set to: 0
  5063                           ;../../../../../../framework/usb/src/usb_device.c: 2019:     {;../../../../../../framewo
      +                          rk/usb/src/usb_device.c: 2021:         USER_USB_CALLBACK_EVENT_HANDLER((USB_EVENT)EVENT_
      +                          CONFIGURED,(void*)&USBActiveConfiguration,1);
  5064   002444  0E00               	movlw	0
  5065   002446  6E10               	movwf	(USER_USB_CALLBACK_EVENT_HANDLER@event+1)^0,c
  5066   002448  0E01               	movlw	1
  5067   00244A  6E0F               	movwf	USER_USB_CALLBACK_EVENT_HANDLER@event^0,c
  5068   00244C  0E50               	movlw	low _USBActiveConfiguration
  5069   00244E  6E11               	movwf	USER_USB_CALLBACK_EVENT_HANDLER@pdata^0,c
  5070   002450  0E00               	movlw	high _USBActiveConfiguration
  5071   002452  6E12               	movwf	(USER_USB_CALLBACK_EVENT_HANDLER@pdata+1)^0,c
  5072   002454  0E00               	movlw	0
  5073   002456  6E14               	movwf	(USER_USB_CALLBACK_EVENT_HANDLER@size+1)^0,c
  5074   002458  0E01               	movlw	1
  5075   00245A  6E13               	movwf	USER_USB_CALLBACK_EVENT_HANDLER@size^0,c
  5076   00245C  EC41  F013         	call	_USER_USB_CALLBACK_EVENT_HANDLER	;wreg free
  5077   002460                     
  5078                           ;../../../../../../framework/usb/src/usb_device.c: 2026:         USBDeviceState = CONFIG
      +                          URED_STATE;
  5079   002460  0E20               	movlw	32
  5080   002462  6E4B               	movwf	_USBDeviceState^0,c	;volatile
  5081   002464                     i2l391:
  5082   002464  0012               	return		;funcret
  5083   002466                     __end_of_USBStdSetCfgHandler:
  5084                           	callstack 0
  5085                           
  5086 ;; *************** function i2_memset *****************
  5087 ;; Defined at:
  5088 ;;		line 4 in file "C:\Program Files\Microchip\xc8\v2.41\pic\sources\c99\common\memset.c"
  5089 ;; Parameters:    Size  Location     Type
  5090 ;;  dest            2    0[COMRAM] PTR void 
  5091 ;;		 -> USBAlternateInterface(1), BDT(32), UEP1(1), 
  5092 ;;  c               2    2[COMRAM] int 
  5093 ;;  n               2    4[COMRAM] unsigned int 
  5094 ;; Auto vars:     Size  Location     Type
  5095 ;;  s               2   10[COMRAM] PTR unsigned char 
  5096 ;;		 -> USBAlternateInterface(1), BDT(32), UEP1(1), 
  5097 ;;  k               2    8[COMRAM] unsigned int 
  5098 ;; Return value:  Size  Location     Type
  5099 ;;                  2    0[COMRAM] PTR void 
  5100 ;; Registers used:
  5101 ;;		wreg, fsr2l, fsr2h, status,2, status,0
  5102 ;; Tracked objects:
  5103 ;;		On entry : 0/0
  5104 ;;		On exit  : 0/0
  5105 ;;		Unchanged: 0/0
  5106 ;; Data sizes:     COMRAM   BANK0   BANK1   BANK2   BANK3   BANK4   BANK5   BANK6   BANK7
  5107 ;;      Params:         6       0       0       0       0       0       0       0       0
  5108 ;;      Locals:         4       0       0       0       0       0       0       0       0
  5109 ;;      Temps:          2       0       0       0       0       0       0       0       0
  5110 ;;      Totals:        12       0       0       0       0       0       0       0       0
  5111 ;;Total ram usage:       12 bytes
  5112 ;; Hardware stack levels used: 1
  5113 ;; This function calls:
  5114 ;;		Nothing
  5115 ;; This function is called by:
  5116 ;;		_USBStdSetCfgHandler
  5117 ;;		i2_USBDeviceInit
  5118 ;; This function uses a non-reentrant model
  5119 ;;
  5120                           
  5121                           	psect	text28
  5122   001158                     __ptext28:
  5123                           	callstack 0
  5124   001158                     i2_memset:
  5125                           	callstack 25
  5126   001158  C001  F00B         	movff	i2memset@dest,i2memset@s
  5127   00115C  C002  F00C         	movff	i2memset@dest+1,i2memset@s+1
  5128   001160  5005               	movf	i2memset@n^0,w,c
  5129   001162  1006               	iorwf	(i2memset@n+1)^0,w,c
  5130   001164  A4D8               	btfss	status,2,c
  5131   001166  EFB7  F008         	goto	i2u187_41
  5132   00116A  EFB9  F008         	goto	i2u187_40
  5133   00116E                     i2u187_41:
  5134   00116E  EFBB  F008         	goto	i2l3693
  5135   001172                     i2u187_40:
  5136   001172  EF66  F009         	goto	i2l1391
  5137   001176                     i2l3693:
  5138   001176  C00B  FFD9         	movff	i2memset@s,fsr2l
  5139   00117A  C00C  FFDA         	movff	i2memset@s+1,fsr2h
  5140   00117E  C003  FFDF         	movff	i2memset@c,indf2
  5141   001182  5005               	movf	i2memset@n^0,w,c
  5142   001184  240B               	addwf	i2memset@s^0,w,c
  5143   001186  6E07               	movwf	??i2_memset^0,c
  5144   001188  5006               	movf	(i2memset@n+1)^0,w,c
  5145   00118A  200C               	addwfc	(i2memset@s+1)^0,w,c
  5146   00118C  6E08               	movwf	(??i2_memset+1)^0,c
  5147   00118E  0EFF               	movlw	255
  5148   001190  2407               	addwf	??i2_memset^0,w,c
  5149   001192  6ED9               	movwf	fsr2l,c
  5150   001194  0EFF               	movlw	255
  5151   001196  2008               	addwfc	(??i2_memset+1)^0,w,c
  5152   001198  6EDA               	movwf	fsr2h,c
  5153   00119A  C003  FFDF         	movff	i2memset@c,indf2
  5154   00119E  5006               	movf	(i2memset@n+1)^0,w,c
  5155   0011A0  E107               	bnz	i2u188_41
  5156   0011A2  0E03               	movlw	3
  5157   0011A4  5C05               	subwf	i2memset@n^0,w,c
  5158   0011A6  B0D8               	btfsc	status,0,c
  5159   0011A8  EFD8  F008         	goto	i2u188_41
  5160   0011AC  EFDA  F008         	goto	i2u188_40
  5161   0011B0                     i2u188_41:
  5162   0011B0  EFDC  F008         	goto	i2l3699
  5163   0011B4                     i2u188_40:
  5164   0011B4  EF66  F009         	goto	i2l1391
  5165   0011B8                     i2l3699:
  5166   0011B8  EE20 F001          	lfsr	2,1
  5167   0011BC  500B               	movf	i2memset@s^0,w,c
  5168   0011BE  26D9               	addwf	fsr2l,f,c
  5169   0011C0  500C               	movf	(i2memset@s+1)^0,w,c
  5170   0011C2  22DA               	addwfc	fsr2h,f,c
  5171   0011C4  C003  FFDF         	movff	i2memset@c,indf2
  5172   0011C8  EE20 F002          	lfsr	2,2
  5173   0011CC  500B               	movf	i2memset@s^0,w,c
  5174   0011CE  26D9               	addwf	fsr2l,f,c
  5175   0011D0  500C               	movf	(i2memset@s+1)^0,w,c
  5176   0011D2  22DA               	addwfc	fsr2h,f,c
  5177   0011D4  C003  FFDF         	movff	i2memset@c,indf2
  5178   0011D8  5005               	movf	i2memset@n^0,w,c
  5179   0011DA  240B               	addwf	i2memset@s^0,w,c
  5180   0011DC  6E07               	movwf	??i2_memset^0,c
  5181   0011DE  5006               	movf	(i2memset@n+1)^0,w,c
  5182   0011E0  200C               	addwfc	(i2memset@s+1)^0,w,c
  5183   0011E2  6E08               	movwf	(??i2_memset+1)^0,c
  5184   0011E4  0EFE               	movlw	254
  5185   0011E6  2407               	addwf	??i2_memset^0,w,c
  5186   0011E8  6ED9               	movwf	fsr2l,c
  5187   0011EA  0EFF               	movlw	255
  5188   0011EC  2008               	addwfc	(??i2_memset+1)^0,w,c
  5189   0011EE  6EDA               	movwf	fsr2h,c
  5190   0011F0  C003  FFDF         	movff	i2memset@c,indf2
  5191   0011F4  5005               	movf	i2memset@n^0,w,c
  5192   0011F6  240B               	addwf	i2memset@s^0,w,c
  5193   0011F8  6E07               	movwf	??i2_memset^0,c
  5194   0011FA  5006               	movf	(i2memset@n+1)^0,w,c
  5195   0011FC  200C               	addwfc	(i2memset@s+1)^0,w,c
  5196   0011FE  6E08               	movwf	(??i2_memset+1)^0,c
  5197   001200  0EFD               	movlw	253
  5198   001202  2407               	addwf	??i2_memset^0,w,c
  5199   001204  6ED9               	movwf	fsr2l,c
  5200   001206  0EFF               	movlw	255
  5201   001208  2008               	addwfc	(??i2_memset+1)^0,w,c
  5202   00120A  6EDA               	movwf	fsr2h,c
  5203   00120C  C003  FFDF         	movff	i2memset@c,indf2
  5204   001210  5006               	movf	(i2memset@n+1)^0,w,c
  5205   001212  E107               	bnz	i2u189_41
  5206   001214  0E07               	movlw	7
  5207   001216  5C05               	subwf	i2memset@n^0,w,c
  5208   001218  B0D8               	btfsc	status,0,c
  5209   00121A  EF11  F009         	goto	i2u189_41
  5210   00121E  EF13  F009         	goto	i2u189_40
  5211   001222                     i2u189_41:
  5212   001222  EF15  F009         	goto	i2l3705
  5213   001226                     i2u189_40:
  5214   001226  EF66  F009         	goto	i2l1391
  5215   00122A                     i2l3705:
  5216   00122A  EE20 F003          	lfsr	2,3
  5217   00122E  500B               	movf	i2memset@s^0,w,c
  5218   001230  26D9               	addwf	fsr2l,f,c
  5219   001232  500C               	movf	(i2memset@s+1)^0,w,c
  5220   001234  22DA               	addwfc	fsr2h,f,c
  5221   001236  C003  FFDF         	movff	i2memset@c,indf2
  5222   00123A  5005               	movf	i2memset@n^0,w,c
  5223   00123C  240B               	addwf	i2memset@s^0,w,c
  5224   00123E  6E07               	movwf	??i2_memset^0,c
  5225   001240  5006               	movf	(i2memset@n+1)^0,w,c
  5226   001242  200C               	addwfc	(i2memset@s+1)^0,w,c
  5227   001244  6E08               	movwf	(??i2_memset+1)^0,c
  5228   001246  0EFC               	movlw	252
  5229   001248  2407               	addwf	??i2_memset^0,w,c
  5230   00124A  6ED9               	movwf	fsr2l,c
  5231   00124C  0EFF               	movlw	255
  5232   00124E  2008               	addwfc	(??i2_memset+1)^0,w,c
  5233   001250  6EDA               	movwf	fsr2h,c
  5234   001252  C003  FFDF         	movff	i2memset@c,indf2
  5235   001256  5006               	movf	(i2memset@n+1)^0,w,c
  5236   001258  E107               	bnz	i2u190_41
  5237   00125A  0E09               	movlw	9
  5238   00125C  5C05               	subwf	i2memset@n^0,w,c
  5239   00125E  B0D8               	btfsc	status,0,c
  5240   001260  EF34  F009         	goto	i2u190_41
  5241   001264  EF36  F009         	goto	i2u190_40
  5242   001268                     i2u190_41:
  5243   001268  EF38  F009         	goto	i2l3711
  5244   00126C                     i2u190_40:
  5245   00126C  EF66  F009         	goto	i2l1391
  5246   001270                     i2l3711:
  5247   001270  C00B  F007         	movff	i2memset@s,??i2_memset
  5248   001274  C00C  F008         	movff	i2memset@s+1,??i2_memset+1
  5249   001278  1E07               	comf	??i2_memset^0,f,c
  5250   00127A  1E08               	comf	(??i2_memset+1)^0,f,c
  5251   00127C  4A07               	infsnz	??i2_memset^0,f,c
  5252   00127E  2A08               	incf	(??i2_memset+1)^0,f,c
  5253   001280  0E03               	movlw	3
  5254   001282  1407               	andwf	??i2_memset^0,w,c
  5255   001284  6E09               	movwf	i2memset@k^0,c
  5256   001286  6A0A               	clrf	(i2memset@k+1)^0,c
  5257   001288  5009               	movf	i2memset@k^0,w,c
  5258   00128A  260B               	addwf	i2memset@s^0,f,c
  5259   00128C  500A               	movf	(i2memset@k+1)^0,w,c
  5260   00128E  220C               	addwfc	(i2memset@s+1)^0,f,c
  5261   001290  5009               	movf	i2memset@k^0,w,c
  5262   001292  5E05               	subwf	i2memset@n^0,f,c
  5263   001294  500A               	movf	(i2memset@k+1)^0,w,c
  5264   001296  5A06               	subwfb	(i2memset@n+1)^0,f,c
  5265   001298  0EFC               	movlw	252
  5266   00129A  1605               	andwf	i2memset@n^0,f,c
  5267   00129C  0EFF               	movlw	255
  5268   00129E  1606               	andwf	(i2memset@n+1)^0,f,c
  5269   0012A0  EF5D  F009         	goto	i2l3719
  5270   0012A4                     i2l3713:
  5271   0012A4  C00B  FFD9         	movff	i2memset@s,fsr2l
  5272   0012A8  C00C  FFDA         	movff	i2memset@s+1,fsr2h
  5273   0012AC  C003  FFDF         	movff	i2memset@c,indf2
  5274   0012B0  0605               	decf	i2memset@n^0,f,c
  5275   0012B2  A0D8               	btfss	status,0,c
  5276   0012B4  0606               	decf	(i2memset@n+1)^0,f,c
  5277   0012B6  4A0B               	infsnz	i2memset@s^0,f,c
  5278   0012B8  2A0C               	incf	(i2memset@s+1)^0,f,c
  5279   0012BA                     i2l3719:
  5280   0012BA  5005               	movf	i2memset@n^0,w,c
  5281   0012BC  1006               	iorwf	(i2memset@n+1)^0,w,c
  5282   0012BE  A4D8               	btfss	status,2,c
  5283   0012C0  EF64  F009         	goto	i2u191_41
  5284   0012C4  EF66  F009         	goto	i2u191_40
  5285   0012C8                     i2u191_41:
  5286   0012C8  EF52  F009         	goto	i2l3713
  5287   0012CC                     i2u191_40:
  5288   0012CC                     i2l1391:
  5289   0012CC  0012               	return		;funcret
  5290   0012CE                     __end_ofi2_memset:
  5291                           	callstack 0
  5292                           
  5293 ;; *************** function _USBStdGetStatusHandler *****************
  5294 ;; Defined at:
  5295 ;;		line 2133 in file "../../../../../../framework/usb/src/usb_device.c"
  5296 ;; Parameters:    Size  Location     Type
  5297 ;;		None
  5298 ;; Auto vars:     Size  Location     Type
  5299 ;;  p               2    2[COMRAM] PTR struct __BDT
  5300 ;;		 -> RAM(2047), NULL(0), BDT(32), 
  5301 ;; Return value:  Size  Location     Type
  5302 ;;                  1    wreg      void 
  5303 ;; Registers used:
  5304 ;;		wreg, fsr2l, fsr2h, status,2, status,0, prodl, prodh
  5305 ;; Tracked objects:
  5306 ;;		On entry : 0/0
  5307 ;;		On exit  : 0/0
  5308 ;;		Unchanged: 0/0
  5309 ;; Data sizes:     COMRAM   BANK0   BANK1   BANK2   BANK3   BANK4   BANK5   BANK6   BANK7
  5310 ;;      Params:         0       0       0       0       0       0       0       0       0
  5311 ;;      Locals:         2       0       0       0       0       0       0       0       0
  5312 ;;      Temps:          2       0       0       0       0       0       0       0       0
  5313 ;;      Totals:         4       0       0       0       0       0       0       0       0
  5314 ;;Total ram usage:        4 bytes
  5315 ;; Hardware stack levels used: 1
  5316 ;; This function calls:
  5317 ;;		Nothing
  5318 ;; This function is called by:
  5319 ;;		_USBCheckStdRequest
  5320 ;; This function uses a non-reentrant model
  5321 ;;
  5322                           
  5323                           	psect	text29
  5324   001E60                     __ptext29:
  5325                           	callstack 0
  5326   001E60                     _USBStdGetStatusHandler:
  5327                           	callstack 23
  5328   001E60                     
  5329                           ;../../../../../../framework/usb/src/usb_device.c: 2135:     CtrlTrfData[0] = 0;
  5330   001E60  0E00               	movlw	0
  5331   001E62  0104               	movlb	4	; () banked
  5332   001E64  6F28               	movwf	40,b	;volatile
  5333                           
  5334                           ;../../../../../../framework/usb/src/usb_device.c: 2136:     CtrlTrfData[1] = 0;
  5335   001E66  0E00               	movlw	0
  5336   001E68  6F29               	movwf	41,b	;volatile
  5337                           
  5338                           ;../../../../../../framework/usb/src/usb_device.c: 2138:     switch(SetupPkt.Recipient)
  5339   001E6A  EF97  F00F         	goto	i2l3875
  5340   001E6E                     i2l409:
  5341                           
  5342                           ; BSR set to: 4
  5343                           ;../../../../../../framework/usb/src/usb_device.c: 2141:             inPipes[0].info.bit
      +                          s.busy = 1;
  5344   001E6E  0100               	movlb	0	; () banked
  5345   001E70  8F6B               	bsf	(_inPipes+3)& (0+255),7,b	;volatile
  5346   001E72                     
  5347                           ; BSR set to: 0
  5348                           ;../../../../../../framework/usb/src/usb_device.c: 2151:             if(RemoteWakeup == 
      +                          1)
  5349   001E72  0448               	decf	_RemoteWakeup^0,w,c	;volatile
  5350   001E74  A4D8               	btfss	status,2,c
  5351   001E76  EF3F  F00F         	goto	i2u206_41
  5352   001E7A  EF41  F00F         	goto	i2u206_40
  5353   001E7E                     i2u206_41:
  5354   001E7E  EFB1  F00F         	goto	i2l412
  5355   001E82                     i2u206_40:
  5356   001E82                     
  5357                           ; BSR set to: 0
  5358                           ;../../../../../../framework/usb/src/usb_device.c: 2152:             {;../../../../../..
      +                          /framework/usb/src/usb_device.c: 2153:                 CtrlTrfData[0]|=0x02;
  5359   001E82  0104               	movlb	4	; () banked
  5360   001E84  8328               	bsf	40,1,b	;volatile
  5361   001E86  EFB1  F00F         	goto	i2l412
  5362   001E8A                     i2l413:
  5363                           
  5364                           ; BSR set to: 4
  5365                           ;../../../../../../framework/usb/src/usb_device.c: 2157:             inPipes[0].info.bit
      +                          s.busy = 1;
  5366   001E8A  0100               	movlb	0	; () banked
  5367   001E8C  8F6B               	bsf	(_inPipes+3)& (0+255),7,b	;volatile
  5368                           
  5369                           ;../../../../../../framework/usb/src/usb_device.c: 2158:             break;
  5370   001E8E  EFB1  F00F         	goto	i2l412
  5371   001E92                     i2l414:
  5372                           
  5373                           ; BSR set to: 4
  5374                           ;../../../../../../framework/usb/src/usb_device.c: 2160:             inPipes[0].info.bit
      +                          s.busy = 1;
  5375   001E92  0100               	movlb	0	; () banked
  5376   001E94  8F6B               	bsf	(_inPipes+3)& (0+255),7,b	;volatile
  5377   001E96                     
  5378                           ; BSR set to: 0
  5379                           ;../../../../../../framework/usb/src/usb_device.c: 2164:             if(SetupPkt.EPNum !
      +                          = 0)
  5380   001E96  0104               	movlb	4	; () banked
  5381   001E98  5124               	movf	36,w,b	;volatile
  5382   001E9A  0B0F               	andlw	15
  5383   001E9C  0900               	iorlw	0
  5384   001E9E  B4D8               	btfsc	status,2,c
  5385   001EA0  EF54  F00F         	goto	i2u207_41
  5386   001EA4  EF56  F00F         	goto	i2u207_40
  5387   001EA8                     i2u207_41:
  5388   001EA8  EFB1  F00F         	goto	i2l412
  5389   001EAC                     i2u207_40:
  5390   001EAC                     
  5391                           ; BSR set to: 4
  5392                           ;../../../../../../framework/usb/src/usb_device.c: 2165:             {;../../../../../..
      +                          /framework/usb/src/usb_device.c: 2166:                 BDT_ENTRY *p;;../../../../../../f
      +                          ramework/usb/src/usb_device.c: 2168:                 if(SetupPkt.EPDir == 0)
  5393   001EAC  BF24               	btfsc	36,7,b	;volatile
  5394   001EAE  EF5B  F00F         	goto	i2u208_41
  5395   001EB2  EF5D  F00F         	goto	i2u208_40
  5396   001EB6                     i2u208_41:
  5397   001EB6  EF6E  F00F         	goto	i2l3865
  5398   001EBA                     i2u208_40:
  5399   001EBA                     
  5400                           ; BSR set to: 4
  5401                           ;../../../../../../framework/usb/src/usb_device.c: 2169:                 {;../../../../.
      +                          ./../framework/usb/src/usb_device.c: 2170:                     p = (BDT_ENTRY*)pBDTEntry
      +                          Out[SetupPkt.EPNum];
  5402   001EBA  5124               	movf	36,w,b	;volatile
  5403   001EBC  0B0F               	andlw	15
  5404   001EBE  6E01               	movwf	??_USBStdGetStatusHandler^0,c
  5405   001EC0  5001               	movf	??_USBStdGetStatusHandler^0,w,c
  5406   001EC2  0D02               	mullw	2
  5407   001EC4  0E72               	movlw	low _pBDTEntryOut
  5408   001EC6  24F3               	addwf	243,w,c
  5409   001EC8  6ED9               	movwf	fsr2l,c
  5410   001ECA  0E00               	movlw	high _pBDTEntryOut
  5411   001ECC  20F4               	addwfc	prodh,w,c
  5412   001ECE  6EDA               	movwf	fsr2h,c
  5413   001ED0  CFDE F003          	movff	postinc2,USBStdGetStatusHandler@p
  5414   001ED4  CFDD F004          	movff	postdec2,USBStdGetStatusHandler@p+1
  5415                           
  5416                           ;../../../../../../framework/usb/src/usb_device.c: 2171:                 }
  5417   001ED8  EF7D  F00F         	goto	i2l3867
  5418   001EDC                     i2l3865:
  5419                           
  5420                           ; BSR set to: 4
  5421                           ;../../../../../../framework/usb/src/usb_device.c: 2173:                 {;../../../../.
      +                          ./../framework/usb/src/usb_device.c: 2174:                     p = (BDT_ENTRY*)pBDTEntry
      +                          In[SetupPkt.EPNum];
  5422   001EDC  5124               	movf	36,w,b	;volatile
  5423   001EDE  0B0F               	andlw	15
  5424   001EE0  6E01               	movwf	??_USBStdGetStatusHandler^0,c
  5425   001EE2  5001               	movf	??_USBStdGetStatusHandler^0,w,c
  5426   001EE4  0D02               	mullw	2
  5427   001EE6  0E6E               	movlw	low _pBDTEntryIn
  5428   001EE8  24F3               	addwf	243,w,c
  5429   001EEA  6ED9               	movwf	fsr2l,c
  5430   001EEC  0E00               	movlw	high _pBDTEntryIn
  5431   001EEE  20F4               	addwfc	prodh,w,c
  5432   001EF0  6EDA               	movwf	fsr2h,c
  5433   001EF2  CFDE F003          	movff	postinc2,USBStdGetStatusHandler@p
  5434   001EF6  CFDD F004          	movff	postdec2,USBStdGetStatusHandler@p+1
  5435   001EFA                     i2l3867:
  5436                           
  5437                           ; BSR set to: 4
  5438                           ;../../../../../../framework/usb/src/usb_device.c: 2177:                 if((p->STAT.UOW
      +                          N == 1) && (p->STAT.BSTALL == 1))
  5439   001EFA  C003  FFD9         	movff	USBStdGetStatusHandler@p,fsr2l
  5440   001EFE  C004  FFDA         	movff	USBStdGetStatusHandler@p+1,fsr2h
  5441   001F02  AEDF               	btfss	indf2,7,c
  5442   001F04  EF86  F00F         	goto	i2u209_41
  5443   001F08  EF88  F00F         	goto	i2u209_40
  5444   001F0C                     i2u209_41:
  5445   001F0C  EFB1  F00F         	goto	i2l412
  5446   001F10                     i2u209_40:
  5447   001F10                     
  5448                           ; BSR set to: 4
  5449   001F10  C003  FFD9         	movff	USBStdGetStatusHandler@p,fsr2l
  5450   001F14  C004  FFDA         	movff	USBStdGetStatusHandler@p+1,fsr2h
  5451   001F18  A4DF               	btfss	indf2,2,c
  5452   001F1A  EF91  F00F         	goto	i2u210_41
  5453   001F1E  EF93  F00F         	goto	i2u210_40
  5454   001F22                     i2u210_41:
  5455   001F22  EFB1  F00F         	goto	i2l412
  5456   001F26                     i2u210_40:
  5457   001F26                     
  5458                           ; BSR set to: 4
  5459                           ;../../../../../../framework/usb/src/usb_device.c: 2178:                 {;../../../../.
      +                          ./../framework/usb/src/usb_device.c: 2179:                     CtrlTrfData[0]=0x01;
  5460   001F26  0E01               	movlw	1
  5461   001F28  6F28               	movwf	40,b	;volatile
  5462   001F2A  EFB1  F00F         	goto	i2l412
  5463   001F2E                     i2l3875:
  5464                           
  5465                           ; BSR set to: 4
  5466   001F2E  5120               	movf	32,w,b	;volatile
  5467   001F30  0B1F               	andlw	31
  5468   001F32  6E01               	movwf	??_USBStdGetStatusHandler^0,c
  5469   001F34  6A02               	clrf	(??_USBStdGetStatusHandler+1)^0,c
  5470                           
  5471                           ; Switch on 2 bytes has been partitioned into a top level switch of size 1, and 1 sub-sw
      +                          itches
  5472                           ; Switch size 1, requested type "simple"
  5473                           ; Number of cases is 1, Range of values is 0 to 0
  5474                           ; switch strategies available:
  5475                           ; Name         Instructions Cycles
  5476                           ; simple_byte            4     3 (average)
  5477                           ;	Chosen strategy is simple_byte
  5478   001F36  5002               	movf	(??_USBStdGetStatusHandler+1)^0,w,c
  5479   001F38  0A00               	xorlw	0	; case 0
  5480   001F3A  B4D8               	btfsc	status,2,c
  5481   001F3C  EFA2  F00F         	goto	i2l5963
  5482   001F40  EFB1  F00F         	goto	i2l412
  5483   001F44                     i2l5963:
  5484                           
  5485                           ; BSR set to: 4
  5486                           ; Switch size 1, requested type "simple"
  5487                           ; Number of cases is 3, Range of values is 0 to 2
  5488                           ; switch strategies available:
  5489                           ; Name         Instructions Cycles
  5490                           ; simple_byte           10     6 (average)
  5491                           ;	Chosen strategy is simple_byte
  5492   001F44  5001               	movf	??_USBStdGetStatusHandler^0,w,c
  5493   001F46  0A00               	xorlw	0	; case 0
  5494   001F48  B4D8               	btfsc	status,2,c
  5495   001F4A  EF37  F00F         	goto	i2l409
  5496   001F4E  0A01               	xorlw	1	; case 1
  5497   001F50  B4D8               	btfsc	status,2,c
  5498   001F52  EF45  F00F         	goto	i2l413
  5499   001F56  0A03               	xorlw	3	; case 2
  5500   001F58  B4D8               	btfsc	status,2,c
  5501   001F5A  EF49  F00F         	goto	i2l414
  5502   001F5E  EFB1  F00F         	goto	i2l412
  5503   001F62                     i2l412:
  5504                           
  5505                           ;../../../../../../framework/usb/src/usb_device.c: 2185:     if(inPipes[0].info.bits.bus
      +                          y == 1)
  5506   001F62  0100               	movlb	0	; () banked
  5507   001F64  AF6B               	btfss	(_inPipes+3)& (0+255),7,b	;volatile
  5508   001F66  EFB7  F00F         	goto	i2u211_41
  5509   001F6A  EFB9  F00F         	goto	i2u211_40
  5510   001F6E                     i2u211_41:
  5511   001F6E  EFC0  F00F         	goto	i2l420
  5512   001F72                     i2u211_40:
  5513   001F72                     
  5514                           ; BSR set to: 0
  5515                           ;../../../../../../framework/usb/src/usb_device.c: 2186:     {;../../../../../../framewo
      +                          rk/usb/src/usb_device.c: 2187:         inPipes[0].pSrc.bRam = (uint8_t*)&CtrlTrfData;
  5516   001F72  0E28               	movlw	40
  5517   001F74  6F68               	movwf	_inPipes& (0+255),b	;volatile
  5518   001F76  0E04               	movlw	4
  5519   001F78  6F69               	movwf	(_inPipes+1)& (0+255),b	;volatile
  5520   001F7A                     
  5521                           ; BSR set to: 0
  5522                           ;../../../../../../framework/usb/src/usb_device.c: 2188:         inPipes[0].info.bits.ct
      +                          rl_trf_mem = 0x01;
  5523   001F7A  816B               	bsf	(_inPipes+3)& (0+255),0,b	;volatile
  5524   001F7C                     
  5525                           ; BSR set to: 0
  5526                           ;../../../../../../framework/usb/src/usb_device.c: 2189:         inPipes[0].wCount.v[0] 
      +                          = 2;
  5527   001F7C  0E02               	movlw	2
  5528   001F7E  6F6C               	movwf	(_inPipes+4)& (0+255),b	;volatile
  5529   001F80                     i2l420:
  5530                           
  5531                           ; BSR set to: 0
  5532   001F80  0012               	return		;funcret
  5533   001F82                     __end_of_USBStdGetStatusHandler:
  5534                           	callstack 0
  5535                           
  5536 ;; *************** function _USBStdGetDscHandler *****************
  5537 ;; Defined at:
  5538 ;;		line 2047 in file "../../../../../../framework/usb/src/usb_device.c"
  5539 ;; Parameters:    Size  Location     Type
  5540 ;;		None
  5541 ;; Auto vars:     Size  Location     Type
  5542 ;;		None
  5543 ;; Return value:  Size  Location     Type
  5544 ;;                  1    wreg      void 
  5545 ;; Registers used:
  5546 ;;		wreg, fsr0l, fsr0h, status,2, status,0, tblptrl, tblptrh, tblptru, prodl, prodh
  5547 ;; Tracked objects:
  5548 ;;		On entry : 0/0
  5549 ;;		On exit  : 0/0
  5550 ;;		Unchanged: 0/0
  5551 ;; Data sizes:     COMRAM   BANK0   BANK1   BANK2   BANK3   BANK4   BANK5   BANK6   BANK7
  5552 ;;      Params:         0       0       0       0       0       0       0       0       0
  5553 ;;      Locals:         0       0       0       0       0       0       0       0       0
  5554 ;;      Temps:          2       0       0       0       0       0       0       0       0
  5555 ;;      Totals:         2       0       0       0       0       0       0       0       0
  5556 ;;Total ram usage:        2 bytes
  5557 ;; Hardware stack levels used: 1
  5558 ;; This function calls:
  5559 ;;		Nothing
  5560 ;; This function is called by:
  5561 ;;		_USBCheckStdRequest
  5562 ;; This function uses a non-reentrant model
  5563 ;;
  5564                           
  5565                           	psect	text30
  5566   0012CE                     __ptext30:
  5567                           	callstack 0
  5568   0012CE                     _USBStdGetDscHandler:
  5569                           	callstack 23
  5570   0012CE                     
  5571                           ;../../../../../../framework/usb/src/usb_device.c: 2049:     if(SetupPkt.bmRequestType =
      +                          = 0x80)
  5572   0012CE  0E80               	movlw	128
  5573   0012D0  0104               	movlb	4	; () banked
  5574   0012D2  1920               	xorwf	32,w,b	;volatile
  5575   0012D4  A4D8               	btfss	status,2,c
  5576   0012D6  EF6F  F009         	goto	i2u200_41
  5577   0012DA  EF71  F009         	goto	i2u200_40
  5578   0012DE                     i2u200_41:
  5579   0012DE  EF20  F00A         	goto	i2l405
  5580   0012E2                     i2u200_40:
  5581   0012E2                     
  5582                           ; BSR set to: 4
  5583                           ;../../../../../../framework/usb/src/usb_device.c: 2050:     {;../../../../../../framewo
      +                          rk/usb/src/usb_device.c: 2051:         inPipes[0].info.Val = 0x00 | 0x80 | 0x40;
  5584   0012E2  0EC0               	movlw	192
  5585   0012E4  0100               	movlb	0	; () banked
  5586   0012E6  6F6B               	movwf	(_inPipes+3)& (0+255),b	;volatile
  5587                           
  5588                           ;../../../../../../framework/usb/src/usb_device.c: 2053:         switch(SetupPkt.bDescri
      +                          ptorType)
  5589   0012E8  EF06  F00A         	goto	i2l3845
  5590   0012EC                     i2l3819:
  5591                           
  5592                           ; BSR set to: 4
  5593                           ;../../../../../../framework/usb/src/usb_device.c: 2059:                     inPipes[0].
      +                          pSrc.bRom = (const uint8_t*)&device_dsc;
  5594   0012EC  0EB1               	movlw	low _device_dsc
  5595   0012EE  0100               	movlb	0	; () banked
  5596   0012F0  6F68               	movwf	_inPipes& (0+255),b	;volatile
  5597   0012F2  0E08               	movlw	high _device_dsc
  5598   0012F4  6F69               	movwf	(_inPipes+1)& (0+255),b	;volatile
  5599   0012F6                     
  5600                           ; BSR set to: 0
  5601                           ;../../../../../../framework/usb/src/usb_device.c: 2061:                 inPipes[0].wCou
      +                          nt.Val = sizeof(device_dsc);
  5602   0012F6  0E00               	movlw	0
  5603   0012F8  6F6D               	movwf	(_inPipes+5)& (0+255),b	;volatile
  5604   0012FA  0E12               	movlw	18
  5605   0012FC  6F6C               	movwf	(_inPipes+4)& (0+255),b	;volatile
  5606                           
  5607                           ;../../../../../../framework/usb/src/usb_device.c: 2062:                 break;
  5608   0012FE  EF20  F00A         	goto	i2l405
  5609   001302                     i2l3823:
  5610                           
  5611                           ; BSR set to: 4
  5612                           ;../../../../../../framework/usb/src/usb_device.c: 2067:                 if(SetupPkt.bDs
      +                          cIndex < 1)
  5613   001302  5122               	movf	34,w,b	;volatile
  5614   001304  A4D8               	btfss	status,2,c
  5615   001306  EF87  F009         	goto	i2u201_41
  5616   00130A  EF89  F009         	goto	i2u201_40
  5617   00130E                     i2u201_41:
  5618   00130E  EFCA  F009         	goto	i2l3831
  5619   001312                     i2u201_40:
  5620   001312                     
  5621                           ; BSR set to: 4
  5622                           ;../../../../../../framework/usb/src/usb_device.c: 2068:                 {;../../../../.
      +                          ./../framework/usb/src/usb_device.c: 2072:                         inPipes[0].pSrc.bRom 
      +                          = *(USB_CD_Ptr+SetupPkt.bDscIndex);
  5623   001312  5122               	movf	34,w,b	;volatile
  5624   001314  0D02               	mullw	2
  5625   001316  0E07               	movlw	low _USB_CD_Ptr
  5626   001318  24F3               	addwf	243,w,c
  5627   00131A  6EF6               	movwf	tblptrl,c
  5628   00131C  0E08               	movlw	high _USB_CD_Ptr
  5629   00131E  20F4               	addwfc	244,w,c
  5630   001320  6EF7               	movwf	tblptrh,c
  5631   001322                     	if	0	;There are less than 3 active tblptr bytes
  5632   001322                     	endif
  5633   001322  0009               	tblrd		*+
  5634   001324  CFF5 F068          	movff	tablat,_inPipes	;volatile
  5635   001328  000A               	tblrd		*-
  5636   00132A  CFF5 F069          	movff	tablat,_inPipes+1	;volatile
  5637   00132E                     
  5638                           ; BSR set to: 4
  5639                           ;../../../../../../framework/usb/src/usb_device.c: 2078:                     inPipes[0].
      +                          wCount.byte.LB = *(inPipes[0].pSrc.bRom+2);
  5640   00132E  0E02               	movlw	2
  5641   001330  0100               	movlb	0	; () banked
  5642   001332  2568               	addwf	_inPipes& (0+255),w,b	;volatile
  5643   001334  6E01               	movwf	??_USBStdGetDscHandler^0,c
  5644   001336  0E00               	movlw	0
  5645   001338  2169               	addwfc	(_inPipes+1)& (0+255),w,b	;volatile
  5646   00133A  6E02               	movwf	(??_USBStdGetDscHandler+1)^0,c
  5647   00133C  C001  FFF6         	movff	??_USBStdGetDscHandler,tblptrl
  5648   001340  C002  FFF7         	movff	??_USBStdGetDscHandler+1,tblptrh
  5649   001344  6AF8               	clrf	tblptru,c
  5650   001346  0E07               	movlw	(high __ramtop+-1)
  5651   001348  64F7               	cpfsgt	tblptrh,c
  5652   00134A  D003               	bra	i2u202_47
  5653   00134C  0008               	tblrd		*
  5654   00134E  50F5               	movf	tablat,w,c
  5655   001350  D005               	bra	i2u202_40
  5656   001352                     i2u202_47:
  5657   001352  CFF6 FFE9          	movff	tblptrl,fsr0l
  5658   001356  CFF7 FFEA          	movff	tblptrh,fsr0h
  5659   00135A  50EF               	movf	indf0,w,c
  5660   00135C                     i2u202_40:
  5661   00135C  0100               	movlb	0	; () banked
  5662   00135E  6F6C               	movwf	(_inPipes+4)& (0+255),b	;volatile
  5663   001360                     
  5664                           ; BSR set to: 0
  5665                           ;../../../../../../framework/usb/src/usb_device.c: 2079:                     inPipes[0].
      +                          wCount.byte.HB = *(inPipes[0].pSrc.bRom+3);
  5666   001360  0E03               	movlw	3
  5667   001362  2568               	addwf	_inPipes& (0+255),w,b	;volatile
  5668   001364  6E01               	movwf	??_USBStdGetDscHandler^0,c
  5669   001366  0E00               	movlw	0
  5670   001368  2169               	addwfc	(_inPipes+1)& (0+255),w,b	;volatile
  5671   00136A  6E02               	movwf	(??_USBStdGetDscHandler+1)^0,c
  5672   00136C  C001  FFF6         	movff	??_USBStdGetDscHandler,tblptrl
  5673   001370  C002  FFF7         	movff	??_USBStdGetDscHandler+1,tblptrh
  5674   001374  6AF8               	clrf	tblptru,c
  5675   001376  0E07               	movlw	(high __ramtop+-1)
  5676   001378  64F7               	cpfsgt	tblptrh,c
  5677   00137A  D003               	bra	i2u203_47
  5678   00137C  0008               	tblrd		*
  5679   00137E  50F5               	movf	tablat,w,c
  5680   001380  D005               	bra	i2u203_40
  5681   001382                     i2u203_47:
  5682   001382  CFF6 FFE9          	movff	tblptrl,fsr0l
  5683   001386  CFF7 FFEA          	movff	tblptrh,fsr0h
  5684   00138A  50EF               	movf	indf0,w,c
  5685   00138C                     i2u203_40:
  5686   00138C  0100               	movlb	0	; () banked
  5687   00138E  6F6D               	movwf	(_inPipes+5)& (0+255),b	;volatile
  5688                           
  5689                           ;../../../../../../framework/usb/src/usb_device.c: 2080:                 }
  5690   001390  EF20  F00A         	goto	i2l405
  5691   001394                     i2l3831:
  5692                           
  5693                           ; BSR set to: 4
  5694                           ;../../../../../../framework/usb/src/usb_device.c: 2082:     {;../../../../../../framewo
      +                          rk/usb/src/usb_device.c: 2083:      inPipes[0].info.Val = 0;
  5695   001394  0E00               	movlw	0
  5696   001396  0100               	movlb	0	; () banked
  5697   001398  6F6B               	movwf	(_inPipes+3)& (0+255),b	;volatile
  5698   00139A  EF20  F00A         	goto	i2l405
  5699   00139E                     i2l3833:
  5700                           
  5701                           ; BSR set to: 4
  5702                           ;../../../../../../framework/usb/src/usb_device.c: 2090:                 if(SetupPkt.bDs
      +                          cIndex<3)
  5703   00139E  0E03               	movlw	3
  5704   0013A0  6122               	cpfslt	34,b	;volatile
  5705   0013A2  EFD5  F009         	goto	i2u204_41
  5706   0013A6  EFD7  F009         	goto	i2u204_40
  5707   0013AA                     i2u204_41:
  5708   0013AA  EFFC  F009         	goto	i2l3839
  5709   0013AE                     i2u204_40:
  5710   0013AE                     
  5711                           ; BSR set to: 4
  5712                           ;../../../../../../framework/usb/src/usb_device.c: 2091:                 {;../../../../.
      +                          ./../framework/usb/src/usb_device.c: 2093:                     inPipes[0].pSrc.bRom = *(
      +                          USB_SD_Ptr+SetupPkt.bDscIndex);
  5713   0013AE  5122               	movf	34,w,b	;volatile
  5714   0013B0  0D02               	mullw	2
  5715   0013B2  0E01               	movlw	low _USB_SD_Ptr
  5716   0013B4  24F3               	addwf	243,w,c
  5717   0013B6  6EF6               	movwf	tblptrl,c
  5718   0013B8  0E08               	movlw	high _USB_SD_Ptr
  5719   0013BA  20F4               	addwfc	244,w,c
  5720   0013BC  6EF7               	movwf	tblptrh,c
  5721   0013BE                     	if	0	;There are less than 3 active tblptr bytes
  5722   0013BE                     	endif
  5723   0013BE  0009               	tblrd		*+
  5724   0013C0  CFF5 F068          	movff	tablat,_inPipes	;volatile
  5725   0013C4  000A               	tblrd		*-
  5726   0013C6  CFF5 F069          	movff	tablat,_inPipes+1	;volatile
  5727   0013CA                     
  5728                           ; BSR set to: 4
  5729                           ;../../../../../../framework/usb/src/usb_device.c: 2095:                     inPipes[0].
      +                          wCount.Val = *inPipes[0].pSrc.bRom;
  5730   0013CA  C068  FFF6         	movff	_inPipes,tblptrl	;volatile
  5731   0013CE  C069  FFF7         	movff	_inPipes+1,tblptrh	;volatile
  5732   0013D2  6AF8               	clrf	tblptru,c
  5733   0013D4  0E07               	movlw	(high __ramtop+-1)
  5734   0013D6  64F7               	cpfsgt	tblptrh,c
  5735   0013D8  D003               	bra	i2u205_47
  5736   0013DA  0008               	tblrd		*
  5737   0013DC  50F5               	movf	tablat,w,c
  5738   0013DE  D005               	bra	i2u205_40
  5739   0013E0                     i2u205_47:
  5740   0013E0  CFF6 FFE9          	movff	tblptrl,fsr0l
  5741   0013E4  CFF7 FFEA          	movff	tblptrh,fsr0h
  5742   0013E8  50EF               	movf	indf0,w,c
  5743   0013EA                     i2u205_40:
  5744   0013EA  6E01               	movwf	??_USBStdGetDscHandler^0,c
  5745   0013EC  5001               	movf	??_USBStdGetDscHandler^0,w,c
  5746   0013EE  0100               	movlb	0	; () banked
  5747   0013F0  6F6C               	movwf	(_inPipes+4)& (0+255),b	;volatile
  5748   0013F2  6B6D               	clrf	(_inPipes+5)& (0+255),b	;volatile
  5749                           
  5750                           ;../../../../../../framework/usb/src/usb_device.c: 2096:                 }
  5751   0013F4  EF20  F00A         	goto	i2l405
  5752   0013F8                     i2l3839:
  5753                           
  5754                           ; BSR set to: 4
  5755                           ;../../../../../../framework/usb/src/usb_device.c: 2107:                 {;../../../../.
      +                          ./../framework/usb/src/usb_device.c: 2108:                     inPipes[0].info.Val = 0;
  5756   0013F8  0E00               	movlw	0
  5757   0013FA  0100               	movlb	0	; () banked
  5758   0013FC  6F6B               	movwf	(_inPipes+3)& (0+255),b	;volatile
  5759   0013FE  EF20  F00A         	goto	i2l405
  5760   001402                     i2l3841:
  5761                           
  5762                           ; BSR set to: 4
  5763                           ;../../../../../../framework/usb/src/usb_device.c: 2112:                 inPipes[0].info
      +                          .Val = 0;
  5764   001402  0E00               	movlw	0
  5765   001404  0100               	movlb	0	; () banked
  5766   001406  6F6B               	movwf	(_inPipes+3)& (0+255),b	;volatile
  5767                           
  5768                           ;../../../../../../framework/usb/src/usb_device.c: 2113:                 break;
  5769   001408  EF20  F00A         	goto	i2l405
  5770   00140C                     i2l3845:
  5771                           
  5772                           ; BSR set to: 0
  5773   00140C  0104               	movlb	4	; () banked
  5774   00140E  5123               	movf	35,w,b	;volatile
  5775   001410  6E01               	movwf	??_USBStdGetDscHandler^0,c
  5776   001412  6A02               	clrf	(??_USBStdGetDscHandler+1)^0,c
  5777                           
  5778                           ; Switch on 2 bytes has been partitioned into a top level switch of size 1, and 1 sub-sw
      +                          itches
  5779                           ; Switch size 1, requested type "simple"
  5780                           ; Number of cases is 1, Range of values is 0 to 0
  5781                           ; switch strategies available:
  5782                           ; Name         Instructions Cycles
  5783                           ; simple_byte            4     3 (average)
  5784                           ;	Chosen strategy is simple_byte
  5785   001414  5002               	movf	(??_USBStdGetDscHandler+1)^0,w,c
  5786   001416  0A00               	xorlw	0	; case 0
  5787   001418  B4D8               	btfsc	status,2,c
  5788   00141A  EF11  F00A         	goto	i2l5965
  5789   00141E  EF01  F00A         	goto	i2l3841
  5790   001422                     i2l5965:
  5791                           
  5792                           ; BSR set to: 4
  5793                           ; Switch size 1, requested type "simple"
  5794                           ; Number of cases is 3, Range of values is 1 to 3
  5795                           ; switch strategies available:
  5796                           ; Name         Instructions Cycles
  5797                           ; simple_byte           10     6 (average)
  5798                           ;	Chosen strategy is simple_byte
  5799   001422  5001               	movf	??_USBStdGetDscHandler^0,w,c
  5800   001424  0A01               	xorlw	1	; case 1
  5801   001426  B4D8               	btfsc	status,2,c
  5802   001428  EF76  F009         	goto	i2l3819
  5803   00142C  0A03               	xorlw	3	; case 2
  5804   00142E  B4D8               	btfsc	status,2,c
  5805   001430  EF81  F009         	goto	i2l3823
  5806   001434  0A01               	xorlw	1	; case 3
  5807   001436  B4D8               	btfsc	status,2,c
  5808   001438  EFCF  F009         	goto	i2l3833
  5809   00143C  EF01  F00A         	goto	i2l3841
  5810   001440                     i2l405:
  5811   001440  0012               	return		;funcret
  5812   001442                     __end_of_USBStdGetDscHandler:
  5813                           	callstack 0
  5814                           
  5815 ;; *************** function _USBStdFeatureReqHandler *****************
  5816 ;; Defined at:
  5817 ;;		line 2761 in file "../../../../../../framework/usb/src/usb_device.c"
  5818 ;; Parameters:    Size  Location     Type
  5819 ;;		None
  5820 ;; Auto vars:     Size  Location     Type
  5821 ;;  p               2   27[COMRAM] PTR struct __BDT
  5822 ;;		 -> RAM(2047), NULL(0), BDT(32), 
  5823 ;;  pUEP            2   24[COMRAM] PTR unsigned char 
  5824 ;;		 -> UEP0(1), 
  5825 ;;  current_ep_d    1   26[COMRAM] struct .
  5826 ;; Return value:  Size  Location     Type
  5827 ;;                  1    wreg      void 
  5828 ;; Registers used:
  5829 ;;		wreg, fsr2l, fsr2h, status,2, status,0, prodl, prodh, cstack
  5830 ;; Tracked objects:
  5831 ;;		On entry : 0/0
  5832 ;;		On exit  : 0/0
  5833 ;;		Unchanged: 0/0
  5834 ;; Data sizes:     COMRAM   BANK0   BANK1   BANK2   BANK3   BANK4   BANK5   BANK6   BANK7
  5835 ;;      Params:         0       0       0       0       0       0       0       0       0
  5836 ;;      Locals:         5       0       0       0       0       0       0       0       0
  5837 ;;      Temps:          2       0       0       0       0       0       0       0       0
  5838 ;;      Totals:         7       0       0       0       0       0       0       0       0
  5839 ;;Total ram usage:        7 bytes
  5840 ;; Hardware stack levels used: 1
  5841 ;; Hardware stack levels required when called: 4
  5842 ;; This function calls:
  5843 ;;		_USER_USB_CALLBACK_EVENT_HANDLER
  5844 ;; This function is called by:
  5845 ;;		_USBCheckStdRequest
  5846 ;; This function uses a non-reentrant model
  5847 ;;
  5848                           
  5849                           	psect	text31
  5850   0008C8                     __ptext31:
  5851                           	callstack 0
  5852   0008C8                     _USBStdFeatureReqHandler:
  5853                           	callstack 19
  5854   0008C8                     
  5855                           ;../../../../../../framework/usb/src/usb_device.c: 2763:     BDT_ENTRY *p;;../../../../.
      +                          ./../framework/usb/src/usb_device.c: 2764:     EP_STATUS current_ep_data;;../../../../..
      +                          /../framework/usb/src/usb_device.c: 2768:         unsigned char* pUEP;;../../../../../..
      +                          /framework/usb/src/usb_device.c: 2772:     if((SetupPkt.bFeature == 1)&&
  5856   0008C8  0104               	movlb	4	; () banked
  5857   0008CA  0522               	decf	34,w,b	;volatile
  5858   0008CC  A4D8               	btfss	status,2,c
  5859   0008CE  EF6B  F004         	goto	i2u212_41
  5860   0008D2  EF6D  F004         	goto	i2u212_40
  5861   0008D6                     i2u212_41:
  5862   0008D6  EF89  F004         	goto	i2l487
  5863   0008DA                     i2u212_40:
  5864   0008DA                     
  5865                           ; BSR set to: 4
  5866   0008DA  5120               	movf	32,w,b	;volatile
  5867   0008DC  0B1F               	andlw	31
  5868   0008DE  0900               	iorlw	0
  5869   0008E0  A4D8               	btfss	status,2,c
  5870   0008E2  EF75  F004         	goto	i2u213_41
  5871   0008E6  EF77  F004         	goto	i2u213_40
  5872   0008EA                     i2u213_41:
  5873   0008EA  EF89  F004         	goto	i2l487
  5874   0008EE                     i2u213_40:
  5875   0008EE                     
  5876                           ; BSR set to: 4
  5877                           ;../../../../../../framework/usb/src/usb_device.c: 2774:     {;../../../../../../framewo
      +                          rk/usb/src/usb_device.c: 2775:         inPipes[0].info.bits.busy = 1;
  5878   0008EE  0100               	movlb	0	; () banked
  5879   0008F0  8F6B               	bsf	(_inPipes+3)& (0+255),7,b	;volatile
  5880   0008F2                     
  5881                           ; BSR set to: 0
  5882                           ;../../../../../../framework/usb/src/usb_device.c: 2776:         if(SetupPkt.bRequest ==
      +                           3)
  5883   0008F2  0E03               	movlw	3
  5884   0008F4  0104               	movlb	4	; () banked
  5885   0008F6  1921               	xorwf	33,w,b	;volatile
  5886   0008F8  A4D8               	btfss	status,2,c
  5887   0008FA  EF81  F004         	goto	i2u214_41
  5888   0008FE  EF83  F004         	goto	i2u214_40
  5889   000902                     i2u214_41:
  5890   000902  EF87  F004         	goto	i2l3897
  5891   000906                     i2u214_40:
  5892   000906                     
  5893                           ; BSR set to: 4
  5894                           ;../../../../../../framework/usb/src/usb_device.c: 2777:             RemoteWakeup = 1;
  5895   000906  0E01               	movlw	1
  5896   000908  6E48               	movwf	_RemoteWakeup^0,c	;volatile
  5897   00090A  EF89  F004         	goto	i2l487
  5898   00090E                     i2l3897:
  5899                           
  5900                           ; BSR set to: 4
  5901                           ;../../../../../../framework/usb/src/usb_device.c: 2779:             RemoteWakeup = 0;
  5902   00090E  0E00               	movlw	0
  5903   000910  6E48               	movwf	_RemoteWakeup^0,c	;volatile
  5904   000912                     i2l487:
  5905                           
  5906                           ; BSR set to: 4
  5907                           ;../../../../../../framework/usb/src/usb_device.c: 2783:     if((SetupPkt.bFeature == 0)
      +                          &&
  5908   000912  5122               	movf	34,w,b	;volatile
  5909   000914  A4D8               	btfss	status,2,c
  5910   000916  EF8F  F004         	goto	i2u215_41
  5911   00091A  EF91  F004         	goto	i2u215_40
  5912   00091E                     i2u215_41:
  5913   00091E  EF11  F006         	goto	i2l510
  5914   000922                     i2u215_40:
  5915   000922                     
  5916                           ; BSR set to: 4
  5917   000922  5120               	movf	32,w,b	;volatile
  5918   000924  0B1F               	andlw	31
  5919   000926  0A02               	xorlw	2
  5920   000928  A4D8               	btfss	status,2,c
  5921   00092A  EF99  F004         	goto	i2u216_41
  5922   00092E  EF9B  F004         	goto	i2u216_40
  5923   000932                     i2u216_41:
  5924   000932  EF11  F006         	goto	i2l510
  5925   000936                     i2u216_40:
  5926   000936                     
  5927                           ; BSR set to: 4
  5928   000936  5124               	movf	36,w,b	;volatile
  5929   000938  0B0F               	andlw	15
  5930   00093A  0900               	iorlw	0
  5931   00093C  B4D8               	btfsc	status,2,c
  5932   00093E  EFA3  F004         	goto	i2u217_41
  5933   000942  EFA5  F004         	goto	i2u217_40
  5934   000946                     i2u217_41:
  5935   000946  EF11  F006         	goto	i2l510
  5936   00094A                     i2u217_40:
  5937   00094A                     
  5938                           ; BSR set to: 4
  5939   00094A  5124               	movf	36,w,b	;volatile
  5940   00094C  0B0F               	andlw	15
  5941   00094E  6E17               	movwf	??_USBStdFeatureReqHandler^0,c
  5942   000950  0E02               	movlw	2
  5943   000952  6017               	cpfslt	??_USBStdFeatureReqHandler^0,c
  5944   000954  EFAE  F004         	goto	i2u218_41
  5945   000958  EFB0  F004         	goto	i2u218_40
  5946   00095C                     i2u218_41:
  5947   00095C  EF11  F006         	goto	i2l510
  5948   000960                     i2u218_40:
  5949   000960                     
  5950                           ; BSR set to: 4
  5951   000960  0E20               	movlw	32
  5952   000962  184B               	xorwf	_USBDeviceState^0,w,c	;volatile
  5953   000964  A4D8               	btfss	status,2,c
  5954   000966  EFB7  F004         	goto	i2u219_41
  5955   00096A  EFB9  F004         	goto	i2u219_40
  5956   00096E                     i2u219_41:
  5957   00096E  EF11  F006         	goto	i2l510
  5958   000972                     i2u219_40:
  5959   000972                     
  5960                           ; BSR set to: 4
  5961                           ;../../../../../../framework/usb/src/usb_device.c: 2787:     {;../../../../../../framewo
      +                          rk/usb/src/usb_device.c: 2790:   inPipes[0].info.bits.busy = 1;
  5962   000972  0100               	movlb	0	; () banked
  5963   000974  8F6B               	bsf	(_inPipes+3)& (0+255),7,b	;volatile
  5964                           
  5965                           ;../../../../../../framework/usb/src/usb_device.c: 2793:         if(SetupPkt.EPDir == 0)
  5966   000976  0104               	movlb	4	; () banked
  5967   000978  BF24               	btfsc	36,7,b	;volatile
  5968   00097A  EFC1  F004         	goto	i2u220_41
  5969   00097E  EFC3  F004         	goto	i2u220_40
  5970   000982                     i2u220_41:
  5971   000982  EFE0  F004         	goto	i2l3913
  5972   000986                     i2u220_40:
  5973   000986                     
  5974                           ; BSR set to: 4
  5975                           ;../../../../../../framework/usb/src/usb_device.c: 2794:         {;../../../../../../fra
      +                          mework/usb/src/usb_device.c: 2795:             p = (BDT_ENTRY*)pBDTEntryOut[SetupPkt.EPN
      +                          um];
  5976   000986  5124               	movf	36,w,b	;volatile
  5977   000988  0B0F               	andlw	15
  5978   00098A  6E17               	movwf	??_USBStdFeatureReqHandler^0,c
  5979   00098C  5017               	movf	??_USBStdFeatureReqHandler^0,w,c
  5980   00098E  0D02               	mullw	2
  5981   000990  0E72               	movlw	low _pBDTEntryOut
  5982   000992  24F3               	addwf	243,w,c
  5983   000994  6ED9               	movwf	fsr2l,c
  5984   000996  0E00               	movlw	high _pBDTEntryOut
  5985   000998  20F4               	addwfc	prodh,w,c
  5986   00099A  6EDA               	movwf	fsr2h,c
  5987   00099C  CFDE F01C          	movff	postinc2,USBStdFeatureReqHandler@p
  5988   0009A0  CFDD F01D          	movff	postdec2,USBStdFeatureReqHandler@p+1
  5989   0009A4                     
  5990                           ; BSR set to: 4
  5991                           ;../../../../../../framework/usb/src/usb_device.c: 2796:             current_ep_data.Val
      +                           = ep_data_out[SetupPkt.EPNum].Val;
  5992   0009A4  5124               	movf	36,w,b	;volatile
  5993   0009A6  0B0F               	andlw	15
  5994   0009A8  6E17               	movwf	??_USBStdFeatureReqHandler^0,c
  5995   0009AA  6A18               	clrf	(??_USBStdFeatureReqHandler+1)^0,c
  5996   0009AC  0E7A               	movlw	low _ep_data_out
  5997   0009AE  2417               	addwf	??_USBStdFeatureReqHandler^0,w,c
  5998   0009B0  6ED9               	movwf	fsr2l,c
  5999   0009B2  0E00               	movlw	high _ep_data_out
  6000   0009B4  2018               	addwfc	(??_USBStdFeatureReqHandler+1)^0,w,c
  6001   0009B6  6EDA               	movwf	fsr2h,c
  6002   0009B8  50DF               	movf	indf2,w,c
  6003   0009BA  6E1B               	movwf	USBStdFeatureReqHandler@current_ep_data^0,c
  6004                           
  6005                           ;../../../../../../framework/usb/src/usb_device.c: 2797:         }
  6006   0009BC  EFFB  F004         	goto	i2l3917
  6007   0009C0                     i2l3913:
  6008                           
  6009                           ; BSR set to: 4
  6010                           ;../../../../../../framework/usb/src/usb_device.c: 2799:         {;../../../../../../fra
      +                          mework/usb/src/usb_device.c: 2800:             p = (BDT_ENTRY*)pBDTEntryIn[SetupPkt.EPNu
      +                          m];
  6011   0009C0  5124               	movf	36,w,b	;volatile
  6012   0009C2  0B0F               	andlw	15
  6013   0009C4  6E17               	movwf	??_USBStdFeatureReqHandler^0,c
  6014   0009C6  5017               	movf	??_USBStdFeatureReqHandler^0,w,c
  6015   0009C8  0D02               	mullw	2
  6016   0009CA  0E6E               	movlw	low _pBDTEntryIn
  6017   0009CC  24F3               	addwf	243,w,c
  6018   0009CE  6ED9               	movwf	fsr2l,c
  6019   0009D0  0E00               	movlw	high _pBDTEntryIn
  6020   0009D2  20F4               	addwfc	prodh,w,c
  6021   0009D4  6EDA               	movwf	fsr2h,c
  6022   0009D6  CFDE F01C          	movff	postinc2,USBStdFeatureReqHandler@p
  6023   0009DA  CFDD F01D          	movff	postdec2,USBStdFeatureReqHandler@p+1
  6024   0009DE                     
  6025                           ; BSR set to: 4
  6026                           ;../../../../../../framework/usb/src/usb_device.c: 2801:             current_ep_data.Val
      +                           = ep_data_in[SetupPkt.EPNum].Val;
  6027   0009DE  5124               	movf	36,w,b	;volatile
  6028   0009E0  0B0F               	andlw	15
  6029   0009E2  6E17               	movwf	??_USBStdFeatureReqHandler^0,c
  6030   0009E4  6A18               	clrf	(??_USBStdFeatureReqHandler+1)^0,c
  6031   0009E6  0E7C               	movlw	low _ep_data_in
  6032   0009E8  2417               	addwf	??_USBStdFeatureReqHandler^0,w,c
  6033   0009EA  6ED9               	movwf	fsr2l,c
  6034   0009EC  0E00               	movlw	high _ep_data_in
  6035   0009EE  2018               	addwfc	(??_USBStdFeatureReqHandler+1)^0,w,c
  6036   0009F0  6EDA               	movwf	fsr2h,c
  6037   0009F2  50DF               	movf	indf2,w,c
  6038   0009F4  6E1B               	movwf	USBStdFeatureReqHandler@current_ep_data^0,c
  6039   0009F6                     i2l3917:
  6040                           
  6041                           ; BSR set to: 4
  6042                           ;../../../../../../framework/usb/src/usb_device.c: 2808:             if(current_ep_data.
      +                          bits.ping_pong_state == 0)
  6043   0009F6  B01B               	btfsc	USBStdFeatureReqHandler@current_ep_data^0,0,c
  6044   0009F8  EF00  F005         	goto	i2u221_41
  6045   0009FC  EF02  F005         	goto	i2u221_40
  6046   000A00                     i2u221_41:
  6047   000A00  EF0A  F005         	goto	i2l3921
  6048   000A04                     i2u221_40:
  6049   000A04                     
  6050                           ; BSR set to: 4
  6051                           ;../../../../../../framework/usb/src/usb_device.c: 2809:             {;../../../../../..
      +                          /framework/usb/src/usb_device.c: 2810:                 p = (BDT_ENTRY*)(((uint16_t)p) & 
      +                          (~0x0004));
  6052   000A04  0EFB               	movlw	251
  6053   000A06  141C               	andwf	USBStdFeatureReqHandler@p^0,w,c
  6054   000A08  6E1C               	movwf	USBStdFeatureReqHandler@p^0,c
  6055   000A0A  0EFF               	movlw	255
  6056   000A0C  141D               	andwf	(USBStdFeatureReqHandler@p+1)^0,w,c
  6057   000A0E  6E1D               	movwf	(USBStdFeatureReqHandler@p+1)^0,c
  6058                           
  6059                           ;../../../../../../framework/usb/src/usb_device.c: 2811:             }
  6060   000A10  EF0F  F005         	goto	i2l3923
  6061   000A14                     i2l3921:
  6062                           
  6063                           ; BSR set to: 4
  6064                           ;../../../../../../framework/usb/src/usb_device.c: 2813:             {;../../../../../..
      +                          /framework/usb/src/usb_device.c: 2814:                 p = (BDT_ENTRY*)(((uint16_t)p) | 
      +                          0x0004);
  6065   000A14  0E04               	movlw	4
  6066   000A16  101C               	iorwf	USBStdFeatureReqHandler@p^0,w,c
  6067   000A18  6E1C               	movwf	USBStdFeatureReqHandler@p^0,c
  6068   000A1A  501D               	movf	(USBStdFeatureReqHandler@p+1)^0,w,c
  6069   000A1C  6E1D               	movwf	(USBStdFeatureReqHandler@p+1)^0,c
  6070   000A1E                     i2l3923:
  6071                           
  6072                           ; BSR set to: 4
  6073                           ;../../../../../../framework/usb/src/usb_device.c: 2820:         if(SetupPkt.EPDir == 0)
  6074   000A1E  BF24               	btfsc	36,7,b	;volatile
  6075   000A20  EF14  F005         	goto	i2u222_41
  6076   000A24  EF16  F005         	goto	i2u222_40
  6077   000A28                     i2u222_41:
  6078   000A28  EF27  F005         	goto	i2l3927
  6079   000A2C                     i2u222_40:
  6080   000A2C                     
  6081                           ; BSR set to: 4
  6082                           ;../../../../../../framework/usb/src/usb_device.c: 2821:         {;../../../../../../fra
      +                          mework/usb/src/usb_device.c: 2822:             pBDTEntryOut[SetupPkt.EPNum] = (volatile 
      +                          BDT_ENTRY *)p;
  6083   000A2C  5124               	movf	36,w,b	;volatile
  6084   000A2E  0B0F               	andlw	15
  6085   000A30  6E17               	movwf	??_USBStdFeatureReqHandler^0,c
  6086   000A32  5017               	movf	??_USBStdFeatureReqHandler^0,w,c
  6087   000A34  0D02               	mullw	2
  6088   000A36  0E72               	movlw	low _pBDTEntryOut
  6089   000A38  24F3               	addwf	243,w,c
  6090   000A3A  6ED9               	movwf	fsr2l,c
  6091   000A3C  0E00               	movlw	high _pBDTEntryOut
  6092   000A3E  20F4               	addwfc	prodh,w,c
  6093   000A40  6EDA               	movwf	fsr2h,c
  6094   000A42  C01C  FFDE         	movff	USBStdFeatureReqHandler@p,postinc2
  6095   000A46  C01D  FFDD         	movff	USBStdFeatureReqHandler@p+1,postdec2
  6096                           
  6097                           ;../../../../../../framework/usb/src/usb_device.c: 2823:         }
  6098   000A4A  EF36  F005         	goto	i2l3929
  6099   000A4E                     i2l3927:
  6100                           
  6101                           ; BSR set to: 4
  6102                           ;../../../../../../framework/usb/src/usb_device.c: 2825:         {;../../../../../../fra
      +                          mework/usb/src/usb_device.c: 2826:             pBDTEntryIn[SetupPkt.EPNum] = (volatile B
      +                          DT_ENTRY *)p;
  6103   000A4E  5124               	movf	36,w,b	;volatile
  6104   000A50  0B0F               	andlw	15
  6105   000A52  6E17               	movwf	??_USBStdFeatureReqHandler^0,c
  6106   000A54  5017               	movf	??_USBStdFeatureReqHandler^0,w,c
  6107   000A56  0D02               	mullw	2
  6108   000A58  0E6E               	movlw	low _pBDTEntryIn
  6109   000A5A  24F3               	addwf	243,w,c
  6110   000A5C  6ED9               	movwf	fsr2l,c
  6111   000A5E  0E00               	movlw	high _pBDTEntryIn
  6112   000A60  20F4               	addwfc	prodh,w,c
  6113   000A62  6EDA               	movwf	fsr2h,c
  6114   000A64  C01C  FFDE         	movff	USBStdFeatureReqHandler@p,postinc2
  6115   000A68  C01D  FFDD         	movff	USBStdFeatureReqHandler@p+1,postdec2
  6116   000A6C                     i2l3929:
  6117                           
  6118                           ; BSR set to: 4
  6119                           ;../../../../../../framework/usb/src/usb_device.c: 2830:         if(SetupPkt.bRequest ==
      +                           3)
  6120   000A6C  0E03               	movlw	3
  6121   000A6E  1921               	xorwf	33,w,b	;volatile
  6122   000A70  A4D8               	btfss	status,2,c
  6123   000A72  EF3D  F005         	goto	i2u223_41
  6124   000A76  EF3F  F005         	goto	i2u223_40
  6125   000A7A                     i2u223_41:
  6126   000A7A  EF79  F005         	goto	i2l3939
  6127   000A7E                     i2u223_40:
  6128   000A7E                     
  6129                           ; BSR set to: 4
  6130                           ;../../../../../../framework/usb/src/usb_device.c: 2831:         {;../../../../../../fra
      +                          mework/usb/src/usb_device.c: 2832:             if(p->STAT.UOWN == 1)
  6131   000A7E  C01C  FFD9         	movff	USBStdFeatureReqHandler@p,fsr2l
  6132   000A82  C01D  FFDA         	movff	USBStdFeatureReqHandler@p+1,fsr2h
  6133   000A86  AEDF               	btfss	indf2,7,c
  6134   000A88  EF48  F005         	goto	i2u224_41
  6135   000A8C  EF4A  F005         	goto	i2u224_40
  6136   000A90                     i2u224_41:
  6137   000A90  EF6B  F005         	goto	i2l498
  6138   000A94                     i2u224_40:
  6139   000A94                     
  6140                           ; BSR set to: 4
  6141                           ;../../../../../../framework/usb/src/usb_device.c: 2833:             {;../../../../../..
      +                          /framework/usb/src/usb_device.c: 2836:                 if(SetupPkt.EPDir == 0)
  6142   000A94  BF24               	btfsc	36,7,b	;volatile
  6143   000A96  EF4F  F005         	goto	i2u225_41
  6144   000A9A  EF51  F005         	goto	i2u225_40
  6145   000A9E                     i2u225_41:
  6146   000A9E  EF5F  F005         	goto	i2l3937
  6147   000AA2                     i2u225_40:
  6148   000AA2                     
  6149                           ; BSR set to: 4
  6150                           ;../../../../../../framework/usb/src/usb_device.c: 2837:                 {;../../../../.
      +                          ./../framework/usb/src/usb_device.c: 2838:                     ep_data_out[SetupPkt.EPNu
      +                          m].bits.transfer_terminated = 1;
  6151   000AA2  5124               	movf	36,w,b	;volatile
  6152   000AA4  0B0F               	andlw	15
  6153   000AA6  6E17               	movwf	??_USBStdFeatureReqHandler^0,c
  6154   000AA8  6A18               	clrf	(??_USBStdFeatureReqHandler+1)^0,c
  6155   000AAA  0E7A               	movlw	low _ep_data_out
  6156   000AAC  2417               	addwf	??_USBStdFeatureReqHandler^0,w,c
  6157   000AAE  6ED9               	movwf	fsr2l,c
  6158   000AB0  0E00               	movlw	high _ep_data_out
  6159   000AB2  2018               	addwfc	(??_USBStdFeatureReqHandler+1)^0,w,c
  6160   000AB4  6EDA               	movwf	fsr2h,c
  6161   000AB6  0100               	movlb	0	; () banked
  6162   000AB8  82DF               	bsf	indf2,1,c
  6163                           
  6164                           ;../../../../../../framework/usb/src/usb_device.c: 2839:                 }
  6165   000ABA  EF6B  F005         	goto	i2l498
  6166   000ABE                     i2l3937:
  6167                           
  6168                           ; BSR set to: 4
  6169                           ;../../../../../../framework/usb/src/usb_device.c: 2841:                 {;../../../../.
      +                          ./../framework/usb/src/usb_device.c: 2842:                     ep_data_in[SetupPkt.EPNum
      +                          ].bits.transfer_terminated = 1;
  6170   000ABE  5124               	movf	36,w,b	;volatile
  6171   000AC0  0B0F               	andlw	15
  6172   000AC2  6E17               	movwf	??_USBStdFeatureReqHandler^0,c
  6173   000AC4  6A18               	clrf	(??_USBStdFeatureReqHandler+1)^0,c
  6174   000AC6  0E7C               	movlw	low _ep_data_in
  6175   000AC8  2417               	addwf	??_USBStdFeatureReqHandler^0,w,c
  6176   000ACA  6ED9               	movwf	fsr2l,c
  6177   000ACC  0E00               	movlw	high _ep_data_in
  6178   000ACE  2018               	addwfc	(??_USBStdFeatureReqHandler+1)^0,w,c
  6179   000AD0  6EDA               	movwf	fsr2h,c
  6180   000AD2  0100               	movlb	0	; () banked
  6181   000AD4  82DF               	bsf	indf2,1,c
  6182   000AD6                     i2l498:
  6183                           
  6184                           ;../../../../../../framework/usb/src/usb_device.c: 2847:             p->STAT.Val |= 0x04
      +                          ;
  6185   000AD6  C01C  FFD9         	movff	USBStdFeatureReqHandler@p,fsr2l
  6186   000ADA  C01D  FFDA         	movff	USBStdFeatureReqHandler@p+1,fsr2h
  6187   000ADE  0E00               	movlw	0
  6188   000AE0  84DB               	bsf	plusw2,2,c
  6189                           
  6190                           ;../../../../../../framework/usb/src/usb_device.c: 2848:             p->STAT.Val |= 0x80
      +                          ;
  6191   000AE2  C01C  FFD9         	movff	USBStdFeatureReqHandler@p,fsr2l
  6192   000AE6  C01D  FFDA         	movff	USBStdFeatureReqHandler@p+1,fsr2h
  6193   000AEA  0E00               	movlw	0
  6194   000AEC  8EDB               	bsf	plusw2,7,c
  6195                           
  6196                           ;../../../../../../framework/usb/src/usb_device.c: 2849:         }
  6197   000AEE  EF11  F006         	goto	i2l510
  6198   000AF2                     i2l3939:
  6199                           
  6200                           ; BSR set to: 4
  6201                           ;../../../../../../framework/usb/src/usb_device.c: 2851:         {;../../../../../../fra
      +                          mework/usb/src/usb_device.c: 2855:                 p = (BDT_ENTRY*)(((uint16_t)p) ^ 0x00
      +                          04);
  6202   000AF2  0E04               	movlw	4
  6203   000AF4  181C               	xorwf	USBStdFeatureReqHandler@p^0,w,c
  6204   000AF6  6E1C               	movwf	USBStdFeatureReqHandler@p^0,c
  6205   000AF8  501D               	movf	(USBStdFeatureReqHandler@p+1)^0,w,c
  6206   000AFA  6E1D               	movwf	(USBStdFeatureReqHandler@p+1)^0,c
  6207   000AFC                     
  6208                           ; BSR set to: 4
  6209                           ;../../../../../../framework/usb/src/usb_device.c: 2857:                 if(p->STAT.UOWN
      +                           == 1)
  6210   000AFC  C01C  FFD9         	movff	USBStdFeatureReqHandler@p,fsr2l
  6211   000B00  C01D  FFDA         	movff	USBStdFeatureReqHandler@p+1,fsr2h
  6212   000B04  AEDF               	btfss	indf2,7,c
  6213   000B06  EF87  F005         	goto	i2u226_41
  6214   000B0A  EF89  F005         	goto	i2u226_40
  6215   000B0E                     i2u226_41:
  6216   000B0E  EFA5  F005         	goto	i2l3949
  6217   000B12                     i2u226_40:
  6218   000B12                     
  6219                           ; BSR set to: 4
  6220                           ;../../../../../../framework/usb/src/usb_device.c: 2858:                 {;../../../../.
      +                          ./../framework/usb/src/usb_device.c: 2861:                     p->STAT.Val &= (~0x80);
  6221   000B12  C01C  FFD9         	movff	USBStdFeatureReqHandler@p,fsr2l
  6222   000B16  C01D  FFDA         	movff	USBStdFeatureReqHandler@p+1,fsr2h
  6223   000B1A  0E7F               	movlw	127
  6224   000B1C  16DF               	andwf	indf2,f,c
  6225   000B1E                     
  6226                           ; BSR set to: 4
  6227                           ;../../../../../../framework/usb/src/usb_device.c: 2862:                     p->STAT.Val
      +                           |= 0x40;
  6228   000B1E  C01C  FFD9         	movff	USBStdFeatureReqHandler@p,fsr2l
  6229   000B22  C01D  FFDA         	movff	USBStdFeatureReqHandler@p+1,fsr2h
  6230   000B26  0E00               	movlw	0
  6231   000B28  8CDB               	bsf	plusw2,6,c
  6232   000B2A                     
  6233                           ; BSR set to: 4
  6234                           ;../../../../../../framework/usb/src/usb_device.c: 2863:                     USER_USB_CA
      +                          LLBACK_EVENT_HANDLER((USB_EVENT)EVENT_TRANSFER_TERMINATED,p,sizeof(p));
  6235   000B2A  0E00               	movlw	0
  6236   000B2C  6E10               	movwf	(USER_USB_CALLBACK_EVENT_HANDLER@event+1)^0,c
  6237   000B2E  0E05               	movlw	5
  6238   000B30  6E0F               	movwf	USER_USB_CALLBACK_EVENT_HANDLER@event^0,c
  6239   000B32  C01C  F011         	movff	USBStdFeatureReqHandler@p,USER_USB_CALLBACK_EVENT_HANDLER@pdata
  6240   000B36  C01D  F012         	movff	USBStdFeatureReqHandler@p+1,USER_USB_CALLBACK_EVENT_HANDLER@pdata+1
  6241   000B3A  0E00               	movlw	0
  6242   000B3C  6E14               	movwf	(USER_USB_CALLBACK_EVENT_HANDLER@size+1)^0,c
  6243   000B3E  0E02               	movlw	2
  6244   000B40  6E13               	movwf	USER_USB_CALLBACK_EVENT_HANDLER@size^0,c
  6245   000B42  EC41  F013         	call	_USER_USB_CALLBACK_EVENT_HANDLER	;wreg free
  6246                           
  6247                           ;../../../../../../framework/usb/src/usb_device.c: 2864:                 }
  6248   000B46  EFAB  F005         	goto	i2l3951
  6249   000B4A                     i2l3949:
  6250                           
  6251                           ; BSR set to: 4
  6252                           ;../../../../../../framework/usb/src/usb_device.c: 2866:                 {;../../../../.
      +                          ./../framework/usb/src/usb_device.c: 2868:      p->STAT.Val |= 0x40;
  6253   000B4A  C01C  FFD9         	movff	USBStdFeatureReqHandler@p,fsr2l
  6254   000B4E  C01D  FFDA         	movff	USBStdFeatureReqHandler@p+1,fsr2h
  6255   000B52  0E00               	movlw	0
  6256   000B54  8CDB               	bsf	plusw2,6,c
  6257   000B56                     i2l3951:
  6258                           
  6259                           ;../../../../../../framework/usb/src/usb_device.c: 2873:                 p = (BDT_ENTRY*
      +                          )(((uint16_t)p) ^ 0x0004);
  6260   000B56  0E04               	movlw	4
  6261   000B58  181C               	xorwf	USBStdFeatureReqHandler@p^0,w,c
  6262   000B5A  6E1C               	movwf	USBStdFeatureReqHandler@p^0,c
  6263   000B5C  501D               	movf	(USBStdFeatureReqHandler@p+1)^0,w,c
  6264   000B5E  6E1D               	movwf	(USBStdFeatureReqHandler@p+1)^0,c
  6265   000B60                     
  6266                           ;../../../../../../framework/usb/src/usb_device.c: 2879:                 if((current_ep_
      +                          data.bits.transfer_terminated != 0) || (p->STAT.UOWN == 1))
  6267   000B60  B21B               	btfsc	USBStdFeatureReqHandler@current_ep_data^0,1,c
  6268   000B62  EFB5  F005         	goto	i2u227_41
  6269   000B66  EFB7  F005         	goto	i2u227_40
  6270   000B6A                     i2u227_41:
  6271   000B6A  EFC2  F005         	goto	i2l506
  6272   000B6E                     i2u227_40:
  6273   000B6E  C01C  FFD9         	movff	USBStdFeatureReqHandler@p,fsr2l
  6274   000B72  C01D  FFDA         	movff	USBStdFeatureReqHandler@p+1,fsr2h
  6275   000B76  AEDF               	btfss	indf2,7,c
  6276   000B78  EFC0  F005         	goto	i2u228_41
  6277   000B7C  EFC2  F005         	goto	i2u228_40
  6278   000B80                     i2u228_41:
  6279   000B80  EFFA  F005         	goto	i2l3965
  6280   000B84                     i2u228_40:
  6281   000B84                     i2l506:
  6282                           
  6283                           ;../../../../../../framework/usb/src/usb_device.c: 2880:                 {;../../../../.
      +                          ./../framework/usb/src/usb_device.c: 2881:                     if(SetupPkt.EPDir == 0)
  6284   000B84  0104               	movlb	4	; () banked
  6285   000B86  BF24               	btfsc	36,7,b	;volatile
  6286   000B88  EFC8  F005         	goto	i2u229_41
  6287   000B8C  EFCA  F005         	goto	i2u229_40
  6288   000B90                     i2u229_41:
  6289   000B90  EFD8  F005         	goto	i2l3959
  6290   000B94                     i2u229_40:
  6291   000B94                     
  6292                           ; BSR set to: 4
  6293                           ;../../../../../../framework/usb/src/usb_device.c: 2882:                     {;../../../
      +                          ../../../framework/usb/src/usb_device.c: 2883:                         ep_data_out[Setup
      +                          Pkt.EPNum].bits.transfer_terminated = 0;
  6294   000B94  5124               	movf	36,w,b	;volatile
  6295   000B96  0B0F               	andlw	15
  6296   000B98  6E17               	movwf	??_USBStdFeatureReqHandler^0,c
  6297   000B9A  6A18               	clrf	(??_USBStdFeatureReqHandler+1)^0,c
  6298   000B9C  0E7A               	movlw	low _ep_data_out
  6299   000B9E  2417               	addwf	??_USBStdFeatureReqHandler^0,w,c
  6300   000BA0  6ED9               	movwf	fsr2l,c
  6301   000BA2  0E00               	movlw	high _ep_data_out
  6302   000BA4  2018               	addwfc	(??_USBStdFeatureReqHandler+1)^0,w,c
  6303   000BA6  6EDA               	movwf	fsr2h,c
  6304   000BA8  0100               	movlb	0	; () banked
  6305   000BAA  92DF               	bcf	indf2,1,c
  6306                           
  6307                           ;../../../../../../framework/usb/src/usb_device.c: 2884:                     }
  6308   000BAC  EFE4  F005         	goto	i2l3961
  6309   000BB0                     i2l3959:
  6310                           
  6311                           ; BSR set to: 4
  6312                           ;../../../../../../framework/usb/src/usb_device.c: 2886:                     {;../../../
      +                          ../../../framework/usb/src/usb_device.c: 2887:                         ep_data_in[SetupP
      +                          kt.EPNum].bits.transfer_terminated = 0;
  6313   000BB0  5124               	movf	36,w,b	;volatile
  6314   000BB2  0B0F               	andlw	15
  6315   000BB4  6E17               	movwf	??_USBStdFeatureReqHandler^0,c
  6316   000BB6  6A18               	clrf	(??_USBStdFeatureReqHandler+1)^0,c
  6317   000BB8  0E7C               	movlw	low _ep_data_in
  6318   000BBA  2417               	addwf	??_USBStdFeatureReqHandler^0,w,c
  6319   000BBC  6ED9               	movwf	fsr2l,c
  6320   000BBE  0E00               	movlw	high _ep_data_in
  6321   000BC0  2018               	addwfc	(??_USBStdFeatureReqHandler+1)^0,w,c
  6322   000BC2  6EDA               	movwf	fsr2h,c
  6323   000BC4  0100               	movlb	0	; () banked
  6324   000BC6  92DF               	bcf	indf2,1,c
  6325   000BC8                     i2l3961:
  6326                           
  6327                           ; BSR set to: 0
  6328                           ;../../../../../../framework/usb/src/usb_device.c: 2890:                     p->STAT.Val
      +                           &= ~(0x80 | 0x40 | 0x04);
  6329   000BC8  C01C  FFD9         	movff	USBStdFeatureReqHandler@p,fsr2l
  6330   000BCC  C01D  FFDA         	movff	USBStdFeatureReqHandler@p+1,fsr2h
  6331   000BD0  0E3B               	movlw	59
  6332   000BD2  16DF               	andwf	indf2,f,c
  6333   000BD4                     
  6334                           ; BSR set to: 0
  6335                           ;../../../../../../framework/usb/src/usb_device.c: 2893:                     USER_USB_CA
      +                          LLBACK_EVENT_HANDLER((USB_EVENT)EVENT_TRANSFER_TERMINATED,p,sizeof(p));
  6336   000BD4  0E00               	movlw	0
  6337   000BD6  6E10               	movwf	(USER_USB_CALLBACK_EVENT_HANDLER@event+1)^0,c
  6338   000BD8  0E05               	movlw	5
  6339   000BDA  6E0F               	movwf	USER_USB_CALLBACK_EVENT_HANDLER@event^0,c
  6340   000BDC  C01C  F011         	movff	USBStdFeatureReqHandler@p,USER_USB_CALLBACK_EVENT_HANDLER@pdata
  6341   000BE0  C01D  F012         	movff	USBStdFeatureReqHandler@p+1,USER_USB_CALLBACK_EVENT_HANDLER@pdata+1
  6342   000BE4  0E00               	movlw	0
  6343   000BE6  6E14               	movwf	(USER_USB_CALLBACK_EVENT_HANDLER@size+1)^0,c
  6344   000BE8  0E02               	movlw	2
  6345   000BEA  6E13               	movwf	USER_USB_CALLBACK_EVENT_HANDLER@size^0,c
  6346   000BEC  EC41  F013         	call	_USER_USB_CALLBACK_EVENT_HANDLER	;wreg free
  6347                           
  6348                           ;../../../../../../framework/usb/src/usb_device.c: 2894:                 }
  6349   000BF0  EF00  F006         	goto	i2l3967
  6350   000BF4                     i2l3965:
  6351                           
  6352                           ;../../../../../../framework/usb/src/usb_device.c: 2896:                 {;../../../../.
      +                          ./../framework/usb/src/usb_device.c: 2898:                     p->STAT.Val &= ~(0x80 | 0
      +                          x40 | 0x04);
  6353   000BF4  C01C  FFD9         	movff	USBStdFeatureReqHandler@p,fsr2l
  6354   000BF8  C01D  FFDA         	movff	USBStdFeatureReqHandler@p+1,fsr2h
  6355   000BFC  0E3B               	movlw	59
  6356   000BFE  16DF               	andwf	indf2,f,c
  6357   000C00                     i2l3967:
  6358                           
  6359                           ;../../../../../../framework/usb/src/usb_device.c: 2946:                 pUEP = (unsigne
      +                          d char*)(&UEP0+SetupPkt.EPNum);
  6360   000C00  0104               	movlb	4	; () banked
  6361   000C02  5124               	movf	36,w,b	;volatile
  6362   000C04  0B0F               	andlw	15
  6363   000C06  6E17               	movwf	??_USBStdFeatureReqHandler^0,c
  6364   000C08  6A18               	clrf	(??_USBStdFeatureReqHandler+1)^0,c
  6365   000C0A  0E70               	movlw	112
  6366   000C0C  2417               	addwf	??_USBStdFeatureReqHandler^0,w,c
  6367   000C0E  6E19               	movwf	USBStdFeatureReqHandler@pUEP^0,c
  6368   000C10  0E0F               	movlw	15
  6369   000C12  2018               	addwfc	(??_USBStdFeatureReqHandler+1)^0,w,c
  6370   000C14  6E1A               	movwf	(USBStdFeatureReqHandler@pUEP+1)^0,c
  6371   000C16                     
  6372                           ; BSR set to: 4
  6373                           ;../../../../../../framework/usb/src/usb_device.c: 2950:             *pUEP &= ~0x0001;
  6374   000C16  C019  FFD9         	movff	USBStdFeatureReqHandler@pUEP,fsr2l
  6375   000C1A  C01A  FFDA         	movff	USBStdFeatureReqHandler@pUEP+1,fsr2h
  6376   000C1E  0EFE               	movlw	254
  6377   000C20  16DF               	andwf	indf2,f,c
  6378   000C22                     i2l510:
  6379   000C22  0012               	return		;funcret
  6380   000C24                     __end_of_USBStdFeatureReqHandler:
  6381                           	callstack 0
  6382                           
  6383 ;; *************** function _USER_USB_CALLBACK_EVENT_HANDLER *****************
  6384 ;; Defined at:
  6385 ;;		line 51 in file "../demo_src/usb_events.c"
  6386 ;; Parameters:    Size  Location     Type
  6387 ;;  event           2   14[COMRAM] enum E3450
  6388 ;;  pdata           2   16[COMRAM] PTR void 
  6389 ;;		 -> RAM(2047), USTATcopy(1), USBActiveConfiguration(1), NULL(0), 
  6390 ;;		 -> BDT(32), 
  6391 ;;  size            2   18[COMRAM] unsigned short 
  6392 ;; Auto vars:     Size  Location     Type
  6393 ;;		None
  6394 ;; Return value:  Size  Location     Type
  6395 ;;                  1    wreg      _Bool 
  6396 ;; Registers used:
  6397 ;;		wreg, fsr2l, fsr2h, status,2, status,0, prodl, prodh, cstack
  6398 ;; Tracked objects:
  6399 ;;		On entry : 0/0
  6400 ;;		On exit  : 0/0
  6401 ;;		Unchanged: 0/0
  6402 ;; Data sizes:     COMRAM   BANK0   BANK1   BANK2   BANK3   BANK4   BANK5   BANK6   BANK7
  6403 ;;      Params:         6       0       0       0       0       0       0       0       0
  6404 ;;      Locals:         0       0       0       0       0       0       0       0       0
  6405 ;;      Temps:          2       0       0       0       0       0       0       0       0
  6406 ;;      Totals:         8       0       0       0       0       0       0       0       0
  6407 ;;Total ram usage:        8 bytes
  6408 ;; Hardware stack levels used: 1
  6409 ;; Hardware stack levels required when called: 3
  6410 ;; This function calls:
  6411 ;;		_APP_DeviceCustomHIDInitialize
  6412 ;;		_APP_LEDUpdateUSBStatus
  6413 ;;		_USBCheckHIDRequest
  6414 ;;		i2_SYSTEM_Initialize
  6415 ;; This function is called by:
  6416 ;;		_USBDeviceTasks
  6417 ;;		_USBStdSetCfgHandler
  6418 ;;		_USBSuspend
  6419 ;;		_USBWakeFromSuspend
  6420 ;;		_USBCtrlTrfSetupHandler
  6421 ;;		_USBCheckStdRequest
  6422 ;;		_USBStdFeatureReqHandler
  6423 ;; This function uses a non-reentrant model
  6424 ;;
  6425                           
  6426                           	psect	text32
  6427   002682                     __ptext32:
  6428                           	callstack 0
  6429   002682                     _USER_USB_CALLBACK_EVENT_HANDLER:
  6430                           	callstack 23
  6431   002682                     
  6432                           ;../demo_src/usb_events.c: 51: _Bool USER_USB_CALLBACK_EVENT_HANDLER(USB_EVENT event, vo
      +                          id *pdata, uint16_t size);../demo_src/usb_events.c: 52: {;../demo_src/usb_events.c: 53: 
      +                              switch((int)event)
  6433   002682  EF5D  F013         	goto	i2l3635
  6434   002686                     i2l3623:
  6435                           
  6436                           ;../demo_src/usb_events.c: 61:             APP_LEDUpdateUSBStatus();
  6437   002686  ECCE  F010         	call	_APP_LEDUpdateUSBStatus	;wreg free
  6438                           
  6439                           ;../demo_src/usb_events.c: 62:             break;
  6440   00268A  EF96  F013         	goto	i2l594
  6441   00268E                     i2l3625:
  6442                           
  6443                           ;../demo_src/usb_events.c: 66:             APP_LEDUpdateUSBStatus();
  6444   00268E  ECCE  F010         	call	_APP_LEDUpdateUSBStatus	;wreg free
  6445                           
  6446                           ;../demo_src/usb_events.c: 74:             SYSTEM_Initialize(SYSTEM_STATE_USB_SUSPEND);
  6447   002692  0E01               	movlw	1
  6448   002694  EC11  F016         	call	i2_SYSTEM_Initialize
  6449                           
  6450                           ;../demo_src/usb_events.c: 75:             break;
  6451   002698  EF96  F013         	goto	i2l594
  6452   00269C                     i2l3627:
  6453                           
  6454                           ;../demo_src/usb_events.c: 79:             APP_LEDUpdateUSBStatus();
  6455   00269C  ECCE  F010         	call	_APP_LEDUpdateUSBStatus	;wreg free
  6456                           
  6457                           ;../demo_src/usb_events.c: 85:             SYSTEM_Initialize(SYSTEM_STATE_USB_RESUME);
  6458   0026A0  0E02               	movlw	2
  6459   0026A2  EC11  F016         	call	i2_SYSTEM_Initialize
  6460                           
  6461                           ;../demo_src/usb_events.c: 86:             break;
  6462   0026A6  EF96  F013         	goto	i2l594
  6463   0026AA                     i2l3629:
  6464                           
  6465                           ;../demo_src/usb_events.c: 91:             APP_DeviceCustomHIDInitialize();
  6466   0026AA  EC15  F017         	call	_APP_DeviceCustomHIDInitialize	;wreg free
  6467                           
  6468                           ;../demo_src/usb_events.c: 92:             break;
  6469   0026AE  EF96  F013         	goto	i2l594
  6470   0026B2                     i2l3631:
  6471                           
  6472                           ;../demo_src/usb_events.c: 100:             USBCheckHIDRequest();
  6473   0026B2  EC21  F00A         	call	_USBCheckHIDRequest	;wreg free
  6474                           
  6475                           ;../demo_src/usb_events.c: 101:             break;
  6476   0026B6  EF96  F013         	goto	i2l594
  6477   0026BA                     i2l3635:
  6478   0026BA  C00F  F015         	movff	USER_USB_CALLBACK_EVENT_HANDLER@event,??_USER_USB_CALLBACK_EVENT_HANDLER
  6479   0026BE  C010  F016         	movff	USER_USB_CALLBACK_EVENT_HANDLER@event+1,??_USER_USB_CALLBACK_EVENT_HANDLER+1
  6480                           
  6481                           ; Switch on 2 bytes has been partitioned into a top level switch of size 1, and 2 sub-sw
      +                          itches
  6482                           ; Switch size 1, requested type "simple"
  6483                           ; Number of cases is 2, Range of values is 0 to 127
  6484                           ; switch strategies available:
  6485                           ; Name         Instructions Cycles
  6486                           ; simple_byte            7     4 (average)
  6487                           ;	Chosen strategy is simple_byte
  6488   0026C2  5016               	movf	(??_USER_USB_CALLBACK_EVENT_HANDLER+1)^0,w,c
  6489   0026C4  0A00               	xorlw	0	; case 0
  6490   0026C6  B4D8               	btfsc	status,2,c
  6491   0026C8  EF6C  F013         	goto	i2l5967
  6492   0026CC  0A7F               	xorlw	127	; case 127
  6493   0026CE  B4D8               	btfsc	status,2,c
  6494   0026D0  EF8F  F013         	goto	i2l5969
  6495   0026D4  EF96  F013         	goto	i2l594
  6496   0026D8                     i2l5967:
  6497                           
  6498                           ; Switch size 1, requested type "simple"
  6499                           ; Number of cases is 8, Range of values is 1 to 117
  6500                           ; switch strategies available:
  6501                           ; Name         Instructions Cycles
  6502                           ; simple_byte           25    13 (average)
  6503                           ;	Chosen strategy is simple_byte
  6504   0026D8  5015               	movf	??_USER_USB_CALLBACK_EVENT_HANDLER^0,w,c
  6505   0026DA  0A01               	xorlw	1	; case 1
  6506   0026DC  B4D8               	btfsc	status,2,c
  6507   0026DE  EF55  F013         	goto	i2l3629
  6508   0026E2  0A03               	xorlw	3	; case 2
  6509   0026E4  B4D8               	btfsc	status,2,c
  6510   0026E6  EF96  F013         	goto	i2l594
  6511   0026EA  0A01               	xorlw	1	; case 3
  6512   0026EC  B4D8               	btfsc	status,2,c
  6513   0026EE  EF59  F013         	goto	i2l3631
  6514   0026F2  0A06               	xorlw	6	; case 5
  6515   0026F4  B4D8               	btfsc	status,2,c
  6516   0026F6  EF96  F013         	goto	i2l594
  6517   0026FA  0A77               	xorlw	119	; case 114
  6518   0026FC  B4D8               	btfsc	status,2,c
  6519   0026FE  EF96  F013         	goto	i2l594
  6520   002702  0A01               	xorlw	1	; case 115
  6521   002704  B4D8               	btfsc	status,2,c
  6522   002706  EF43  F013         	goto	i2l3623
  6523   00270A  0A07               	xorlw	7	; case 116
  6524   00270C  B4D8               	btfsc	status,2,c
  6525   00270E  EF4E  F013         	goto	i2l3627
  6526   002712  0A01               	xorlw	1	; case 117
  6527   002714  B4D8               	btfsc	status,2,c
  6528   002716  EF47  F013         	goto	i2l3625
  6529   00271A  EF96  F013         	goto	i2l594
  6530   00271E                     i2l5969:
  6531                           
  6532                           ; Switch size 1, requested type "simple"
  6533                           ; Number of cases is 1, Range of values is 255 to 255
  6534                           ; switch strategies available:
  6535                           ; Name         Instructions Cycles
  6536                           ; simple_byte            4     3 (average)
  6537                           ;	Chosen strategy is simple_byte
  6538   00271E  5015               	movf	??_USER_USB_CALLBACK_EVENT_HANDLER^0,w,c
  6539   002720  0AFF               	xorlw	255	; case 255
  6540   002722  B4D8               	btfsc	status,2,c
  6541   002724  EF96  F013         	goto	i2l594
  6542   002728  EF96  F013         	goto	i2l594
  6543   00272C                     i2l594:
  6544   00272C  0012               	return		;funcret
  6545   00272E                     __end_of_USER_USB_CALLBACK_EVENT_HANDLER:
  6546                           	callstack 0
  6547                           
  6548 ;; *************** function i2_SYSTEM_Initialize *****************
  6549 ;; Defined at:
  6550 ;;		line 80 in file "system.c"
  6551 ;; Parameters:    Size  Location     Type
  6552 ;;  state           1    wreg     enum E3241
  6553 ;; Auto vars:     Size  Location     Type
  6554 ;;  state           1    5[COMRAM] enum E3241
  6555 ;; Return value:  Size  Location     Type
  6556 ;;                  1    wreg      void 
  6557 ;; Registers used:
  6558 ;;		wreg, status,2, status,0, cstack
  6559 ;; Tracked objects:
  6560 ;;		On entry : 0/0
  6561 ;;		On exit  : 0/0
  6562 ;;		Unchanged: 0/0
  6563 ;; Data sizes:     COMRAM   BANK0   BANK1   BANK2   BANK3   BANK4   BANK5   BANK6   BANK7
  6564 ;;      Params:         0       0       0       0       0       0       0       0       0
  6565 ;;      Locals:         1       0       0       0       0       0       0       0       0
  6566 ;;      Temps:          2       0       0       0       0       0       0       0       0
  6567 ;;      Totals:         3       0       0       0       0       0       0       0       0
  6568 ;;Total ram usage:        3 bytes
  6569 ;; Hardware stack levels used: 1
  6570 ;; Hardware stack levels required when called: 1
  6571 ;; This function calls:
  6572 ;;		i2_ADC_Enable
  6573 ;;		i2_ADC_SetConfiguration
  6574 ;;		i2_BUTTON_Enable
  6575 ;;		i2_LED_Enable
  6576 ;; This function is called by:
  6577 ;;		_USER_USB_CALLBACK_EVENT_HANDLER
  6578 ;; This function uses a non-reentrant model
  6579 ;;
  6580                           
  6581                           	psect	text33
  6582   002C22                     __ptext33:
  6583                           	callstack 0
  6584   002C22                     i2_SYSTEM_Initialize:
  6585                           	callstack 24
  6586                           
  6587                           ;incstack = 0
  6588                           ;i2SYSTEM_Initialize@state stored from wreg
  6589   002C22  6E06               	movwf	i2SYSTEM_Initialize@state^0,c
  6590   002C24                     
  6591                           ;system.c: 80: void SYSTEM_Initialize( SYSTEM_STATE state );system.c: 81: {;system.c: 82
      +                          :     switch(state)
  6592   002C24  EF25  F016         	goto	i2l3615
  6593   002C28                     i2l3607:
  6594                           
  6595                           ;system.c: 85:             LED_Enable(LED_D1);
  6596   002C28  0E01               	movlw	1
  6597   002C2A  EC1F  F015         	call	i2_LED_Enable
  6598                           
  6599                           ;system.c: 86:             LED_Enable(LED_D2);
  6600   002C2E  0E02               	movlw	2
  6601   002C30  EC1F  F015         	call	i2_LED_Enable
  6602                           
  6603                           ;system.c: 88:             BUTTON_Enable(BUTTON_S2);
  6604   002C34  0E01               	movlw	1
  6605   002C36  ECD3  F016         	call	i2_BUTTON_Enable
  6606   002C3A                     
  6607                           ;system.c: 90:             ADC_SetConfiguration(ADC_CONFIGURATION_DEFAULT);
  6608   002C3A  0E00               	movlw	0
  6609   002C3C  ECB4  F017         	call	i2_ADC_SetConfiguration
  6610   002C40                     
  6611                           ;system.c: 91:             ADC_Enable(ADC_CHANNEL_0);
  6612   002C40  0E00               	movlw	0
  6613   002C42  EC60  F017         	call	i2_ADC_Enable
  6614                           
  6615                           ;system.c: 92:             break;
  6616   002C46  EF3E  F016         	goto	i2l656
  6617   002C4A                     i2l3615:
  6618   002C4A  5006               	movf	i2SYSTEM_Initialize@state^0,w,c
  6619   002C4C  6E04               	movwf	??i2_SYSTEM_Initialize^0,c
  6620   002C4E  6A05               	clrf	(??i2_SYSTEM_Initialize+1)^0,c
  6621                           
  6622                           ; Switch on 2 bytes has been partitioned into a top level switch of size 1, and 1 sub-sw
      +                          itches
  6623                           ; Switch size 1, requested type "simple"
  6624                           ; Number of cases is 1, Range of values is 0 to 0
  6625                           ; switch strategies available:
  6626                           ; Name         Instructions Cycles
  6627                           ; simple_byte            4     3 (average)
  6628                           ;	Chosen strategy is simple_byte
  6629   002C50  5005               	movf	(??i2_SYSTEM_Initialize+1)^0,w,c
  6630   002C52  0A00               	xorlw	0	; case 0
  6631   002C54  B4D8               	btfsc	status,2,c
  6632   002C56  EF2F  F016         	goto	i2l5971
  6633   002C5A  EF3E  F016         	goto	i2l656
  6634   002C5E                     i2l5971:
  6635                           
  6636                           ; Switch size 1, requested type "simple"
  6637                           ; Number of cases is 3, Range of values is 0 to 2
  6638                           ; switch strategies available:
  6639                           ; Name         Instructions Cycles
  6640                           ; simple_byte           10     6 (average)
  6641                           ;	Chosen strategy is simple_byte
  6642   002C5E  5004               	movf	??i2_SYSTEM_Initialize^0,w,c
  6643   002C60  0A00               	xorlw	0	; case 0
  6644   002C62  B4D8               	btfsc	status,2,c
  6645   002C64  EF14  F016         	goto	i2l3607
  6646   002C68  0A01               	xorlw	1	; case 1
  6647   002C6A  B4D8               	btfsc	status,2,c
  6648   002C6C  EF3E  F016         	goto	i2l656
  6649   002C70  0A03               	xorlw	3	; case 2
  6650   002C72  B4D8               	btfsc	status,2,c
  6651   002C74  EF3E  F016         	goto	i2l656
  6652   002C78  EF3E  F016         	goto	i2l656
  6653   002C7C                     i2l656:
  6654   002C7C  0012               	return		;funcret
  6655   002C7E                     __end_ofi2_SYSTEM_Initialize:
  6656                           	callstack 0
  6657                           
  6658 ;; *************** function i2_LED_Enable *****************
  6659 ;; Defined at:
  6660 ;;		line 257 in file "../../../../../../bsp/picdem_fs_usb/leds.c"
  6661 ;; Parameters:    Size  Location     Type
  6662 ;;  led             1    wreg     enum E2
  6663 ;; Auto vars:     Size  Location     Type
  6664 ;;  led             1    2[COMRAM] enum E2
  6665 ;; Return value:  Size  Location     Type
  6666 ;;                  1    wreg      void 
  6667 ;; Registers used:
  6668 ;;		wreg, status,2, status,0
  6669 ;; Tracked objects:
  6670 ;;		On entry : 0/0
  6671 ;;		On exit  : 0/0
  6672 ;;		Unchanged: 0/0
  6673 ;; Data sizes:     COMRAM   BANK0   BANK1   BANK2   BANK3   BANK4   BANK5   BANK6   BANK7
  6674 ;;      Params:         0       0       0       0       0       0       0       0       0
  6675 ;;      Locals:         1       0       0       0       0       0       0       0       0
  6676 ;;      Temps:          2       0       0       0       0       0       0       0       0
  6677 ;;      Totals:         3       0       0       0       0       0       0       0       0
  6678 ;;Total ram usage:        3 bytes
  6679 ;; Hardware stack levels used: 1
  6680 ;; This function calls:
  6681 ;;		Nothing
  6682 ;; This function is called by:
  6683 ;;		i2_SYSTEM_Initialize
  6684 ;; This function uses a non-reentrant model
  6685 ;;
  6686                           
  6687                           	psect	text34
  6688   002A3E                     __ptext34:
  6689                           	callstack 0
  6690   002A3E                     i2_LED_Enable:
  6691                           	callstack 24
  6692                           
  6693                           ;incstack = 0
  6694                           ;i2LED_Enable@led stored from wreg
  6695   002A3E  6E03               	movwf	i2LED_Enable@led^0,c
  6696   002A40                     
  6697                           ;../../../../../../bsp/picdem_fs_usb/leds.c: 257: void LED_Enable(LED led);../../../../.
      +                          ./../bsp/picdem_fs_usb/leds.c: 258: {;../../../../../../bsp/picdem_fs_usb/leds.c: 259:  
      +                             switch(led)
  6698   002A40  EF2E  F015         	goto	i2l3431
  6699   002A44                     i2l68:
  6700                           
  6701                           ;../../../../../../bsp/picdem_fs_usb/leds.c: 262:             TRISDbits.TRISD0 = 0;
  6702   002A44  9095               	bcf	149,0,c	;volatile
  6703                           
  6704                           ;../../../../../../bsp/picdem_fs_usb/leds.c: 263:             break;
  6705   002A46  EF4F  F015         	goto	i2l74
  6706   002A4A                     i2l70:
  6707                           
  6708                           ;../../../../../../bsp/picdem_fs_usb/leds.c: 266:             TRISDbits.TRISD1 = 0;
  6709   002A4A  9295               	bcf	149,1,c	;volatile
  6710                           
  6711                           ;../../../../../../bsp/picdem_fs_usb/leds.c: 267:             break;
  6712   002A4C  EF4F  F015         	goto	i2l74
  6713   002A50                     i2l71:
  6714                           
  6715                           ;../../../../../../bsp/picdem_fs_usb/leds.c: 270:             TRISDbits.TRISD2 = 0;
  6716   002A50  9495               	bcf	149,2,c	;volatile
  6717                           
  6718                           ;../../../../../../bsp/picdem_fs_usb/leds.c: 271:             break;
  6719   002A52  EF4F  F015         	goto	i2l74
  6720   002A56                     i2l72:
  6721                           
  6722                           ;../../../../../../bsp/picdem_fs_usb/leds.c: 274:             TRISDbits.TRISD3 = 0;
  6723   002A56  9695               	bcf	149,3,c	;volatile
  6724                           
  6725                           ;../../../../../../bsp/picdem_fs_usb/leds.c: 275:             break;
  6726   002A58  EF4F  F015         	goto	i2l74
  6727   002A5C                     i2l3431:
  6728   002A5C  5003               	movf	i2LED_Enable@led^0,w,c
  6729   002A5E  6E01               	movwf	??i2_LED_Enable^0,c
  6730   002A60  6A02               	clrf	(??i2_LED_Enable+1)^0,c
  6731                           
  6732                           ; Switch on 2 bytes has been partitioned into a top level switch of size 1, and 1 sub-sw
      +                          itches
  6733                           ; Switch size 1, requested type "simple"
  6734                           ; Number of cases is 1, Range of values is 0 to 0
  6735                           ; switch strategies available:
  6736                           ; Name         Instructions Cycles
  6737                           ; simple_byte            4     3 (average)
  6738                           ;	Chosen strategy is simple_byte
  6739   002A62  5002               	movf	(??i2_LED_Enable+1)^0,w,c
  6740   002A64  0A00               	xorlw	0	; case 0
  6741   002A66  B4D8               	btfsc	status,2,c
  6742   002A68  EF38  F015         	goto	i2l5973
  6743   002A6C  EF4F  F015         	goto	i2l74
  6744   002A70                     i2l5973:
  6745                           
  6746                           ; Switch size 1, requested type "simple"
  6747                           ; Number of cases is 5, Range of values is 0 to 4
  6748                           ; switch strategies available:
  6749                           ; Name         Instructions Cycles
  6750                           ; simple_byte           16     9 (average)
  6751                           ;	Chosen strategy is simple_byte
  6752   002A70  5001               	movf	??i2_LED_Enable^0,w,c
  6753   002A72  0A00               	xorlw	0	; case 0
  6754   002A74  B4D8               	btfsc	status,2,c
  6755   002A76  EF4F  F015         	goto	i2l74
  6756   002A7A  0A01               	xorlw	1	; case 1
  6757   002A7C  B4D8               	btfsc	status,2,c
  6758   002A7E  EF22  F015         	goto	i2l68
  6759   002A82  0A03               	xorlw	3	; case 2
  6760   002A84  B4D8               	btfsc	status,2,c
  6761   002A86  EF25  F015         	goto	i2l70
  6762   002A8A  0A01               	xorlw	1	; case 3
  6763   002A8C  B4D8               	btfsc	status,2,c
  6764   002A8E  EF28  F015         	goto	i2l71
  6765   002A92  0A07               	xorlw	7	; case 4
  6766   002A94  B4D8               	btfsc	status,2,c
  6767   002A96  EF2B  F015         	goto	i2l72
  6768   002A9A  EF4F  F015         	goto	i2l74
  6769   002A9E                     i2l74:
  6770   002A9E  0012               	return		;funcret
  6771   002AA0                     __end_ofi2_LED_Enable:
  6772                           	callstack 0
  6773                           
  6774 ;; *************** function i2_BUTTON_Enable *****************
  6775 ;; Defined at:
  6776 ;;		line 128 in file "../../../../../../bsp/picdem_fs_usb/buttons.c"
  6777 ;; Parameters:    Size  Location     Type
  6778 ;;  button          1    wreg     enum E3201
  6779 ;; Auto vars:     Size  Location     Type
  6780 ;;  button          1    2[COMRAM] enum E3201
  6781 ;; Return value:  Size  Location     Type
  6782 ;;                  1    wreg      void 
  6783 ;; Registers used:
  6784 ;;		wreg, status,2, status,0
  6785 ;; Tracked objects:
  6786 ;;		On entry : 0/0
  6787 ;;		On exit  : 0/0
  6788 ;;		Unchanged: 0/0
  6789 ;; Data sizes:     COMRAM   BANK0   BANK1   BANK2   BANK3   BANK4   BANK5   BANK6   BANK7
  6790 ;;      Params:         0       0       0       0       0       0       0       0       0
  6791 ;;      Locals:         1       0       0       0       0       0       0       0       0
  6792 ;;      Temps:          2       0       0       0       0       0       0       0       0
  6793 ;;      Totals:         3       0       0       0       0       0       0       0       0
  6794 ;;Total ram usage:        3 bytes
  6795 ;; Hardware stack levels used: 1
  6796 ;; This function calls:
  6797 ;;		Nothing
  6798 ;; This function is called by:
  6799 ;;		i2_SYSTEM_Initialize
  6800 ;; This function uses a non-reentrant model
  6801 ;;
  6802                           
  6803                           	psect	text35
  6804   002DA6                     __ptext35:
  6805                           	callstack 0
  6806   002DA6                     i2_BUTTON_Enable:
  6807                           	callstack 24
  6808                           
  6809                           ;incstack = 0
  6810                           ;i2BUTTON_Enable@button stored from wreg
  6811   002DA6  6E03               	movwf	i2BUTTON_Enable@button^0,c
  6812   002DA8                     
  6813                           ;../../../../../../bsp/picdem_fs_usb/buttons.c: 128: void BUTTON_Enable(BUTTON button);.
      +                          ./../../../../../bsp/picdem_fs_usb/buttons.c: 129: {;../../../../../../bsp/picdem_fs_usb
      +                          /buttons.c: 130:     switch(button)
  6814   002DA8  EFDC  F016         	goto	i2l3421
  6815   002DAC                     i2l16:
  6816                           
  6817                           ;../../../../../../bsp/picdem_fs_usb/buttons.c: 133:             TRISBbits.TRISB4 = 1;
  6818   002DAC  8893               	bsf	147,4,c	;volatile
  6819                           
  6820                           ;../../../../../../bsp/picdem_fs_usb/buttons.c: 134:             break;
  6821   002DAE  EFF5  F016         	goto	i2l20
  6822   002DB2                     i2l18:
  6823                           
  6824                           ;../../../../../../bsp/picdem_fs_usb/buttons.c: 137:             TRISBbits.TRISB5 = 1;
  6825   002DB2  8A93               	bsf	147,5,c	;volatile
  6826                           
  6827                           ;../../../../../../bsp/picdem_fs_usb/buttons.c: 138:             break;
  6828   002DB4  EFF5  F016         	goto	i2l20
  6829   002DB8                     i2l3421:
  6830   002DB8  5003               	movf	i2BUTTON_Enable@button^0,w,c
  6831   002DBA  6E01               	movwf	??i2_BUTTON_Enable^0,c
  6832   002DBC  6A02               	clrf	(??i2_BUTTON_Enable+1)^0,c
  6833                           
  6834                           ; Switch on 2 bytes has been partitioned into a top level switch of size 1, and 1 sub-sw
      +                          itches
  6835                           ; Switch size 1, requested type "simple"
  6836                           ; Number of cases is 1, Range of values is 0 to 0
  6837                           ; switch strategies available:
  6838                           ; Name         Instructions Cycles
  6839                           ; simple_byte            4     3 (average)
  6840                           ;	Chosen strategy is simple_byte
  6841   002DBE  5002               	movf	(??i2_BUTTON_Enable+1)^0,w,c
  6842   002DC0  0A00               	xorlw	0	; case 0
  6843   002DC2  B4D8               	btfsc	status,2,c
  6844   002DC4  EFE6  F016         	goto	i2l5975
  6845   002DC8  EFF5  F016         	goto	i2l20
  6846   002DCC                     i2l5975:
  6847                           
  6848                           ; Switch size 1, requested type "simple"
  6849                           ; Number of cases is 3, Range of values is 0 to 2
  6850                           ; switch strategies available:
  6851                           ; Name         Instructions Cycles
  6852                           ; simple_byte           10     6 (average)
  6853                           ;	Chosen strategy is simple_byte
  6854   002DCC  5001               	movf	??i2_BUTTON_Enable^0,w,c
  6855   002DCE  0A00               	xorlw	0	; case 0
  6856   002DD0  B4D8               	btfsc	status,2,c
  6857   002DD2  EFF5  F016         	goto	i2l20
  6858   002DD6  0A01               	xorlw	1	; case 1
  6859   002DD8  B4D8               	btfsc	status,2,c
  6860   002DDA  EFD6  F016         	goto	i2l16
  6861   002DDE  0A03               	xorlw	3	; case 2
  6862   002DE0  B4D8               	btfsc	status,2,c
  6863   002DE2  EFD9  F016         	goto	i2l18
  6864   002DE6  EFF5  F016         	goto	i2l20
  6865   002DEA                     i2l20:
  6866   002DEA  0012               	return		;funcret
  6867   002DEC                     __end_ofi2_BUTTON_Enable:
  6868                           	callstack 0
  6869                           
  6870 ;; *************** function i2_ADC_SetConfiguration *****************
  6871 ;; Defined at:
  6872 ;;		line 177 in file "../../../../../../bsp/picdem_fs_usb/adc.c"
  6873 ;; Parameters:    Size  Location     Type
  6874 ;;  configuratio    1    wreg     enum E39
  6875 ;; Auto vars:     Size  Location     Type
  6876 ;;  configuratio    1    0[COMRAM] enum E39
  6877 ;; Return value:  Size  Location     Type
  6878 ;;                  1    wreg      _Bool 
  6879 ;; Registers used:
  6880 ;;		wreg, status,2
  6881 ;; Tracked objects:
  6882 ;;		On entry : 0/0
  6883 ;;		On exit  : 0/0
  6884 ;;		Unchanged: 0/0
  6885 ;; Data sizes:     COMRAM   BANK0   BANK1   BANK2   BANK3   BANK4   BANK5   BANK6   BANK7
  6886 ;;      Params:         0       0       0       0       0       0       0       0       0
  6887 ;;      Locals:         1       0       0       0       0       0       0       0       0
  6888 ;;      Temps:          0       0       0       0       0       0       0       0       0
  6889 ;;      Totals:         1       0       0       0       0       0       0       0       0
  6890 ;;Total ram usage:        1 bytes
  6891 ;; Hardware stack levels used: 1
  6892 ;; This function calls:
  6893 ;;		Nothing
  6894 ;; This function is called by:
  6895 ;;		i2_SYSTEM_Initialize
  6896 ;; This function uses a non-reentrant model
  6897 ;;
  6898                           
  6899                           	psect	text36
  6900   002F68                     __ptext36:
  6901                           	callstack 0
  6902   002F68                     i2_ADC_SetConfiguration:
  6903                           	callstack 24
  6904                           
  6905                           ;incstack = 0
  6906                           ;i2ADC_SetConfiguration@configuration stored from wreg
  6907   002F68  6E01               	movwf	i2ADC_SetConfiguration@configuration^0,c
  6908   002F6A                     
  6909                           ;../../../../../../bsp/picdem_fs_usb/adc.c: 177: _Bool ADC_SetConfiguration(ADC_CONFIGUR
      +                          ATION configuration);../../../../../../bsp/picdem_fs_usb/adc.c: 178: {;../../../../../..
      +                          /bsp/picdem_fs_usb/adc.c: 179:     if(configuration == ADC_CONFIGURATION_DEFAULT)
  6910   002F6A  5001               	movf	i2ADC_SetConfiguration@configuration^0,w,c
  6911   002F6C  A4D8               	btfss	status,2,c
  6912   002F6E  EFBB  F017         	goto	i2u163_41
  6913   002F72  EFBD  F017         	goto	i2u163_40
  6914   002F76                     i2u163_41:
  6915   002F76  EFC6  F017         	goto	i2l121
  6916   002F7A                     i2u163_40:
  6917   002F7A                     
  6918                           ;../../../../../../bsp/picdem_fs_usb/adc.c: 180:     {;../../../../../../bsp/picdem_fs_u
      +                          sb/adc.c: 181:         ADCON0=0x01;
  6919   002F7A  0E01               	movlw	1
  6920   002F7C  6EC2               	movwf	194,c	;volatile
  6921   002F7E                     
  6922                           ;../../../../../../bsp/picdem_fs_usb/adc.c: 182:         ADCON1bits.PCFG = 0b1110;
  6923   002F7E  50C1               	movf	193,w,c	;volatile
  6924   002F80  0BF0               	andlw	-16
  6925   002F82  090E               	iorlw	14
  6926   002F84  6EC1               	movwf	193,c	;volatile
  6927   002F86                     
  6928                           ;../../../../../../bsp/picdem_fs_usb/adc.c: 183:         ADCON2=0x3C;
  6929   002F86  0E3C               	movlw	60
  6930   002F88  6EC0               	movwf	192,c	;volatile
  6931   002F8A                     
  6932                           ;../../../../../../bsp/picdem_fs_usb/adc.c: 184:         ADCON2bits.ADFM = 1;
  6933   002F8A  8EC0               	bsf	192,7,c	;volatile
  6934   002F8C                     i2l121:
  6935   002F8C  0012               	return		;funcret
  6936   002F8E                     __end_ofi2_ADC_SetConfiguration:
  6937                           	callstack 0
  6938                           
  6939 ;; *************** function i2_ADC_Enable *****************
  6940 ;; Defined at:
  6941 ;;		line 152 in file "../../../../../../bsp/picdem_fs_usb/adc.c"
  6942 ;; Parameters:    Size  Location     Type
  6943 ;;  channel         1    wreg     enum E36
  6944 ;; Auto vars:     Size  Location     Type
  6945 ;;  channel         1    2[COMRAM] enum E36
  6946 ;; Return value:  Size  Location     Type
  6947 ;;                  1    wreg      _Bool 
  6948 ;; Registers used:
  6949 ;;		wreg, status,2, status,0
  6950 ;; Tracked objects:
  6951 ;;		On entry : 0/0
  6952 ;;		On exit  : 0/0
  6953 ;;		Unchanged: 0/0
  6954 ;; Data sizes:     COMRAM   BANK0   BANK1   BANK2   BANK3   BANK4   BANK5   BANK6   BANK7
  6955 ;;      Params:         0       0       0       0       0       0       0       0       0
  6956 ;;      Locals:         1       0       0       0       0       0       0       0       0
  6957 ;;      Temps:          2       0       0       0       0       0       0       0       0
  6958 ;;      Totals:         3       0       0       0       0       0       0       0       0
  6959 ;;Total ram usage:        3 bytes
  6960 ;; Hardware stack levels used: 1
  6961 ;; This function calls:
  6962 ;;		Nothing
  6963 ;; This function is called by:
  6964 ;;		i2_SYSTEM_Initialize
  6965 ;; This function uses a non-reentrant model
  6966 ;;
  6967                           
  6968                           	psect	text37
  6969   002EC0                     __ptext37:
  6970                           	callstack 0
  6971   002EC0                     i2_ADC_Enable:
  6972                           	callstack 24
  6973                           
  6974                           ;incstack = 0
  6975                           ;i2ADC_Enable@channel stored from wreg
  6976   002EC0  6E03               	movwf	i2ADC_Enable@channel^0,c
  6977   002EC2                     
  6978                           ;../../../../../../bsp/picdem_fs_usb/adc.c: 152: _Bool ADC_Enable(ADC_CHANNEL channel);.
      +                          ./../../../../../bsp/picdem_fs_usb/adc.c: 153: {;../../../../../../bsp/picdem_fs_usb/adc
      +                          .c: 154:     switch(channel)
  6979   002EC2  EF66  F017         	goto	i2l3441
  6980   002EC6                     i2l114:
  6981                           
  6982                           ;../../../../../../bsp/picdem_fs_usb/adc.c: 157:             TRISAbits.TRISA0 = 1;
  6983   002EC6  8092               	bsf	146,0,c	;volatile
  6984                           
  6985                           ;../../../../../../bsp/picdem_fs_usb/adc.c: 158:             return 1;;	Return value of 
      +                          i2_ADC_Enable is never used
  6986   002EC8  EF77  F017         	goto	i2l115
  6987   002ECC                     i2l3441:
  6988   002ECC  5003               	movf	i2ADC_Enable@channel^0,w,c
  6989   002ECE  6E01               	movwf	??i2_ADC_Enable^0,c
  6990   002ED0  6A02               	clrf	(??i2_ADC_Enable+1)^0,c
  6991                           
  6992                           ; Switch on 2 bytes has been partitioned into a top level switch of size 1, and 1 sub-sw
      +                          itches
  6993                           ; Switch size 1, requested type "simple"
  6994                           ; Number of cases is 1, Range of values is 0 to 0
  6995                           ; switch strategies available:
  6996                           ; Name         Instructions Cycles
  6997                           ; simple_byte            4     3 (average)
  6998                           ;	Chosen strategy is simple_byte
  6999   002ED2  5002               	movf	(??i2_ADC_Enable+1)^0,w,c
  7000   002ED4  0A00               	xorlw	0	; case 0
  7001   002ED6  B4D8               	btfsc	status,2,c
  7002   002ED8  EF70  F017         	goto	i2l5977
  7003   002EDC  EF77  F017         	goto	i2l115
  7004   002EE0                     i2l5977:
  7005                           
  7006                           ; Switch size 1, requested type "simple"
  7007                           ; Number of cases is 1, Range of values is 0 to 0
  7008                           ; switch strategies available:
  7009                           ; Name         Instructions Cycles
  7010                           ; simple_byte            4     3 (average)
  7011                           ;	Chosen strategy is simple_byte
  7012   002EE0  5001               	movf	??i2_ADC_Enable^0,w,c
  7013   002EE2  0A00               	xorlw	0	; case 0
  7014   002EE4  B4D8               	btfsc	status,2,c
  7015   002EE6  EF63  F017         	goto	i2l114
  7016   002EEA  EF77  F017         	goto	i2l115
  7017   002EEE                     i2l115:
  7018   002EEE  0012               	return		;funcret
  7019   002EF0                     __end_ofi2_ADC_Enable:
  7020                           	callstack 0
  7021                           
  7022 ;; *************** function _USBCheckHIDRequest *****************
  7023 ;; Defined at:
  7024 ;;		line 161 in file "../../../../../../framework/usb/src/usb_device_hid.c"
  7025 ;; Parameters:    Size  Location     Type
  7026 ;;		None
  7027 ;; Auto vars:     Size  Location     Type
  7028 ;;		None
  7029 ;; Return value:  Size  Location     Type
  7030 ;;                  1    wreg      void 
  7031 ;; Registers used:
  7032 ;;		wreg, status,2, status,0
  7033 ;; Tracked objects:
  7034 ;;		On entry : 0/0
  7035 ;;		On exit  : 0/0
  7036 ;;		Unchanged: 0/0
  7037 ;; Data sizes:     COMRAM   BANK0   BANK1   BANK2   BANK3   BANK4   BANK5   BANK6   BANK7
  7038 ;;      Params:         0       0       0       0       0       0       0       0       0
  7039 ;;      Locals:         0       0       0       0       0       0       0       0       0
  7040 ;;      Temps:          2       0       0       0       0       0       0       0       0
  7041 ;;      Totals:         2       0       0       0       0       0       0       0       0
  7042 ;;Total ram usage:        2 bytes
  7043 ;; Hardware stack levels used: 1
  7044 ;; This function calls:
  7045 ;;		Nothing
  7046 ;; This function is called by:
  7047 ;;		_USER_USB_CALLBACK_EVENT_HANDLER
  7048 ;; This function uses a non-reentrant model
  7049 ;;
  7050                           
  7051                           	psect	text38
  7052   001442                     __ptext38:
  7053                           	callstack 0
  7054   001442                     _USBCheckHIDRequest:
  7055                           	callstack 25
  7056   001442                     
  7057                           ;../../../../../../framework/usb/src/usb_device_hid.c: 163:     if(SetupPkt.Recipient !=
      +                           (0x01)) return;
  7058   001442  0104               	movlb	4	; () banked
  7059   001444  5120               	movf	32,w,b	;volatile
  7060   001446  0B1F               	andlw	31
  7061   001448  06E8               	decf	wreg,f,c
  7062   00144A  B4D8               	btfsc	status,2,c
  7063   00144C  EF2A  F00A         	goto	i2u167_41
  7064   001450  EF2C  F00A         	goto	i2u167_40
  7065   001454                     i2u167_41:
  7066   001454  EF2E  F00A         	goto	i2l3493
  7067   001458                     i2u167_40:
  7068   001458  EFD9  F00A         	goto	i2l554
  7069   00145C                     i2l3493:
  7070                           
  7071                           ; BSR set to: 4
  7072                           ;../../../../../../framework/usb/src/usb_device_hid.c: 164:     if(SetupPkt.bIntfID != 0
      +                          x00) return;
  7073   00145C  5124               	movf	36,w,b	;volatile
  7074   00145E  B4D8               	btfsc	status,2,c
  7075   001460  EF34  F00A         	goto	i2u168_41
  7076   001464  EF36  F00A         	goto	i2u168_40
  7077   001468                     i2u168_41:
  7078   001468  EF38  F00A         	goto	i2l3497
  7079   00146C                     i2u168_40:
  7080   00146C  EFD9  F00A         	goto	i2l554
  7081   001470                     i2l3497:
  7082                           
  7083                           ; BSR set to: 4
  7084                           ;../../../../../../framework/usb/src/usb_device_hid.c: 171:     if(SetupPkt.bRequest == 
      +                          6)
  7085   001470  0E06               	movlw	6
  7086   001472  1921               	xorwf	33,w,b	;volatile
  7087   001474  A4D8               	btfss	status,2,c
  7088   001476  EF3F  F00A         	goto	i2u169_41
  7089   00147A  EF41  F00A         	goto	i2u169_40
  7090   00147E                     i2u169_41:
  7091   00147E  EF7E  F00A         	goto	i2l3519
  7092   001482                     i2u169_40:
  7093   001482  EF65  F00A         	goto	i2l3517
  7094   001486                     i2l3501:
  7095                           
  7096                           ; BSR set to: 4
  7097                           ;../../../../../../framework/usb/src/usb_device_hid.c: 176:                 if(USBActive
      +                          Configuration == 1)
  7098   001486  0450               	decf	_USBActiveConfiguration^0,w,c	;volatile
  7099   001488  A4D8               	btfss	status,2,c
  7100   00148A  EF49  F00A         	goto	i2u170_41
  7101   00148E  EF4B  F00A         	goto	i2u170_40
  7102   001492                     i2u170_41:
  7103   001492  EF7E  F00A         	goto	i2l3519
  7104   001496                     i2u170_40:
  7105   001496                     
  7106                           ; BSR set to: 4
  7107                           ;../../../../../../framework/usb/src/usb_device_hid.c: 177:                 {;../../../.
      +                          ./../../framework/usb/src/usb_device_hid.c: 178:                     { inPipes[0].pSrc.b
      +                          Rom = (const uint8_t*)&configDescriptor1 + 18; inPipes[0].wCount.Val = sizeof(USB_HID_DS
      +                          C)+3; inPipes[0].info.Val = 0x40 | 0x80 | 0x00; };
  7108   001496  0E7D               	movlw	low (_configDescriptor1+18)
  7109   001498  0100               	movlb	0	; () banked
  7110   00149A  6F68               	movwf	_inPipes& (0+255),b	;volatile
  7111   00149C  0E08               	movlw	high (_configDescriptor1+18)
  7112   00149E  6F69               	movwf	(_inPipes+1)& (0+255),b	;volatile
  7113   0014A0                     
  7114                           ; BSR set to: 0
  7115   0014A0  0E00               	movlw	0
  7116   0014A2  6F6D               	movwf	(_inPipes+5)& (0+255),b	;volatile
  7117   0014A4  0E09               	movlw	9
  7118   0014A6  6F6C               	movwf	(_inPipes+4)& (0+255),b	;volatile
  7119   0014A8                     
  7120                           ; BSR set to: 0
  7121   0014A8  0EC0               	movlw	192
  7122   0014AA  6F6B               	movwf	(_inPipes+3)& (0+255),b	;volatile
  7123   0014AC  EF7E  F00A         	goto	i2l3519
  7124   0014B0                     i2l3509:
  7125                           
  7126                           ; BSR set to: 4
  7127                           ;../../../../../../framework/usb/src/usb_device_hid.c: 186:                 {;../../../.
      +                          ./../../framework/usb/src/usb_device_hid.c: 187:                     { inPipes[0].pSrc.b
      +                          Rom = (const uint8_t*)&hid_rpt01; inPipes[0].wCount.Val = 29; inPipes[0].info.Val = 0x40
      +                           | 0x80 | 0x00; };
  7128   0014B0  0E94               	movlw	low _hid_rpt01
  7129   0014B2  0100               	movlb	0	; () banked
  7130   0014B4  6F68               	movwf	_inPipes& (0+255),b	;volatile
  7131   0014B6  0E08               	movlw	high _hid_rpt01
  7132   0014B8  6F69               	movwf	(_inPipes+1)& (0+255),b	;volatile
  7133   0014BA                     
  7134                           ; BSR set to: 0
  7135   0014BA  0E00               	movlw	0
  7136   0014BC  6F6D               	movwf	(_inPipes+5)& (0+255),b	;volatile
  7137   0014BE  0E1D               	movlw	29
  7138   0014C0  6F6C               	movwf	(_inPipes+4)& (0+255),b	;volatile
  7139   0014C2                     
  7140                           ; BSR set to: 0
  7141   0014C2  0EC0               	movlw	192
  7142   0014C4  6F6B               	movwf	(_inPipes+3)& (0+255),b	;volatile
  7143                           
  7144                           ;../../../../../../framework/usb/src/usb_device_hid.c: 191:                 };../../../.
      +                          ./../../framework/usb/src/usb_device_hid.c: 192:                 break;
  7145   0014C6  EF7E  F00A         	goto	i2l3519
  7146   0014CA                     i2l3517:
  7147                           
  7148                           ; BSR set to: 4
  7149   0014CA  5123               	movf	35,w,b	;volatile
  7150   0014CC  6E01               	movwf	??_USBCheckHIDRequest^0,c
  7151   0014CE  6A02               	clrf	(??_USBCheckHIDRequest+1)^0,c
  7152                           
  7153                           ; Switch on 2 bytes has been partitioned into a top level switch of size 1, and 1 sub-sw
      +                          itches
  7154                           ; Switch size 1, requested type "simple"
  7155                           ; Number of cases is 1, Range of values is 0 to 0
  7156                           ; switch strategies available:
  7157                           ; Name         Instructions Cycles
  7158                           ; simple_byte            4     3 (average)
  7159                           ;	Chosen strategy is simple_byte
  7160   0014D0  5002               	movf	(??_USBCheckHIDRequest+1)^0,w,c
  7161   0014D2  0A00               	xorlw	0	; case 0
  7162   0014D4  B4D8               	btfsc	status,2,c
  7163   0014D6  EF6F  F00A         	goto	i2l5979
  7164   0014DA  EF7E  F00A         	goto	i2l3519
  7165   0014DE                     i2l5979:
  7166                           
  7167                           ; BSR set to: 4
  7168                           ; Switch size 1, requested type "simple"
  7169                           ; Number of cases is 3, Range of values is 33 to 35
  7170                           ; switch strategies available:
  7171                           ; Name         Instructions Cycles
  7172                           ; simple_byte           10     6 (average)
  7173                           ;	Chosen strategy is simple_byte
  7174   0014DE  5001               	movf	??_USBCheckHIDRequest^0,w,c
  7175   0014E0  0A21               	xorlw	33	; case 33
  7176   0014E2  B4D8               	btfsc	status,2,c
  7177   0014E4  EF43  F00A         	goto	i2l3501
  7178   0014E8  0A03               	xorlw	3	; case 34
  7179   0014EA  B4D8               	btfsc	status,2,c
  7180   0014EC  EF58  F00A         	goto	i2l3509
  7181   0014F0  0A01               	xorlw	1	; case 35
  7182   0014F2  B4D8               	btfsc	status,2,c
  7183   0014F4  EF7E  F00A         	goto	i2l3519
  7184   0014F8  EF7E  F00A         	goto	i2l3519
  7185   0014FC                     i2l3519:
  7186                           
  7187                           ;../../../../../../framework/usb/src/usb_device_hid.c: 209:     if(SetupPkt.RequestType 
      +                          != (0x20>>5))
  7188   0014FC  0104               	movlb	4	; () banked
  7189   0014FE  3920               	swapf	32,w,b	;volatile
  7190   001500  32E8               	rrcf	wreg,f,c
  7191   001502  0B03               	andlw	3
  7192   001504  06E8               	decf	wreg,f,c
  7193   001506  B4D8               	btfsc	status,2,c
  7194   001508  EF88  F00A         	goto	i2u171_41
  7195   00150C  EF8A  F00A         	goto	i2u171_40
  7196   001510                     i2u171_41:
  7197   001510  EFB4  F00A         	goto	i2l3545
  7198   001514                     i2u171_40:
  7199   001514  EFD9  F00A         	goto	i2l554
  7200   001518                     i2l3523:
  7201                           
  7202                           ; BSR set to: 4
  7203                           ;../../../../../../framework/usb/src/usb_device_hid.c: 227:             { inPipes[0].pSr
      +                          c.bRam = (uint8_t*)&idle_rate; inPipes[0].wCount.Val = 1; inPipes[0].info.Val = 0x40 | 0
      +                          x80 | 0x01; };
  7204   001518  0E4D               	movlw	low _idle_rate
  7205   00151A  0100               	movlb	0	; () banked
  7206   00151C  6F68               	movwf	_inPipes& (0+255),b	;volatile
  7207   00151E  0E00               	movlw	high _idle_rate
  7208   001520  6F69               	movwf	(_inPipes+1)& (0+255),b	;volatile
  7209   001522                     
  7210                           ; BSR set to: 0
  7211   001522  0E00               	movlw	0
  7212   001524  6F6D               	movwf	(_inPipes+5)& (0+255),b	;volatile
  7213   001526  0E01               	movlw	1
  7214   001528  6F6C               	movwf	(_inPipes+4)& (0+255),b	;volatile
  7215   00152A                     
  7216                           ; BSR set to: 0
  7217   00152A  0EC1               	movlw	193
  7218   00152C  6F6B               	movwf	(_inPipes+3)& (0+255),b	;volatile
  7219                           
  7220                           ;../../../../../../framework/usb/src/usb_device_hid.c: 231:             break;
  7221   00152E  EFD9  F00A         	goto	i2l554
  7222   001532                     i2l3529:
  7223                           
  7224                           ; BSR set to: 4
  7225                           ;../../../../../../framework/usb/src/usb_device_hid.c: 233:             inPipes[0].info.
      +                          Val = 0x00 | 0x80;
  7226   001532  0E80               	movlw	128
  7227   001534  0100               	movlb	0	; () banked
  7228   001536  6F6B               	movwf	(_inPipes+3)& (0+255),b	;volatile
  7229   001538                     
  7230                           ; BSR set to: 0
  7231                           ;../../../../../../framework/usb/src/usb_device_hid.c: 234:             idle_rate = Setu
      +                          pPkt.W_Value.byte.HB;
  7232   001538  C423 F04D          	movff	1059,_idle_rate	;volatile
  7233                           
  7234                           ;../../../../../../framework/usb/src/usb_device_hid.c: 236:             break;
  7235   00153C  EFD9  F00A         	goto	i2l554
  7236   001540                     i2l3533:
  7237                           
  7238                           ; BSR set to: 4
  7239                           ;../../../../../../framework/usb/src/usb_device_hid.c: 238:             { inPipes[0].pSr
      +                          c.bRam = (uint8_t*)&active_protocol; inPipes[0].wCount.Val = 1; inPipes[0].info.Val = 0x
      +                          00 | 0x80 | 0x01; };
  7240   001540  0E4C               	movlw	low _active_protocol
  7241   001542  0100               	movlb	0	; () banked
  7242   001544  6F68               	movwf	_inPipes& (0+255),b	;volatile
  7243   001546  0E00               	movlw	high _active_protocol
  7244   001548  6F69               	movwf	(_inPipes+1)& (0+255),b	;volatile
  7245   00154A                     
  7246                           ; BSR set to: 0
  7247   00154A  0E00               	movlw	0
  7248   00154C  6F6D               	movwf	(_inPipes+5)& (0+255),b	;volatile
  7249   00154E  0E01               	movlw	1
  7250   001550  6F6C               	movwf	(_inPipes+4)& (0+255),b	;volatile
  7251   001552                     
  7252                           ; BSR set to: 0
  7253   001552  0E81               	movlw	129
  7254   001554  6F6B               	movwf	(_inPipes+3)& (0+255),b	;volatile
  7255                           
  7256                           ;../../../../../../framework/usb/src/usb_device_hid.c: 242:             break;
  7257   001556  EFD9  F00A         	goto	i2l554
  7258   00155A                     i2l3539:
  7259                           
  7260                           ; BSR set to: 4
  7261                           ;../../../../../../framework/usb/src/usb_device_hid.c: 244:             inPipes[0].info.
      +                          Val = 0x00 | 0x80;
  7262   00155A  0E80               	movlw	128
  7263   00155C  0100               	movlb	0	; () banked
  7264   00155E  6F6B               	movwf	(_inPipes+3)& (0+255),b	;volatile
  7265   001560                     
  7266                           ; BSR set to: 0
  7267                           ;../../../../../../framework/usb/src/usb_device_hid.c: 245:             active_protocol 
      +                          = SetupPkt.W_Value.byte.LB;
  7268   001560  C422 F04C          	movff	1058,_active_protocol	;volatile
  7269                           
  7270                           ;../../../../../../framework/usb/src/usb_device_hid.c: 246:             break;
  7271   001564  EFD9  F00A         	goto	i2l554
  7272   001568                     i2l3545:
  7273                           
  7274                           ; BSR set to: 4
  7275   001568  5121               	movf	33,w,b	;volatile
  7276   00156A  6E01               	movwf	??_USBCheckHIDRequest^0,c
  7277   00156C  6A02               	clrf	(??_USBCheckHIDRequest+1)^0,c
  7278                           
  7279                           ; Switch on 2 bytes has been partitioned into a top level switch of size 1, and 1 sub-sw
      +                          itches
  7280                           ; Switch size 1, requested type "simple"
  7281                           ; Number of cases is 1, Range of values is 0 to 0
  7282                           ; switch strategies available:
  7283                           ; Name         Instructions Cycles
  7284                           ; simple_byte            4     3 (average)
  7285                           ;	Chosen strategy is simple_byte
  7286   00156E  5002               	movf	(??_USBCheckHIDRequest+1)^0,w,c
  7287   001570  0A00               	xorlw	0	; case 0
  7288   001572  B4D8               	btfsc	status,2,c
  7289   001574  EFBE  F00A         	goto	i2l5981
  7290   001578  EFD9  F00A         	goto	i2l554
  7291   00157C                     i2l5981:
  7292                           
  7293                           ; BSR set to: 4
  7294                           ; Switch size 1, requested type "simple"
  7295                           ; Number of cases is 6, Range of values is 1 to 11
  7296                           ; switch strategies available:
  7297                           ; Name         Instructions Cycles
  7298                           ; simple_byte           19    10 (average)
  7299                           ;	Chosen strategy is simple_byte
  7300   00157C  5001               	movf	??_USBCheckHIDRequest^0,w,c
  7301   00157E  0A01               	xorlw	1	; case 1
  7302   001580  B4D8               	btfsc	status,2,c
  7303   001582  EFD9  F00A         	goto	i2l554
  7304   001586  0A03               	xorlw	3	; case 2
  7305   001588  B4D8               	btfsc	status,2,c
  7306   00158A  EF8C  F00A         	goto	i2l3523
  7307   00158E  0A01               	xorlw	1	; case 3
  7308   001590  B4D8               	btfsc	status,2,c
  7309   001592  EFA0  F00A         	goto	i2l3533
  7310   001596  0A0A               	xorlw	10	; case 9
  7311   001598  B4D8               	btfsc	status,2,c
  7312   00159A  EFD9  F00A         	goto	i2l554
  7313   00159E  0A03               	xorlw	3	; case 10
  7314   0015A0  B4D8               	btfsc	status,2,c
  7315   0015A2  EF99  F00A         	goto	i2l3529
  7316   0015A6  0A01               	xorlw	1	; case 11
  7317   0015A8  B4D8               	btfsc	status,2,c
  7318   0015AA  EFAD  F00A         	goto	i2l3539
  7319   0015AE  EFD9  F00A         	goto	i2l554
  7320   0015B2                     i2l554:
  7321   0015B2  0012               	return		;funcret
  7322   0015B4                     __end_of_USBCheckHIDRequest:
  7323                           	callstack 0
  7324                           
  7325 ;; *************** function _APP_LEDUpdateUSBStatus *****************
  7326 ;; Defined at:
  7327 ;;		line 50 in file "../demo_src/app_led_usb_status.c"
  7328 ;; Parameters:    Size  Location     Type
  7329 ;;		None
  7330 ;; Auto vars:     Size  Location     Type
  7331 ;;		None
  7332 ;; Return value:  Size  Location     Type
  7333 ;;                  1    wreg      void 
  7334 ;; Registers used:
  7335 ;;		wreg, status,2, status,0, cstack
  7336 ;; Tracked objects:
  7337 ;;		On entry : 0/0
  7338 ;;		On exit  : 0/0
  7339 ;;		Unchanged: 0/0
  7340 ;; Data sizes:     COMRAM   BANK0   BANK1   BANK2   BANK3   BANK4   BANK5   BANK6   BANK7
  7341 ;;      Params:         0       0       0       0       0       0       0       0       0
  7342 ;;      Locals:         0       0       0       0       0       0       0       0       0
  7343 ;;      Temps:          2       0       0       0       0       0       0       0       0
  7344 ;;      Totals:         2       0       0       0       0       0       0       0       0
  7345 ;;Total ram usage:        2 bytes
  7346 ;; Hardware stack levels used: 1
  7347 ;; Hardware stack levels required when called: 1
  7348 ;; This function calls:
  7349 ;;		_LED_Off
  7350 ;;		_LED_On
  7351 ;; This function is called by:
  7352 ;;		_USER_USB_CALLBACK_EVENT_HANDLER
  7353 ;; This function uses a non-reentrant model
  7354 ;;
  7355                           
  7356                           	psect	text39
  7357   00219C                     __ptext39:
  7358                           	callstack 0
  7359   00219C                     _APP_LEDUpdateUSBStatus:
  7360                           	callstack 24
  7361   00219C                     
  7362                           ;../demo_src/app_led_usb_status.c: 52:     static uint16_t ledCount = 0;;../demo_src/app
      +                          _led_usb_status.c: 54:     if(UCONbits.SUSPND == 1)
  7363   00219C  A26D               	btfss	109,1,c	;volatile
  7364   00219E  EFD3  F010         	goto	i2u172_41
  7365   0021A2  EFD5  F010         	goto	i2u172_40
  7366   0021A6                     i2u172_41:
  7367   0021A6  EF34  F011         	goto	i2l3591
  7368   0021AA                     i2u172_40:
  7369   0021AA                     
  7370                           ;../demo_src/app_led_usb_status.c: 55:     {;../demo_src/app_led_usb_status.c: 56:      
      +                             LED_Off(LED_D1);
  7371   0021AA  0E01               	movlw	1
  7372   0021AC  EC81  F015         	call	_LED_Off
  7373   0021B0  EF47  F011         	goto	i2l608
  7374   0021B4                     i2l3565:
  7375                           
  7376                           ;../demo_src/app_led_usb_status.c: 65:             if(ledCount == 1)
  7377   0021B4  0436               	decf	APP_LEDUpdateUSBStatus@ledCount^0,w,c
  7378   0021B6  1037               	iorwf	(APP_LEDUpdateUSBStatus@ledCount+1)^0,w,c
  7379   0021B8  A4D8               	btfss	status,2,c
  7380   0021BA  EFE1  F010         	goto	i2u173_41
  7381   0021BE  EFE3  F010         	goto	i2u173_40
  7382   0021C2                     i2u173_41:
  7383   0021C2  EFE8  F010         	goto	i2l3569
  7384   0021C6                     i2u173_40:
  7385   0021C6                     
  7386                           ;../demo_src/app_led_usb_status.c: 66:             {;../demo_src/app_led_usb_status.c: 6
      +                          7:                 LED_On(LED_D1);
  7387   0021C6  0E01               	movlw	1
  7388   0021C8  EC50  F015         	call	_LED_On
  7389                           
  7390                           ;../demo_src/app_led_usb_status.c: 68:             }
  7391   0021CC  EF45  F011         	goto	i2l3593
  7392   0021D0                     i2l3569:
  7393   0021D0  0E4B               	movlw	75
  7394   0021D2  1836               	xorwf	APP_LEDUpdateUSBStatus@ledCount^0,w,c
  7395   0021D4  1037               	iorwf	(APP_LEDUpdateUSBStatus@ledCount+1)^0,w,c
  7396   0021D6  A4D8               	btfss	status,2,c
  7397   0021D8  EFF0  F010         	goto	i2u174_41
  7398   0021DC  EFF2  F010         	goto	i2u174_40
  7399   0021E0                     i2u174_41:
  7400   0021E0  EFF7  F010         	goto	i2l3573
  7401   0021E4                     i2u174_40:
  7402   0021E4                     
  7403                           ;../demo_src/app_led_usb_status.c: 70:             {;../demo_src/app_led_usb_status.c: 7
      +                          1:                 LED_Off(LED_D1);
  7404   0021E4  0E01               	movlw	1
  7405   0021E6  EC81  F015         	call	_LED_Off
  7406                           
  7407                           ;../demo_src/app_led_usb_status.c: 72:             }
  7408   0021EA  EF45  F011         	goto	i2l3593
  7409   0021EE                     i2l3573:
  7410   0021EE  5037               	movf	(APP_LEDUpdateUSBStatus@ledCount+1)^0,w,c
  7411   0021F0  E109               	bnz	i2u175_40
  7412   0021F2  0E97               	movlw	151
  7413   0021F4  5C36               	subwf	APP_LEDUpdateUSBStatus@ledCount^0,w,c
  7414   0021F6  A0D8               	btfss	status,0,c
  7415   0021F8  EF00  F011         	goto	i2u175_41
  7416   0021FC  EF02  F011         	goto	i2u175_40
  7417   002200                     i2u175_41:
  7418   002200  EF08  F011         	goto	i2l612
  7419   002204                     i2u175_40:
  7420   002204                     i2l3575:
  7421                           
  7422                           ;../demo_src/app_led_usb_status.c: 74:             {;../demo_src/app_led_usb_status.c: 7
      +                          5:                 ledCount = 0;
  7423   002204  0E00               	movlw	0
  7424   002206  6E37               	movwf	(APP_LEDUpdateUSBStatus@ledCount+1)^0,c
  7425   002208  0E00               	movlw	0
  7426   00220A  6E36               	movwf	APP_LEDUpdateUSBStatus@ledCount^0,c
  7427   00220C  EF45  F011         	goto	i2l3593
  7428   002210                     i2l612:
  7429                           
  7430                           ;../demo_src/app_led_usb_status.c: 77:             break;
  7431   002210  EF45  F011         	goto	i2l3593
  7432   002214                     i2l3577:
  7433                           
  7434                           ;../demo_src/app_led_usb_status.c: 82:             if(ledCount == 1)
  7435   002214  0436               	decf	APP_LEDUpdateUSBStatus@ledCount^0,w,c
  7436   002216  1037               	iorwf	(APP_LEDUpdateUSBStatus@ledCount+1)^0,w,c
  7437   002218  A4D8               	btfss	status,2,c
  7438   00221A  EF11  F011         	goto	i2u176_41
  7439   00221E  EF13  F011         	goto	i2u176_40
  7440   002222                     i2u176_41:
  7441   002222  EF18  F011         	goto	i2l3581
  7442   002226                     i2u176_40:
  7443   002226                     
  7444                           ;../demo_src/app_led_usb_status.c: 83:             {;../demo_src/app_led_usb_status.c: 8
      +                          4:                 LED_On(LED_D1);
  7445   002226  0E01               	movlw	1
  7446   002228  EC50  F015         	call	_LED_On
  7447                           
  7448                           ;../demo_src/app_led_usb_status.c: 85:             }
  7449   00222C  EF45  F011         	goto	i2l3593
  7450   002230                     i2l3581:
  7451   002230  0E32               	movlw	50
  7452   002232  1836               	xorwf	APP_LEDUpdateUSBStatus@ledCount^0,w,c
  7453   002234  1037               	iorwf	(APP_LEDUpdateUSBStatus@ledCount+1)^0,w,c
  7454   002236  A4D8               	btfss	status,2,c
  7455   002238  EF20  F011         	goto	i2u177_41
  7456   00223C  EF22  F011         	goto	i2u177_40
  7457   002240                     i2u177_41:
  7458   002240  EF27  F011         	goto	i2l3585
  7459   002244                     i2u177_40:
  7460   002244                     
  7461                           ;../demo_src/app_led_usb_status.c: 87:             {;../demo_src/app_led_usb_status.c: 8
      +                          8:                 LED_Off(LED_D1);
  7462   002244  0E01               	movlw	1
  7463   002246  EC81  F015         	call	_LED_Off
  7464                           
  7465                           ;../demo_src/app_led_usb_status.c: 89:             }
  7466   00224A  EF45  F011         	goto	i2l3593
  7467   00224E                     i2l3585:
  7468   00224E  0EB7               	movlw	183
  7469   002250  5C36               	subwf	APP_LEDUpdateUSBStatus@ledCount^0,w,c
  7470   002252  0E03               	movlw	3
  7471   002254  5837               	subwfb	(APP_LEDUpdateUSBStatus@ledCount+1)^0,w,c
  7472   002256  A0D8               	btfss	status,0,c
  7473   002258  EF30  F011         	goto	i2u178_41
  7474   00225C  EF32  F011         	goto	i2u178_40
  7475   002260                     i2u178_41:
  7476   002260  EF45  F011         	goto	i2l3593
  7477   002264                     i2u178_40:
  7478   002264  EF02  F011         	goto	i2l3575
  7479   002268                     i2l3591:
  7480   002268  504B               	movf	_USBDeviceState^0,w,c	;volatile
  7481   00226A  6E04               	movwf	??_APP_LEDUpdateUSBStatus^0,c
  7482   00226C  6A05               	clrf	(??_APP_LEDUpdateUSBStatus+1)^0,c
  7483                           
  7484                           ; Switch on 2 bytes has been partitioned into a top level switch of size 1, and 1 sub-sw
      +                          itches
  7485                           ; Switch size 1, requested type "simple"
  7486                           ; Number of cases is 1, Range of values is 0 to 0
  7487                           ; switch strategies available:
  7488                           ; Name         Instructions Cycles
  7489                           ; simple_byte            4     3 (average)
  7490                           ;	Chosen strategy is simple_byte
  7491   00226E  5005               	movf	(??_APP_LEDUpdateUSBStatus+1)^0,w,c
  7492   002270  0A00               	xorlw	0	; case 0
  7493   002272  B4D8               	btfsc	status,2,c
  7494   002274  EF3E  F011         	goto	i2l5983
  7495   002278  EF0A  F011         	goto	i2l3577
  7496   00227C                     i2l5983:
  7497                           
  7498                           ; Switch size 1, requested type "simple"
  7499                           ; Number of cases is 1, Range of values is 32 to 32
  7500                           ; switch strategies available:
  7501                           ; Name         Instructions Cycles
  7502                           ; simple_byte            4     3 (average)
  7503                           ;	Chosen strategy is simple_byte
  7504   00227C  5004               	movf	??_APP_LEDUpdateUSBStatus^0,w,c
  7505   00227E  0A20               	xorlw	32	; case 32
  7506   002280  B4D8               	btfsc	status,2,c
  7507   002282  EFDA  F010         	goto	i2l3565
  7508   002286  EF0A  F011         	goto	i2l3577
  7509   00228A                     i2l3593:
  7510                           
  7511                           ;../demo_src/app_led_usb_status.c: 98:     ledCount++;
  7512   00228A  4A36               	infsnz	APP_LEDUpdateUSBStatus@ledCount^0,f,c
  7513   00228C  2A37               	incf	(APP_LEDUpdateUSBStatus@ledCount+1)^0,f,c
  7514   00228E                     i2l608:
  7515   00228E  0012               	return		;funcret
  7516   002290                     __end_of_APP_LEDUpdateUSBStatus:
  7517                           	callstack 0
  7518                           
  7519 ;; *************** function _LED_On *****************
  7520 ;; Defined at:
  7521 ;;		line 96 in file "../../../../../../bsp/picdem_fs_usb/leds.c"
  7522 ;; Parameters:    Size  Location     Type
  7523 ;;  led             1    wreg     enum E2
  7524 ;; Auto vars:     Size  Location     Type
  7525 ;;  led             1    2[COMRAM] enum E2
  7526 ;; Return value:  Size  Location     Type
  7527 ;;                  1    wreg      void 
  7528 ;; Registers used:
  7529 ;;		wreg, status,2, status,0
  7530 ;; Tracked objects:
  7531 ;;		On entry : 0/0
  7532 ;;		On exit  : 0/0
  7533 ;;		Unchanged: 0/0
  7534 ;; Data sizes:     COMRAM   BANK0   BANK1   BANK2   BANK3   BANK4   BANK5   BANK6   BANK7
  7535 ;;      Params:         0       0       0       0       0       0       0       0       0
  7536 ;;      Locals:         1       0       0       0       0       0       0       0       0
  7537 ;;      Temps:          2       0       0       0       0       0       0       0       0
  7538 ;;      Totals:         3       0       0       0       0       0       0       0       0
  7539 ;;Total ram usage:        3 bytes
  7540 ;; Hardware stack levels used: 1
  7541 ;; This function calls:
  7542 ;;		Nothing
  7543 ;; This function is called by:
  7544 ;;		_APP_LEDUpdateUSBStatus
  7545 ;; This function uses a non-reentrant model
  7546 ;;
  7547                           
  7548                           	psect	text40
  7549   002AA0                     __ptext40:
  7550                           	callstack 0
  7551   002AA0                     _LED_On:
  7552                           	callstack 24
  7553                           
  7554                           ;incstack = 0
  7555                           ;LED_On@led stored from wreg
  7556   002AA0  6E03               	movwf	LED_On@led^0,c
  7557   002AA2                     
  7558                           ;../../../../../../bsp/picdem_fs_usb/leds.c: 96: void LED_On(LED led);../../../../../../
      +                          bsp/picdem_fs_usb/leds.c: 97: {;../../../../../../bsp/picdem_fs_usb/leds.c: 98:     swit
      +                          ch(led)
  7559   002AA2  EF5F  F015         	goto	i2l3389
  7560   002AA6                     i2l28:
  7561                           
  7562                           ;../../../../../../bsp/picdem_fs_usb/leds.c: 101:             LATDbits.LATD0 = 1;
  7563   002AA6  808C               	bsf	140,0,c	;volatile
  7564                           
  7565                           ;../../../../../../bsp/picdem_fs_usb/leds.c: 102:             break;
  7566   002AA8  EF80  F015         	goto	i2l34
  7567   002AAC                     i2l30:
  7568                           
  7569                           ;../../../../../../bsp/picdem_fs_usb/leds.c: 105:             LATDbits.LATD1 = 1;
  7570   002AAC  828C               	bsf	140,1,c	;volatile
  7571                           
  7572                           ;../../../../../../bsp/picdem_fs_usb/leds.c: 106:             break;
  7573   002AAE  EF80  F015         	goto	i2l34
  7574   002AB2                     i2l31:
  7575                           
  7576                           ;../../../../../../bsp/picdem_fs_usb/leds.c: 109:             LATDbits.LATD2 = 1;
  7577   002AB2  848C               	bsf	140,2,c	;volatile
  7578                           
  7579                           ;../../../../../../bsp/picdem_fs_usb/leds.c: 110:             break;
  7580   002AB4  EF80  F015         	goto	i2l34
  7581   002AB8                     i2l32:
  7582                           
  7583                           ;../../../../../../bsp/picdem_fs_usb/leds.c: 113:             LATDbits.LATD3 = 1;
  7584   002AB8  868C               	bsf	140,3,c	;volatile
  7585                           
  7586                           ;../../../../../../bsp/picdem_fs_usb/leds.c: 114:             break;
  7587   002ABA  EF80  F015         	goto	i2l34
  7588   002ABE                     i2l3389:
  7589   002ABE  5003               	movf	LED_On@led^0,w,c
  7590   002AC0  6E01               	movwf	??_LED_On^0,c
  7591   002AC2  6A02               	clrf	(??_LED_On+1)^0,c
  7592                           
  7593                           ; Switch on 2 bytes has been partitioned into a top level switch of size 1, and 1 sub-sw
      +                          itches
  7594                           ; Switch size 1, requested type "simple"
  7595                           ; Number of cases is 1, Range of values is 0 to 0
  7596                           ; switch strategies available:
  7597                           ; Name         Instructions Cycles
  7598                           ; simple_byte            4     3 (average)
  7599                           ;	Chosen strategy is simple_byte
  7600   002AC4  5002               	movf	(??_LED_On+1)^0,w,c
  7601   002AC6  0A00               	xorlw	0	; case 0
  7602   002AC8  B4D8               	btfsc	status,2,c
  7603   002ACA  EF69  F015         	goto	i2l5985
  7604   002ACE  EF80  F015         	goto	i2l34
  7605   002AD2                     i2l5985:
  7606                           
  7607                           ; Switch size 1, requested type "simple"
  7608                           ; Number of cases is 5, Range of values is 0 to 4
  7609                           ; switch strategies available:
  7610                           ; Name         Instructions Cycles
  7611                           ; simple_byte           16     9 (average)
  7612                           ;	Chosen strategy is simple_byte
  7613   002AD2  5001               	movf	??_LED_On^0,w,c
  7614   002AD4  0A00               	xorlw	0	; case 0
  7615   002AD6  B4D8               	btfsc	status,2,c
  7616   002AD8  EF80  F015         	goto	i2l34
  7617   002ADC  0A01               	xorlw	1	; case 1
  7618   002ADE  B4D8               	btfsc	status,2,c
  7619   002AE0  EF53  F015         	goto	i2l28
  7620   002AE4  0A03               	xorlw	3	; case 2
  7621   002AE6  B4D8               	btfsc	status,2,c
  7622   002AE8  EF56  F015         	goto	i2l30
  7623   002AEC  0A01               	xorlw	1	; case 3
  7624   002AEE  B4D8               	btfsc	status,2,c
  7625   002AF0  EF59  F015         	goto	i2l31
  7626   002AF4  0A07               	xorlw	7	; case 4
  7627   002AF6  B4D8               	btfsc	status,2,c
  7628   002AF8  EF5C  F015         	goto	i2l32
  7629   002AFC  EF80  F015         	goto	i2l34
  7630   002B00                     i2l34:
  7631   002B00  0012               	return		;funcret
  7632   002B02                     __end_of_LED_On:
  7633                           	callstack 0
  7634                           
  7635 ;; *************** function _LED_Off *****************
  7636 ;; Defined at:
  7637 ;;		line 137 in file "../../../../../../bsp/picdem_fs_usb/leds.c"
  7638 ;; Parameters:    Size  Location     Type
  7639 ;;  led             1    wreg     enum E2
  7640 ;; Auto vars:     Size  Location     Type
  7641 ;;  led             1    2[COMRAM] enum E2
  7642 ;; Return value:  Size  Location     Type
  7643 ;;                  1    wreg      void 
  7644 ;; Registers used:
  7645 ;;		wreg, status,2, status,0
  7646 ;; Tracked objects:
  7647 ;;		On entry : 0/0
  7648 ;;		On exit  : 0/0
  7649 ;;		Unchanged: 0/0
  7650 ;; Data sizes:     COMRAM   BANK0   BANK1   BANK2   BANK3   BANK4   BANK5   BANK6   BANK7
  7651 ;;      Params:         0       0       0       0       0       0       0       0       0
  7652 ;;      Locals:         1       0       0       0       0       0       0       0       0
  7653 ;;      Temps:          2       0       0       0       0       0       0       0       0
  7654 ;;      Totals:         3       0       0       0       0       0       0       0       0
  7655 ;;Total ram usage:        3 bytes
  7656 ;; Hardware stack levels used: 1
  7657 ;; This function calls:
  7658 ;;		Nothing
  7659 ;; This function is called by:
  7660 ;;		_APP_LEDUpdateUSBStatus
  7661 ;; This function uses a non-reentrant model
  7662 ;;
  7663                           
  7664                           	psect	text41
  7665   002B02                     __ptext41:
  7666                           	callstack 0
  7667   002B02                     _LED_Off:
  7668                           	callstack 24
  7669                           
  7670                           ;incstack = 0
  7671                           ;LED_Off@led stored from wreg
  7672   002B02  6E03               	movwf	LED_Off@led^0,c
  7673   002B04                     
  7674                           ;../../../../../../bsp/picdem_fs_usb/leds.c: 137: void LED_Off(LED led);../../../../../.
      +                          ./bsp/picdem_fs_usb/leds.c: 138: {;../../../../../../bsp/picdem_fs_usb/leds.c: 139:     
      +                          switch(led)
  7675   002B04  EF90  F015         	goto	i2l3399
  7676   002B08                     i2l38:
  7677                           
  7678                           ;../../../../../../bsp/picdem_fs_usb/leds.c: 142:             LATDbits.LATD0 = 0;
  7679   002B08  908C               	bcf	140,0,c	;volatile
  7680                           
  7681                           ;../../../../../../bsp/picdem_fs_usb/leds.c: 143:             break;
  7682   002B0A  EFB1  F015         	goto	i2l44
  7683   002B0E                     i2l40:
  7684                           
  7685                           ;../../../../../../bsp/picdem_fs_usb/leds.c: 146:             LATDbits.LATD1 = 0;
  7686   002B0E  928C               	bcf	140,1,c	;volatile
  7687                           
  7688                           ;../../../../../../bsp/picdem_fs_usb/leds.c: 147:             break;
  7689   002B10  EFB1  F015         	goto	i2l44
  7690   002B14                     i2l41:
  7691                           
  7692                           ;../../../../../../bsp/picdem_fs_usb/leds.c: 150:             LATDbits.LATD2 = 0;
  7693   002B14  948C               	bcf	140,2,c	;volatile
  7694                           
  7695                           ;../../../../../../bsp/picdem_fs_usb/leds.c: 151:             break;
  7696   002B16  EFB1  F015         	goto	i2l44
  7697   002B1A                     i2l42:
  7698                           
  7699                           ;../../../../../../bsp/picdem_fs_usb/leds.c: 154:             LATDbits.LATD3 = 0;
  7700   002B1A  968C               	bcf	140,3,c	;volatile
  7701                           
  7702                           ;../../../../../../bsp/picdem_fs_usb/leds.c: 155:             break;
  7703   002B1C  EFB1  F015         	goto	i2l44
  7704   002B20                     i2l3399:
  7705   002B20  5003               	movf	LED_Off@led^0,w,c
  7706   002B22  6E01               	movwf	??_LED_Off^0,c
  7707   002B24  6A02               	clrf	(??_LED_Off+1)^0,c
  7708                           
  7709                           ; Switch on 2 bytes has been partitioned into a top level switch of size 1, and 1 sub-sw
      +                          itches
  7710                           ; Switch size 1, requested type "simple"
  7711                           ; Number of cases is 1, Range of values is 0 to 0
  7712                           ; switch strategies available:
  7713                           ; Name         Instructions Cycles
  7714                           ; simple_byte            4     3 (average)
  7715                           ;	Chosen strategy is simple_byte
  7716   002B26  5002               	movf	(??_LED_Off+1)^0,w,c
  7717   002B28  0A00               	xorlw	0	; case 0
  7718   002B2A  B4D8               	btfsc	status,2,c
  7719   002B2C  EF9A  F015         	goto	i2l5987
  7720   002B30  EFB1  F015         	goto	i2l44
  7721   002B34                     i2l5987:
  7722                           
  7723                           ; Switch size 1, requested type "simple"
  7724                           ; Number of cases is 5, Range of values is 0 to 4
  7725                           ; switch strategies available:
  7726                           ; Name         Instructions Cycles
  7727                           ; simple_byte           16     9 (average)
  7728                           ;	Chosen strategy is simple_byte
  7729   002B34  5001               	movf	??_LED_Off^0,w,c
  7730   002B36  0A00               	xorlw	0	; case 0
  7731   002B38  B4D8               	btfsc	status,2,c
  7732   002B3A  EFB1  F015         	goto	i2l44
  7733   002B3E  0A01               	xorlw	1	; case 1
  7734   002B40  B4D8               	btfsc	status,2,c
  7735   002B42  EF84  F015         	goto	i2l38
  7736   002B46  0A03               	xorlw	3	; case 2
  7737   002B48  B4D8               	btfsc	status,2,c
  7738   002B4A  EF87  F015         	goto	i2l40
  7739   002B4E  0A01               	xorlw	1	; case 3
  7740   002B50  B4D8               	btfsc	status,2,c
  7741   002B52  EF8A  F015         	goto	i2l41
  7742   002B56  0A07               	xorlw	7	; case 4
  7743   002B58  B4D8               	btfsc	status,2,c
  7744   002B5A  EF8D  F015         	goto	i2l42
  7745   002B5E  EFB1  F015         	goto	i2l44
  7746   002B62                     i2l44:
  7747   002B62  0012               	return		;funcret
  7748   002B64                     __end_of_LED_Off:
  7749                           	callstack 0
  7750                           
  7751 ;; *************** function _APP_DeviceCustomHIDInitialize *****************
  7752 ;; Defined at:
  7753 ;;		line 77 in file "../demo_src/app_device_custom_hid.c"
  7754 ;; Parameters:    Size  Location     Type
  7755 ;;		None
  7756 ;; Auto vars:     Size  Location     Type
  7757 ;;		None
  7758 ;; Return value:  Size  Location     Type
  7759 ;;                  1    wreg      void 
  7760 ;; Registers used:
  7761 ;;		wreg, fsr2l, fsr2h, status,2, status,0, prodl, prodh, cstack
  7762 ;; Tracked objects:
  7763 ;;		On entry : 0/0
  7764 ;;		On exit  : 0/0
  7765 ;;		Unchanged: 0/0
  7766 ;; Data sizes:     COMRAM   BANK0   BANK1   BANK2   BANK3   BANK4   BANK5   BANK6   BANK7
  7767 ;;      Params:         0       0       0       0       0       0       0       0       0
  7768 ;;      Locals:         0       0       0       0       0       0       0       0       0
  7769 ;;      Temps:          0       0       0       0       0       0       0       0       0
  7770 ;;      Totals:         0       0       0       0       0       0       0       0       0
  7771 ;;Total ram usage:        0 bytes
  7772 ;; Hardware stack levels used: 1
  7773 ;; Hardware stack levels required when called: 2
  7774 ;; This function calls:
  7775 ;;		_USBEnableEndpoint
  7776 ;;		i2_USBTransferOnePacket
  7777 ;; This function is called by:
  7778 ;;		_USER_USB_CALLBACK_EVENT_HANDLER
  7779 ;; This function uses a non-reentrant model
  7780 ;;
  7781                           
  7782                           	psect	text42
  7783   002E2A                     __ptext42:
  7784                           	callstack 0
  7785   002E2A                     _APP_DeviceCustomHIDInitialize:
  7786                           	callstack 23
  7787   002E2A                     
  7788                           ;../demo_src/app_device_custom_hid.c: 81:     USBInHandle = 0;
  7789   002E2A  0E00               	movlw	0
  7790   002E2C  0100               	movlb	0	; () banked
  7791   002E2E  6F76               	movwf	_USBInHandle& (0+255),b
  7792   002E30  0E00               	movlw	0
  7793   002E32  6F77               	movwf	(_USBInHandle+1)& (0+255),b
  7794   002E34                     
  7795                           ; BSR set to: 0
  7796                           ;../demo_src/app_device_custom_hid.c: 84:     USBEnableEndpoint(1, 0x02|0x04|0x10|0x08);
  7797   002E34  0E1E               	movlw	30
  7798   002E36  6E0B               	movwf	USBEnableEndpoint@options^0,c
  7799   002E38  0E01               	movlw	1
  7800   002E3A  EC67  F016         	call	_USBEnableEndpoint
  7801   002E3E                     
  7802                           ;../demo_src/app_device_custom_hid.c: 87:     USBOutHandle = (volatile void*)USBTransfer
      +                          OnePacket(1,0,(uint8_t*)&ReceivedDataBuffer[0],64);
  7803   002E3E  0E00               	movlw	0
  7804   002E40  6E01               	movwf	i2USBTransferOnePacket@dir^0,c
  7805   002E42  0E00               	movlw	0
  7806   002E44  6E02               	movwf	i2USBTransferOnePacket@data^0,c
  7807   002E46  0E05               	movlw	5
  7808   002E48  6E03               	movwf	(i2USBTransferOnePacket@data+1)^0,c
  7809   002E4A  0E40               	movlw	64
  7810   002E4C  6E04               	movwf	i2USBTransferOnePacket@len^0,c
  7811   002E4E  0E01               	movlw	1
  7812   002E50  ECFE  F00D         	call	i2_USBTransferOnePacket
  7813   002E54  C001  F078         	movff	?i2_USBTransferOnePacket,_USBOutHandle
  7814   002E58  C002  F079         	movff	?i2_USBTransferOnePacket+1,_USBOutHandle+1
  7815   002E5C  0012               	return		;funcret
  7816   002E5E                     __end_of_APP_DeviceCustomHIDInitialize:
  7817                           	callstack 0
  7818                           
  7819 ;; *************** function i2_USBTransferOnePacket *****************
  7820 ;; Defined at:
  7821 ;;		line 999 in file "../../../../../../framework/usb/src/usb_device.c"
  7822 ;; Parameters:    Size  Location     Type
  7823 ;;  ep              1    wreg     unsigned char 
  7824 ;;  dir             1    0[COMRAM] unsigned char 
  7825 ;;  data            2    1[COMRAM] PTR unsigned char 
  7826 ;;		 -> ToSendDataBuffer(64), ReceivedDataBuffer(64), 
  7827 ;;  len             1    3[COMRAM] unsigned char 
  7828 ;; Auto vars:     Size  Location     Type
  7829 ;;  ep              1    8[COMRAM] unsigned char 
  7830 ;;  handle          2    9[COMRAM] PTR volatile struct __BD
  7831 ;;		 -> RAM(2047), NULL(0), BDT(32), 
  7832 ;; Return value:  Size  Location     Type
  7833 ;;                  2    0[COMRAM] PTR void 
  7834 ;; Registers used:
  7835 ;;		wreg, fsr2l, fsr2h, status,2, status,0, prodl, prodh
  7836 ;; Tracked objects:
  7837 ;;		On entry : 0/0
  7838 ;;		On exit  : 0/0
  7839 ;;		Unchanged: 0/0
  7840 ;; Data sizes:     COMRAM   BANK0   BANK1   BANK2   BANK3   BANK4   BANK5   BANK6   BANK7
  7841 ;;      Params:         4       0       0       0       0       0       0       0       0
  7842 ;;      Locals:         3       0       0       0       0       0       0       0       0
  7843 ;;      Temps:          4       0       0       0       0       0       0       0       0
  7844 ;;      Totals:        11       0       0       0       0       0       0       0       0
  7845 ;;Total ram usage:       11 bytes
  7846 ;; Hardware stack levels used: 1
  7847 ;; This function calls:
  7848 ;;		Nothing
  7849 ;; This function is called by:
  7850 ;;		_APP_DeviceCustomHIDInitialize
  7851 ;; This function uses a non-reentrant model
  7852 ;;
  7853                           
  7854                           	psect	text43
  7855   001BFC                     __ptext43:
  7856                           	callstack 0
  7857   001BFC                     i2_USBTransferOnePacket:
  7858                           	callstack 24
  7859                           
  7860                           ;incstack = 0
  7861                           ;i2USBTransferOnePacket@ep stored from wreg
  7862   001BFC  6E09               	movwf	i2USBTransferOnePacket@ep^0,c
  7863   001BFE                     
  7864                           ;../../../../../../framework/usb/src/usb_device.c: 999: void* USBTransferOnePacket(uint8
      +                          _t ep,uint8_t dir,uint8_t* data,uint8_t len);../../../../../../framework/usb/src/usb_dev
      +                          ice.c: 1000: {;../../../../../../framework/usb/src/usb_device.c: 1001:     volatile BDT_
      +                          ENTRY* handle;;../../../../../../framework/usb/src/usb_device.c: 1004:     if(dir != 0)
  7865   001BFE  5001               	movf	i2USBTransferOnePacket@dir^0,w,c
  7866   001C00  B4D8               	btfsc	status,2,c
  7867   001C02  EF05  F00E         	goto	i2u164_41
  7868   001C06  EF07  F00E         	goto	i2u164_40
  7869   001C0A                     i2u164_41:
  7870   001C0A  EF15  F00E         	goto	i2l3463
  7871   001C0E                     i2u164_40:
  7872   001C0E                     
  7873                           ;../../../../../../framework/usb/src/usb_device.c: 1005:     {;../../../../../../framewo
      +                          rk/usb/src/usb_device.c: 1007:         handle = pBDTEntryIn[ep];
  7874   001C0E  5009               	movf	i2USBTransferOnePacket@ep^0,w,c
  7875   001C10  0D02               	mullw	2
  7876   001C12  0E6E               	movlw	low _pBDTEntryIn
  7877   001C14  24F3               	addwf	243,w,c
  7878   001C16  6ED9               	movwf	fsr2l,c
  7879   001C18  0E00               	movlw	high _pBDTEntryIn
  7880   001C1A  20F4               	addwfc	prodh,w,c
  7881   001C1C  6EDA               	movwf	fsr2h,c
  7882   001C1E  CFDE F00A          	movff	postinc2,i2USBTransferOnePacket@handle
  7883   001C22  CFDD F00B          	movff	postdec2,i2USBTransferOnePacket@handle+1
  7884                           
  7885                           ;../../../../../../framework/usb/src/usb_device.c: 1008:     }
  7886   001C26  EF21  F00E         	goto	i2l3465
  7887   001C2A                     i2l3463:
  7888                           
  7889                           ;../../../../../../framework/usb/src/usb_device.c: 1010:     {;../../../../../../framewo
      +                          rk/usb/src/usb_device.c: 1012:         handle = pBDTEntryOut[ep];
  7890   001C2A  5009               	movf	i2USBTransferOnePacket@ep^0,w,c
  7891   001C2C  0D02               	mullw	2
  7892   001C2E  0E72               	movlw	low _pBDTEntryOut
  7893   001C30  24F3               	addwf	243,w,c
  7894   001C32  6ED9               	movwf	fsr2l,c
  7895   001C34  0E00               	movlw	high _pBDTEntryOut
  7896   001C36  20F4               	addwfc	prodh,w,c
  7897   001C38  6EDA               	movwf	fsr2h,c
  7898   001C3A  CFDE F00A          	movff	postinc2,i2USBTransferOnePacket@handle
  7899   001C3E  CFDD F00B          	movff	postdec2,i2USBTransferOnePacket@handle+1
  7900   001C42                     i2l3465:
  7901                           
  7902                           ;../../../../../../framework/usb/src/usb_device.c: 1017:     if(handle == 0)
  7903   001C42  500A               	movf	i2USBTransferOnePacket@handle^0,w,c
  7904   001C44  100B               	iorwf	(i2USBTransferOnePacket@handle+1)^0,w,c
  7905   001C46  A4D8               	btfss	status,2,c
  7906   001C48  EF28  F00E         	goto	i2u165_41
  7907   001C4C  EF2A  F00E         	goto	i2u165_40
  7908   001C50                     i2u165_41:
  7909   001C50  EF30  F00E         	goto	i2l3471
  7910   001C54                     i2u165_40:
  7911   001C54                     
  7912                           ;../../../../../../framework/usb/src/usb_device.c: 1018:     {;../../../../../../framewo
      +                          rk/usb/src/usb_device.c: 1019:         return 0;
  7913   001C54  0E00               	movlw	0
  7914   001C56  6E01               	movwf	?i2_USBTransferOnePacket^0,c
  7915   001C58  0E00               	movlw	0
  7916   001C5A  6E02               	movwf	(?i2_USBTransferOnePacket+1)^0,c
  7917   001C5C  EF9C  F00E         	goto	i2l302
  7918   001C60                     i2l3471:
  7919                           
  7920                           ;../../../../../../framework/usb/src/usb_device.c: 1033:     handle->ADR = ((uint16_t)(d
      +                          ata));
  7921   001C60  EE20 F002          	lfsr	2,2
  7922   001C64  500A               	movf	i2USBTransferOnePacket@handle^0,w,c
  7923   001C66  26D9               	addwf	fsr2l,f,c
  7924   001C68  500B               	movf	(i2USBTransferOnePacket@handle+1)^0,w,c
  7925   001C6A  22DA               	addwfc	fsr2h,f,c
  7926   001C6C  C002  FFDE         	movff	i2USBTransferOnePacket@data,postinc2
  7927   001C70  C003  FFDD         	movff	i2USBTransferOnePacket@data+1,postdec2
  7928                           
  7929                           ;../../../../../../framework/usb/src/usb_device.c: 1034:     handle->CNT = len;
  7930   001C74  EE20 F001          	lfsr	2,1
  7931   001C78  500A               	movf	i2USBTransferOnePacket@handle^0,w,c
  7932   001C7A  26D9               	addwf	fsr2l,f,c
  7933   001C7C  500B               	movf	(i2USBTransferOnePacket@handle+1)^0,w,c
  7934   001C7E  22DA               	addwfc	fsr2h,f,c
  7935   001C80  C004  FFDF         	movff	i2USBTransferOnePacket@len,indf2
  7936   001C84                     
  7937                           ;../../../../../../framework/usb/src/usb_device.c: 1035:     handle->STAT.Val &= 0x40;
  7938   001C84  C00A  FFD9         	movff	i2USBTransferOnePacket@handle,fsr2l
  7939   001C88  C00B  FFDA         	movff	i2USBTransferOnePacket@handle+1,fsr2h
  7940   001C8C  0E40               	movlw	64
  7941   001C8E  16DF               	andwf	indf2,f,c
  7942   001C90                     
  7943                           ;../../../../../../framework/usb/src/usb_device.c: 1036:     handle->STAT.Val |= (0x08 &
      +                           0x08);
  7944   001C90  C00A  FFD9         	movff	i2USBTransferOnePacket@handle,fsr2l
  7945   001C94  C00B  FFDA         	movff	i2USBTransferOnePacket@handle+1,fsr2h
  7946   001C98  0E00               	movlw	0
  7947   001C9A  86DB               	bsf	plusw2,3,c
  7948   001C9C                     
  7949                           ;../../../../../../framework/usb/src/usb_device.c: 1037:     handle->STAT.Val |= 0x80;
  7950   001C9C  C00A  FFD9         	movff	i2USBTransferOnePacket@handle,fsr2l
  7951   001CA0  C00B  FFDA         	movff	i2USBTransferOnePacket@handle+1,fsr2h
  7952   001CA4  0E00               	movlw	0
  7953   001CA6  8EDB               	bsf	plusw2,7,c
  7954   001CA8                     
  7955                           ;../../../../../../framework/usb/src/usb_device.c: 1040:     if(dir != 0)
  7956   001CA8  5001               	movf	i2USBTransferOnePacket@dir^0,w,c
  7957   001CAA  B4D8               	btfsc	status,2,c
  7958   001CAC  EF5A  F00E         	goto	i2u166_41
  7959   001CB0  EF5C  F00E         	goto	i2u166_40
  7960   001CB4                     i2u166_41:
  7961   001CB4  EF7B  F00E         	goto	i2l3483
  7962   001CB8                     i2u166_40:
  7963   001CB8                     
  7964                           ;../../../../../../framework/usb/src/usb_device.c: 1041:     {;../../../../../../framewo
      +                          rk/usb/src/usb_device.c: 1043:         pBDTEntryIn[ep] = (BDT_ENTRY*)(((uint16_t)pBDTEnt
      +                          ryIn[ep]) ^ 0x0004);
  7965   001CB8  5009               	movf	i2USBTransferOnePacket@ep^0,w,c
  7966   001CBA  0D02               	mullw	2
  7967   001CBC  0E6E               	movlw	low _pBDTEntryIn
  7968   001CBE  24F3               	addwf	243,w,c
  7969   001CC0  6ED9               	movwf	fsr2l,c
  7970   001CC2  0E00               	movlw	high _pBDTEntryIn
  7971   001CC4  20F4               	addwfc	prodh,w,c
  7972   001CC6  6EDA               	movwf	fsr2h,c
  7973   001CC8  CFDE F005          	movff	postinc2,??i2_USBTransferOnePacket
  7974   001CCC  CFDD F006          	movff	postdec2,??i2_USBTransferOnePacket+1
  7975   001CD0  0E04               	movlw	4
  7976   001CD2  1805               	xorwf	??i2_USBTransferOnePacket^0,w,c
  7977   001CD4  6E07               	movwf	(??i2_USBTransferOnePacket+2)^0,c
  7978   001CD6  5006               	movf	(??i2_USBTransferOnePacket+1)^0,w,c
  7979   001CD8  6E08               	movwf	(??i2_USBTransferOnePacket+3)^0,c
  7980   001CDA  5009               	movf	i2USBTransferOnePacket@ep^0,w,c
  7981   001CDC  0D02               	mullw	2
  7982   001CDE  0E6E               	movlw	low _pBDTEntryIn
  7983   001CE0  24F3               	addwf	243,w,c
  7984   001CE2  6ED9               	movwf	fsr2l,c
  7985   001CE4  0E00               	movlw	high _pBDTEntryIn
  7986   001CE6  20F4               	addwfc	prodh,w,c
  7987   001CE8  6EDA               	movwf	fsr2h,c
  7988   001CEA  C007  FFDE         	movff	??i2_USBTransferOnePacket+2,postinc2
  7989   001CEE  C008  FFDD         	movff	??i2_USBTransferOnePacket+3,postdec2
  7990                           
  7991                           ;../../../../../../framework/usb/src/usb_device.c: 1044:     }
  7992   001CF2  EF98  F00E         	goto	i2l3485
  7993   001CF6                     i2l3483:
  7994                           
  7995                           ;../../../../../../framework/usb/src/usb_device.c: 1046:     {;../../../../../../framewo
      +                          rk/usb/src/usb_device.c: 1048:         pBDTEntryOut[ep] = (BDT_ENTRY*)(((uint16_t)pBDTEn
      +                          tryOut[ep]) ^ 0x0004);
  7996   001CF6  5009               	movf	i2USBTransferOnePacket@ep^0,w,c
  7997   001CF8  0D02               	mullw	2
  7998   001CFA  0E72               	movlw	low _pBDTEntryOut
  7999   001CFC  24F3               	addwf	243,w,c
  8000   001CFE  6ED9               	movwf	fsr2l,c
  8001   001D00  0E00               	movlw	high _pBDTEntryOut
  8002   001D02  20F4               	addwfc	prodh,w,c
  8003   001D04  6EDA               	movwf	fsr2h,c
  8004   001D06  CFDE F005          	movff	postinc2,??i2_USBTransferOnePacket
  8005   001D0A  CFDD F006          	movff	postdec2,??i2_USBTransferOnePacket+1
  8006   001D0E  0E04               	movlw	4
  8007   001D10  1805               	xorwf	??i2_USBTransferOnePacket^0,w,c
  8008   001D12  6E07               	movwf	(??i2_USBTransferOnePacket+2)^0,c
  8009   001D14  5006               	movf	(??i2_USBTransferOnePacket+1)^0,w,c
  8010   001D16  6E08               	movwf	(??i2_USBTransferOnePacket+3)^0,c
  8011   001D18  5009               	movf	i2USBTransferOnePacket@ep^0,w,c
  8012   001D1A  0D02               	mullw	2
  8013   001D1C  0E72               	movlw	low _pBDTEntryOut
  8014   001D1E  24F3               	addwf	243,w,c
  8015   001D20  6ED9               	movwf	fsr2l,c
  8016   001D22  0E00               	movlw	high _pBDTEntryOut
  8017   001D24  20F4               	addwfc	prodh,w,c
  8018   001D26  6EDA               	movwf	fsr2h,c
  8019   001D28  C007  FFDE         	movff	??i2_USBTransferOnePacket+2,postinc2
  8020   001D2C  C008  FFDD         	movff	??i2_USBTransferOnePacket+3,postdec2
  8021   001D30                     i2l3485:
  8022                           
  8023                           ;../../../../../../framework/usb/src/usb_device.c: 1050:     return (void*)handle;
  8024   001D30  C00A  F001         	movff	i2USBTransferOnePacket@handle,?i2_USBTransferOnePacket
  8025   001D34  C00B  F002         	movff	i2USBTransferOnePacket@handle+1,?i2_USBTransferOnePacket+1
  8026   001D38                     i2l302:
  8027   001D38  0012               	return		;funcret
  8028   001D3A                     __end_ofi2_USBTransferOnePacket:
  8029                           	callstack 0
  8030                           
  8031 ;; *************** function _USBEnableEndpoint *****************
  8032 ;; Defined at:
  8033 ;;		line 882 in file "../../../../../../framework/usb/src/usb_device.c"
  8034 ;; Parameters:    Size  Location     Type
  8035 ;;  ep              1    wreg     unsigned char 
  8036 ;;  options         1   10[COMRAM] unsigned char 
  8037 ;; Auto vars:     Size  Location     Type
  8038 ;;  ep              1   13[COMRAM] unsigned char 
  8039 ;;  p               2   11[COMRAM] PTR unsigned char 
  8040 ;;		 -> UEP0(1), 
  8041 ;; Return value:  Size  Location     Type
  8042 ;;                  1    wreg      void 
  8043 ;; Registers used:
  8044 ;;		wreg, fsr2l, fsr2h, status,2, status,0, prodl, prodh, cstack
  8045 ;; Tracked objects:
  8046 ;;		On entry : 0/0
  8047 ;;		On exit  : 0/0
  8048 ;;		Unchanged: 0/0
  8049 ;; Data sizes:     COMRAM   BANK0   BANK1   BANK2   BANK3   BANK4   BANK5   BANK6   BANK7
  8050 ;;      Params:         1       0       0       0       0       0       0       0       0
  8051 ;;      Locals:         3       0       0       0       0       0       0       0       0
  8052 ;;      Temps:          0       0       0       0       0       0       0       0       0
  8053 ;;      Totals:         4       0       0       0       0       0       0       0       0
  8054 ;;Total ram usage:        4 bytes
  8055 ;; Hardware stack levels used: 1
  8056 ;; Hardware stack levels required when called: 1
  8057 ;; This function calls:
  8058 ;;		_USBConfigureEndpoint
  8059 ;; This function is called by:
  8060 ;;		_APP_DeviceCustomHIDInitialize
  8061 ;; This function uses a non-reentrant model
  8062 ;;
  8063                           
  8064                           	psect	text44
  8065   002CCE                     __ptext44:
  8066                           	callstack 0
  8067   002CCE                     _USBEnableEndpoint:
  8068                           	callstack 23
  8069                           
  8070                           ;incstack = 0
  8071                           ;USBEnableEndpoint@ep stored from wreg
  8072   002CCE  6E0E               	movwf	USBEnableEndpoint@ep^0,c
  8073   002CD0                     
  8074                           ;../../../../../../framework/usb/src/usb_device.c: 882: void USBEnableEndpoint(uint8_t e
      +                          p, uint8_t options);../../../../../../framework/usb/src/usb_device.c: 883: {;../../../..
      +                          /../../framework/usb/src/usb_device.c: 884:     unsigned char* p;;../../../../../../fram
      +                          ework/usb/src/usb_device.c: 888:     if(options & 0x04)
  8075   002CD0  A40B               	btfss	USBEnableEndpoint@options^0,2,c
  8076   002CD2  EF6D  F016         	goto	i2u161_41
  8077   002CD6  EF6F  F016         	goto	i2u161_40
  8078   002CDA                     i2u161_41:
  8079   002CDA  EF74  F016         	goto	i2l3409
  8080   002CDE                     i2u161_40:
  8081   002CDE                     
  8082                           ;../../../../../../framework/usb/src/usb_device.c: 889:     {;../../../../../../framewor
      +                          k/usb/src/usb_device.c: 890:         USBConfigureEndpoint(ep, 0);
  8083   002CDE  0E00               	movlw	0
  8084   002CE0  6E01               	movwf	USBConfigureEndpoint@direction^0,c
  8085   002CE2  500E               	movf	USBEnableEndpoint@ep^0,w,c
  8086   002CE4  ECE9  F012         	call	_USBConfigureEndpoint
  8087   002CE8                     i2l3409:
  8088                           
  8089                           ;../../../../../../framework/usb/src/usb_device.c: 892:     if(options & 0x02)
  8090   002CE8  A20B               	btfss	USBEnableEndpoint@options^0,1,c
  8091   002CEA  EF79  F016         	goto	i2u162_41
  8092   002CEE  EF7B  F016         	goto	i2u162_40
  8093   002CF2                     i2u162_41:
  8094   002CF2  EF80  F016         	goto	i2l3413
  8095   002CF6                     i2u162_40:
  8096   002CF6                     
  8097                           ;../../../../../../framework/usb/src/usb_device.c: 893:     {;../../../../../../framewor
      +                          k/usb/src/usb_device.c: 894:         USBConfigureEndpoint(ep, 1);
  8098   002CF6  0E01               	movlw	1
  8099   002CF8  6E01               	movwf	USBConfigureEndpoint@direction^0,c
  8100   002CFA  500E               	movf	USBEnableEndpoint@ep^0,w,c
  8101   002CFC  ECE9  F012         	call	_USBConfigureEndpoint
  8102   002D00                     i2l3413:
  8103                           
  8104                           ;../../../../../../framework/usb/src/usb_device.c: 903:         p = (unsigned char*)(&UE
      +                          P0+ep);
  8105   002D00  0E70               	movlw	112
  8106   002D02  240E               	addwf	USBEnableEndpoint@ep^0,w,c
  8107   002D04  6E0C               	movwf	USBEnableEndpoint@p^0,c
  8108   002D06  6A0D               	clrf	(USBEnableEndpoint@p+1)^0,c
  8109   002D08  0E0F               	movlw	15
  8110   002D0A  220D               	addwfc	(USBEnableEndpoint@p+1)^0,f,c
  8111   002D0C                     
  8112                           ;../../../../../../framework/usb/src/usb_device.c: 905:     *p = options;
  8113   002D0C  C00C  FFD9         	movff	USBEnableEndpoint@p,fsr2l
  8114   002D10  C00D  FFDA         	movff	USBEnableEndpoint@p+1,fsr2h
  8115   002D14  C00B  FFDF         	movff	USBEnableEndpoint@options,indf2
  8116   002D18  0012               	return		;funcret
  8117   002D1A                     __end_of_USBEnableEndpoint:
  8118                           	callstack 0
  8119                           
  8120 ;; *************** function _USBConfigureEndpoint *****************
  8121 ;; Defined at:
  8122 ;;		line 1547 in file "../../../../../../framework/usb/src/usb_device.c"
  8123 ;; Parameters:    Size  Location     Type
  8124 ;;  EPNum           1    wreg     unsigned char 
  8125 ;;  direction       1    0[COMRAM] unsigned char 
  8126 ;; Auto vars:     Size  Location     Type
  8127 ;;  EPNum           1    7[COMRAM] unsigned char 
  8128 ;;  handle          2    8[COMRAM] PTR volatile struct __BD
  8129 ;;		 -> BDT(32), 
  8130 ;; Return value:  Size  Location     Type
  8131 ;;                  1    wreg      void 
  8132 ;; Registers used:
  8133 ;;		wreg, fsr2l, fsr2h, status,2, status,0, prodl, prodh
  8134 ;; Tracked objects:
  8135 ;;		On entry : 0/0
  8136 ;;		On exit  : 0/0
  8137 ;;		Unchanged: 0/0
  8138 ;; Data sizes:     COMRAM   BANK0   BANK1   BANK2   BANK3   BANK4   BANK5   BANK6   BANK7
  8139 ;;      Params:         1       0       0       0       0       0       0       0       0
  8140 ;;      Locals:         3       0       0       0       0       0       0       0       0
  8141 ;;      Temps:          6       0       0       0       0       0       0       0       0
  8142 ;;      Totals:        10       0       0       0       0       0       0       0       0
  8143 ;;Total ram usage:       10 bytes
  8144 ;; Hardware stack levels used: 1
  8145 ;; This function calls:
  8146 ;;		Nothing
  8147 ;; This function is called by:
  8148 ;;		_USBEnableEndpoint
  8149 ;; This function uses a non-reentrant model
  8150 ;;
  8151                           
  8152                           	psect	text45
  8153   0025D2                     __ptext45:
  8154                           	callstack 0
  8155   0025D2                     _USBConfigureEndpoint:
  8156                           	callstack 23
  8157                           
  8158                           ;incstack = 0
  8159                           ;USBConfigureEndpoint@EPNum stored from wreg
  8160   0025D2  6E08               	movwf	USBConfigureEndpoint@EPNum^0,c
  8161   0025D4                     
  8162                           ;../../../../../../framework/usb/src/usb_device.c: 1547: static void USBConfigureEndpoin
      +                          t(uint8_t EPNum, uint8_t direction);../../../../../../framework/usb/src/usb_device.c: 15
      +                          48: {;../../../../../../framework/usb/src/usb_device.c: 1549:     volatile BDT_ENTRY* ha
      +                          ndle;;../../../../../../framework/usb/src/usb_device.c: 1553:     handle = (volatile BDT
      +                          _ENTRY*)&BDT[0];
  8163   0025D4  0E00               	movlw	0
  8164   0025D6  6E09               	movwf	USBConfigureEndpoint@handle^0,c
  8165   0025D8  0E04               	movlw	4
  8166   0025DA  6E0A               	movwf	(USBConfigureEndpoint@handle+1)^0,c
  8167   0025DC                     
  8168                           ;../../../../../../framework/usb/src/usb_device.c: 1554:     handle += (4*EPNum+2*direct
      +                          ion+0u);
  8169   0025DC  5001               	movf	USBConfigureEndpoint@direction^0,w,c
  8170   0025DE  6E02               	movwf	??_USBConfigureEndpoint^0,c
  8171   0025E0  6A03               	clrf	(??_USBConfigureEndpoint+1)^0,c
  8172   0025E2  90D8               	bcf	status,0,c
  8173   0025E4  3602               	rlcf	??_USBConfigureEndpoint^0,f,c
  8174   0025E6  3603               	rlcf	(??_USBConfigureEndpoint+1)^0,f,c
  8175   0025E8  5008               	movf	USBConfigureEndpoint@EPNum^0,w,c
  8176   0025EA  6E04               	movwf	(??_USBConfigureEndpoint+2)^0,c
  8177   0025EC  6A05               	clrf	(??_USBConfigureEndpoint+3)^0,c
  8178   0025EE  90D8               	bcf	status,0,c
  8179   0025F0  3604               	rlcf	(??_USBConfigureEndpoint+2)^0,f,c
  8180   0025F2  3605               	rlcf	(??_USBConfigureEndpoint+3)^0,f,c
  8181   0025F4  90D8               	bcf	status,0,c
  8182   0025F6  3604               	rlcf	(??_USBConfigureEndpoint+2)^0,f,c
  8183   0025F8  3605               	rlcf	(??_USBConfigureEndpoint+3)^0,f,c
  8184   0025FA  5002               	movf	??_USBConfigureEndpoint^0,w,c
  8185   0025FC  2404               	addwf	(??_USBConfigureEndpoint+2)^0,w,c
  8186   0025FE  6E06               	movwf	(??_USBConfigureEndpoint+4)^0,c
  8187   002600  5003               	movf	(??_USBConfigureEndpoint+1)^0,w,c
  8188   002602  2005               	addwfc	(??_USBConfigureEndpoint+3)^0,w,c
  8189   002604  6E07               	movwf	(??_USBConfigureEndpoint+5)^0,c
  8190   002606  90D8               	bcf	status,0,c
  8191   002608  3606               	rlcf	(??_USBConfigureEndpoint+4)^0,f,c
  8192   00260A  3607               	rlcf	(??_USBConfigureEndpoint+5)^0,f,c
  8193   00260C  90D8               	bcf	status,0,c
  8194   00260E  3606               	rlcf	(??_USBConfigureEndpoint+4)^0,f,c
  8195   002610  3607               	rlcf	(??_USBConfigureEndpoint+5)^0,f,c
  8196   002612  5006               	movf	(??_USBConfigureEndpoint+4)^0,w,c
  8197   002614  2609               	addwf	USBConfigureEndpoint@handle^0,f,c
  8198   002616  5007               	movf	(??_USBConfigureEndpoint+5)^0,w,c
  8199   002618  220A               	addwfc	(USBConfigureEndpoint@handle+1)^0,f,c
  8200   00261A                     
  8201                           ;../../../../../../framework/usb/src/usb_device.c: 1556:     handle->STAT.UOWN = 0;
  8202   00261A  C009  FFD9         	movff	USBConfigureEndpoint@handle,fsr2l
  8203   00261E  C00A  FFDA         	movff	USBConfigureEndpoint@handle+1,fsr2h
  8204   002622  9EDF               	bcf	indf2,7,c
  8205   002624                     
  8206                           ;../../../../../../framework/usb/src/usb_device.c: 1561:     if(direction == 0)
  8207   002624  5001               	movf	USBConfigureEndpoint@direction^0,w,c
  8208   002626  A4D8               	btfss	status,2,c
  8209   002628  EF18  F013         	goto	i2u160_41
  8210   00262C  EF1A  F013         	goto	i2u160_40
  8211   002630                     i2u160_41:
  8212   002630  EF28  F013         	goto	i2l3379
  8213   002634                     i2u160_40:
  8214   002634                     
  8215                           ;../../../../../../framework/usb/src/usb_device.c: 1562:     {;../../../../../../framewo
      +                          rk/usb/src/usb_device.c: 1563:         pBDTEntryOut[EPNum] = handle;
  8216   002634  5008               	movf	USBConfigureEndpoint@EPNum^0,w,c
  8217   002636  0D02               	mullw	2
  8218   002638  0E72               	movlw	low _pBDTEntryOut
  8219   00263A  24F3               	addwf	243,w,c
  8220   00263C  6ED9               	movwf	fsr2l,c
  8221   00263E  0E00               	movlw	high _pBDTEntryOut
  8222   002640  20F4               	addwfc	prodh,w,c
  8223   002642  6EDA               	movwf	fsr2h,c
  8224   002644  C009  FFDE         	movff	USBConfigureEndpoint@handle,postinc2
  8225   002648  C00A  FFDD         	movff	USBConfigureEndpoint@handle+1,postdec2
  8226                           
  8227                           ;../../../../../../framework/usb/src/usb_device.c: 1564:     }
  8228   00264C  EF34  F013         	goto	i2l3381
  8229   002650                     i2l3379:
  8230                           
  8231                           ;../../../../../../framework/usb/src/usb_device.c: 1566:     {;../../../../../../framewo
      +                          rk/usb/src/usb_device.c: 1567:         pBDTEntryIn[EPNum] = handle;
  8232   002650  5008               	movf	USBConfigureEndpoint@EPNum^0,w,c
  8233   002652  0D02               	mullw	2
  8234   002654  0E6E               	movlw	low _pBDTEntryIn
  8235   002656  24F3               	addwf	243,w,c
  8236   002658  6ED9               	movwf	fsr2l,c
  8237   00265A  0E00               	movlw	high _pBDTEntryIn
  8238   00265C  20F4               	addwfc	prodh,w,c
  8239   00265E  6EDA               	movwf	fsr2h,c
  8240   002660  C009  FFDE         	movff	USBConfigureEndpoint@handle,postinc2
  8241   002664  C00A  FFDD         	movff	USBConfigureEndpoint@handle+1,postdec2
  8242   002668                     i2l3381:
  8243                           
  8244                           ;../../../../../../framework/usb/src/usb_device.c: 1571:         handle->STAT.DTS = 0;
  8245   002668  C009  FFD9         	movff	USBConfigureEndpoint@handle,fsr2l
  8246   00266C  C00A  FFDA         	movff	USBConfigureEndpoint@handle+1,fsr2h
  8247   002670  9CDF               	bcf	indf2,6,c
  8248   002672                     
  8249                           ;../../../../../../framework/usb/src/usb_device.c: 1572:         (handle+1)->STAT.DTS = 
      +                          1;
  8250   002672  EE20 F004          	lfsr	2,4
  8251   002676  5009               	movf	USBConfigureEndpoint@handle^0,w,c
  8252   002678  26D9               	addwf	fsr2l,f,c
  8253   00267A  500A               	movf	(USBConfigureEndpoint@handle+1)^0,w,c
  8254   00267C  22DA               	addwfc	fsr2h,f,c
  8255   00267E  8CDF               	bsf	indf2,6,c
  8256   002680  0012               	return		;funcret
  8257   002682                     __end_of_USBConfigureEndpoint:
  8258                           	callstack 0
  8259                           
  8260 ;; *************** function _USBCtrlTrfOutHandler *****************
  8261 ;; Defined at:
  8262 ;;		line 2545 in file "../../../../../../framework/usb/src/usb_device.c"
  8263 ;; Parameters:    Size  Location     Type
  8264 ;;		None
  8265 ;; Auto vars:     Size  Location     Type
  8266 ;;		None
  8267 ;; Return value:  Size  Location     Type
  8268 ;;                  1    wreg      void 
  8269 ;; Registers used:
  8270 ;;		wreg, fsr1l, fsr1h, fsr2l, fsr2h, status,2, status,0, cstack
  8271 ;; Tracked objects:
  8272 ;;		On entry : 0/0
  8273 ;;		On exit  : 0/0
  8274 ;;		Unchanged: 0/0
  8275 ;; Data sizes:     COMRAM   BANK0   BANK1   BANK2   BANK3   BANK4   BANK5   BANK6   BANK7
  8276 ;;      Params:         0       0       0       0       0       0       0       0       0
  8277 ;;      Locals:         0       0       0       0       0       0       0       0       0
  8278 ;;      Temps:          0       0       0       0       0       0       0       0       0
  8279 ;;      Totals:         0       0       0       0       0       0       0       0       0
  8280 ;;Total ram usage:        0 bytes
  8281 ;; Hardware stack levels used: 1
  8282 ;; Hardware stack levels required when called: 2
  8283 ;; This function calls:
  8284 ;;		_USBCtrlTrfRxService
  8285 ;; This function is called by:
  8286 ;;		_USBCtrlEPService
  8287 ;; This function uses a non-reentrant model
  8288 ;;
  8289                           
  8290                           	psect	text46
  8291   0027BE                     __ptext46:
  8292                           	callstack 0
  8293   0027BE                     _USBCtrlTrfOutHandler:
  8294                           	callstack 23
  8295   0027BE                     
  8296                           ;../../../../../../framework/usb/src/usb_device.c: 2547:     if(controlTransferState == 
      +                          2)
  8297   0027BE  0E02               	movlw	2
  8298   0027C0  1849               	xorwf	_controlTransferState^0,w,c	;volatile
  8299   0027C2  A4D8               	btfss	status,2,c
  8300   0027C4  EFE6  F013         	goto	i2u244_41
  8301   0027C8  EFE8  F013         	goto	i2u244_40
  8302   0027CC                     i2u244_41:
  8303   0027CC  EFEC  F013         	goto	i2l4151
  8304   0027D0                     i2u244_40:
  8305   0027D0                     
  8306                           ;../../../../../../framework/usb/src/usb_device.c: 2548:     {;../../../../../../framewo
      +                          rk/usb/src/usb_device.c: 2549:         USBCtrlTrfRxService();
  8307   0027D0  EC7C  F00B         	call	_USBCtrlTrfRxService	;wreg free
  8308                           
  8309                           ;../../../../../../framework/usb/src/usb_device.c: 2550:     }
  8310   0027D4  EF18  F014         	goto	i2l452
  8311   0027D8                     i2l4151:
  8312                           
  8313                           ;../../../../../../framework/usb/src/usb_device.c: 2552:     {;../../../../../../framewo
      +                          rk/usb/src/usb_device.c: 2555:         controlTransferState = 0;
  8314   0027D8  0E00               	movlw	0
  8315   0027DA  6E49               	movwf	_controlTransferState^0,c	;volatile
  8316                           
  8317                           ;../../../../../../framework/usb/src/usb_device.c: 2562:         if(BothEP0OutUOWNsSet =
      +                          = 0)
  8318   0027DC  5045               	movf	_BothEP0OutUOWNsSet^0,w,c	;volatile
  8319   0027DE  A4D8               	btfss	status,2,c
  8320   0027E0  EFF4  F013         	goto	i2u245_41
  8321   0027E4  EFF6  F013         	goto	i2u245_40
  8322   0027E8                     i2u245_41:
  8323   0027E8  EF16  F014         	goto	i2l4159
  8324   0027EC                     i2u245_40:
  8325   0027EC                     
  8326                           ;../../../../../../framework/usb/src/usb_device.c: 2563:         {;../../../../../../fra
      +                          mework/usb/src/usb_device.c: 2564:             pBDTEntryEP0OutNext->CNT = 8;
  8327   0027EC  EE20 F001          	lfsr	2,1
  8328   0027F0  503A               	movf	_pBDTEntryEP0OutNext^0,w,c
  8329   0027F2  26D9               	addwf	fsr2l,f,c
  8330   0027F4  503B               	movf	(_pBDTEntryEP0OutNext+1)^0,w,c
  8331   0027F6  22DA               	addwfc	fsr2h,f,c
  8332   0027F8  0E08               	movlw	8
  8333   0027FA  6EDF               	movwf	indf2,c
  8334                           
  8335                           ;../../../../../../framework/usb/src/usb_device.c: 2565:             pBDTEntryEP0OutNext
      +                          ->ADR = ((uint16_t)(&SetupPkt));
  8336   0027FC  EE20 F002          	lfsr	2,2
  8337   002800  503A               	movf	_pBDTEntryEP0OutNext^0,w,c
  8338   002802  26D9               	addwf	fsr2l,f,c
  8339   002804  503B               	movf	(_pBDTEntryEP0OutNext+1)^0,w,c
  8340   002806  22DA               	addwfc	fsr2h,f,c
  8341   002808  0E20               	movlw	32
  8342   00280A  6EDE               	movwf	postinc2,c
  8343   00280C  0E04               	movlw	4
  8344   00280E  6EDD               	movwf	postdec2,c
  8345   002810                     
  8346                           ;../../../../../../framework/usb/src/usb_device.c: 2566:             pBDTEntryEP0OutNext
      +                          ->STAT.Val = 0x00|(0x08 & 0x08)|0x04;
  8347   002810  C03A  FFD9         	movff	_pBDTEntryEP0OutNext,fsr2l
  8348   002814  C03B  FFDA         	movff	_pBDTEntryEP0OutNext+1,fsr2h
  8349   002818  0E0C               	movlw	12
  8350   00281A  6EDF               	movwf	indf2,c
  8351   00281C                     
  8352                           ;../../../../../../framework/usb/src/usb_device.c: 2567:             pBDTEntryEP0OutNext
      +                          ->STAT.Val |= 0x80;
  8353   00281C  C03A  FFD9         	movff	_pBDTEntryEP0OutNext,fsr2l
  8354   002820  C03B  FFDA         	movff	_pBDTEntryEP0OutNext+1,fsr2h
  8355   002824  0E00               	movlw	0
  8356   002826  8EDB               	bsf	plusw2,7,c
  8357                           
  8358                           ;../../../../../../framework/usb/src/usb_device.c: 2568:         }
  8359   002828  EF18  F014         	goto	i2l452
  8360   00282C                     i2l4159:
  8361                           
  8362                           ;../../../../../../framework/usb/src/usb_device.c: 2570:         {;../../../../../../fra
      +                          mework/usb/src/usb_device.c: 2571:             BothEP0OutUOWNsSet = 0;
  8363   00282C  0E00               	movlw	0
  8364   00282E  6E45               	movwf	_BothEP0OutUOWNsSet^0,c	;volatile
  8365   002830                     i2l452:
  8366   002830  0012               	return		;funcret
  8367   002832                     __end_of_USBCtrlTrfOutHandler:
  8368                           	callstack 0
  8369                           
  8370 ;; *************** function _USBCtrlTrfRxService *****************
  8371 ;; Defined at:
  8372 ;;		line 1856 in file "../../../../../../framework/usb/src/usb_device.c"
  8373 ;; Parameters:    Size  Location     Type
  8374 ;;		None
  8375 ;; Auto vars:     Size  Location     Type
  8376 ;;  byteToRead      1    1[COMRAM] unsigned char 
  8377 ;;  i               1    0[COMRAM] unsigned char 
  8378 ;; Return value:  Size  Location     Type
  8379 ;;                  1    wreg      void 
  8380 ;; Registers used:
  8381 ;;		wreg, fsr1l, fsr1h, fsr2l, fsr2h, status,2, status,0, cstack
  8382 ;; Tracked objects:
  8383 ;;		On entry : 0/0
  8384 ;;		On exit  : 0/0
  8385 ;;		Unchanged: 0/0
  8386 ;; Data sizes:     COMRAM   BANK0   BANK1   BANK2   BANK3   BANK4   BANK5   BANK6   BANK7
  8387 ;;      Params:         0       0       0       0       0       0       0       0       0
  8388 ;;      Locals:         2       0       0       0       0       0       0       0       0
  8389 ;;      Temps:          0       0       0       0       0       0       0       0       0
  8390 ;;      Totals:         2       0       0       0       0       0       0       0       0
  8391 ;;Total ram usage:        2 bytes
  8392 ;; Hardware stack levels used: 1
  8393 ;; Hardware stack levels required when called: 1
  8394 ;; This function calls:
  8395 ;;		_USBCtrlEPAllowStatusStage
  8396 ;; This function is called by:
  8397 ;;		_USBCtrlTrfOutHandler
  8398 ;; This function uses a non-reentrant model
  8399 ;;
  8400                           
  8401                           	psect	text47
  8402   0016F8                     __ptext47:
  8403                           	callstack 0
  8404   0016F8                     _USBCtrlTrfRxService:
  8405                           	callstack 23
  8406   0016F8                     
  8407                           ;../../../../../../framework/usb/src/usb_device.c: 1858:     uint8_t byteToRead;;../../.
      +                          ./../../../framework/usb/src/usb_device.c: 1859:     uint8_t i;;../../../../../../framew
      +                          ork/usb/src/usb_device.c: 1863:     byteToRead = pBDTEntryEP0OutCurrent->CNT;
  8408   0016F8  EE20 F001          	lfsr	2,1
  8409   0016FC  503C               	movf	_pBDTEntryEP0OutCurrent^0,w,c
  8410   0016FE  26D9               	addwf	fsr2l,f,c
  8411   001700  503D               	movf	(_pBDTEntryEP0OutCurrent+1)^0,w,c
  8412   001702  22DA               	addwfc	fsr2h,f,c
  8413   001704  50DF               	movf	indf2,w,c
  8414   001706  6E02               	movwf	USBCtrlTrfRxService@byteToRead^0,c
  8415   001708                     
  8416                           ;../../../../../../framework/usb/src/usb_device.c: 1869:     if(byteToRead > outPipes[0]
      +                          .wCount.Val)
  8417   001708  5002               	movf	USBCtrlTrfRxService@byteToRead^0,w,c
  8418   00170A  0100               	movlb	0	; () banked
  8419   00170C  5D64               	subwf	(_outPipes+4)& (0+255),w,b	;volatile
  8420   00170E  0E00               	movlw	0
  8421   001710  5965               	subwfb	(_outPipes+5)& (0+255),w,b	;volatile
  8422   001712  B0D8               	btfsc	status,0,c
  8423   001714  EF8E  F00B         	goto	i2u237_41
  8424   001718  EF90  F00B         	goto	i2u237_40
  8425   00171C                     i2u237_41:
  8426   00171C  EF92  F00B         	goto	i2l4027
  8427   001720                     i2u237_40:
  8428   001720                     
  8429                           ; BSR set to: 0
  8430                           ;../../../../../../framework/usb/src/usb_device.c: 1870:     {;../../../../../../framewo
      +                          rk/usb/src/usb_device.c: 1871:         byteToRead = outPipes[0].wCount.Val;
  8431   001720  C064  F002         	movff	_outPipes+4,USBCtrlTrfRxService@byteToRead	;volatile
  8432   001724                     i2l4027:
  8433                           
  8434                           ; BSR set to: 0
  8435                           ;../../../../../../framework/usb/src/usb_device.c: 1874:     outPipes[0].wCount.Val -= b
      +                          yteToRead;
  8436   001724  5002               	movf	USBCtrlTrfRxService@byteToRead^0,w,c
  8437   001726  5F64               	subwf	(_outPipes+4)& (0+255),f,b	;volatile
  8438   001728  0E00               	movlw	0
  8439   00172A  5B65               	subwfb	(_outPipes+5)& (0+255),f,b	;volatile
  8440   00172C                     
  8441                           ; BSR set to: 0
  8442                           ;../../../../../../framework/usb/src/usb_device.c: 1878:     for(i=0;i<byteToRead;i++)
  8443   00172C  0E00               	movlw	0
  8444   00172E  6E01               	movwf	USBCtrlTrfRxService@i^0,c
  8445   001730  EFA9  F00B         	goto	i2l4037
  8446   001734                     i2l4031:
  8447                           
  8448                           ; BSR set to: 0
  8449                           ;../../../../../../framework/usb/src/usb_device.c: 1879:     {;../../../../../../framewo
      +                          rk/usb/src/usb_device.c: 1880:         *outPipes[0].pDst.bRam++ = CtrlTrfData[i];
  8450   001734  0E28               	movlw	40
  8451   001736  2401               	addwf	USBCtrlTrfRxService@i^0,w,c
  8452   001738  6ED9               	movwf	fsr2l,c
  8453   00173A  6ADA               	clrf	fsr2h,c
  8454   00173C  0E04               	movlw	4
  8455   00173E  22DA               	addwfc	fsr2h,f,c
  8456   001740  C060  FFE1         	movff	_outPipes,fsr1l	;volatile
  8457   001744  C061  FFE2         	movff	_outPipes+1,fsr1h	;volatile
  8458   001748  CFDF FFE7          	movff	indf2,indf1
  8459   00174C                     
  8460                           ; BSR set to: 0
  8461   00174C  4B60               	infsnz	_outPipes& (0+255),f,b	;volatile
  8462   00174E  2B61               	incf	(_outPipes+1)& (0+255),f,b	;volatile
  8463   001750                     
  8464                           ; BSR set to: 0
  8465                           ;../../../../../../framework/usb/src/usb_device.c: 1881:     }
  8466   001750  2A01               	incf	USBCtrlTrfRxService@i^0,f,c
  8467   001752                     i2l4037:
  8468                           
  8469                           ; BSR set to: 0
  8470   001752  5002               	movf	USBCtrlTrfRxService@byteToRead^0,w,c
  8471   001754  5C01               	subwf	USBCtrlTrfRxService@i^0,w,c
  8472   001756  A0D8               	btfss	status,0,c
  8473   001758  EFB0  F00B         	goto	i2u238_41
  8474   00175C  EFB2  F00B         	goto	i2u238_40
  8475   001760                     i2u238_41:
  8476   001760  EF9A  F00B         	goto	i2l4031
  8477   001764                     i2u238_40:
  8478   001764                     
  8479                           ; BSR set to: 0
  8480                           ;../../../../../../framework/usb/src/usb_device.c: 1885:     if(outPipes[0].wCount.Val >
      +                           0)
  8481   001764  5164               	movf	(_outPipes+4)& (0+255),w,b	;volatile
  8482   001766  1165               	iorwf	(_outPipes+5)& (0+255),w,b	;volatile
  8483   001768  B4D8               	btfsc	status,2,c
  8484   00176A  EFB9  F00B         	goto	i2u239_41
  8485   00176E  EFBB  F00B         	goto	i2u239_40
  8486   001772                     i2u239_41:
  8487   001772  EFF4  F00B         	goto	i2l4053
  8488   001776                     i2u239_40:
  8489   001776                     
  8490                           ; BSR set to: 0
  8491                           ;../../../../../../framework/usb/src/usb_device.c: 1886:     {;../../../../../../framewo
      +                          rk/usb/src/usb_device.c: 1887:         pBDTEntryEP0OutNext->CNT = 8;
  8492   001776  EE20 F001          	lfsr	2,1
  8493   00177A  503A               	movf	_pBDTEntryEP0OutNext^0,w,c
  8494   00177C  26D9               	addwf	fsr2l,f,c
  8495   00177E  503B               	movf	(_pBDTEntryEP0OutNext+1)^0,w,c
  8496   001780  22DA               	addwfc	fsr2h,f,c
  8497   001782  0E08               	movlw	8
  8498   001784  6EDF               	movwf	indf2,c
  8499                           
  8500                           ;../../../../../../framework/usb/src/usb_device.c: 1888:         pBDTEntryEP0OutNext->AD
      +                          R = ((uint16_t)(&CtrlTrfData));
  8501   001786  EE20 F002          	lfsr	2,2
  8502   00178A  503A               	movf	_pBDTEntryEP0OutNext^0,w,c
  8503   00178C  26D9               	addwf	fsr2l,f,c
  8504   00178E  503B               	movf	(_pBDTEntryEP0OutNext+1)^0,w,c
  8505   001790  22DA               	addwfc	fsr2h,f,c
  8506   001792  0E28               	movlw	40
  8507   001794  6EDE               	movwf	postinc2,c
  8508   001796  0E04               	movlw	4
  8509   001798  6EDD               	movwf	postdec2,c
  8510   00179A                     
  8511                           ; BSR set to: 0
  8512                           ;../../../../../../framework/usb/src/usb_device.c: 1889:         if(pBDTEntryEP0OutCurre
      +                          nt->STAT.DTS == 0)
  8513   00179A  C03C  FFD9         	movff	_pBDTEntryEP0OutCurrent,fsr2l
  8514   00179E  C03D  FFDA         	movff	_pBDTEntryEP0OutCurrent+1,fsr2h
  8515   0017A2  BCDF               	btfsc	indf2,6,c
  8516   0017A4  EFD6  F00B         	goto	i2u240_41
  8517   0017A8  EFD8  F00B         	goto	i2u240_40
  8518   0017AC                     i2u240_41:
  8519   0017AC  EFE6  F00B         	goto	i2l4049
  8520   0017B0                     i2u240_40:
  8521   0017B0                     
  8522                           ; BSR set to: 0
  8523                           ;../../../../../../framework/usb/src/usb_device.c: 1890:         {;../../../../../../fra
      +                          mework/usb/src/usb_device.c: 1891:             pBDTEntryEP0OutNext->STAT.Val = 0x40|(0x0
      +                          8 & 0x08);
  8524   0017B0  C03A  FFD9         	movff	_pBDTEntryEP0OutNext,fsr2l
  8525   0017B4  C03B  FFDA         	movff	_pBDTEntryEP0OutNext+1,fsr2h
  8526   0017B8  0E48               	movlw	72
  8527   0017BA  6EDF               	movwf	indf2,c
  8528   0017BC                     
  8529                           ; BSR set to: 0
  8530                           ;../../../../../../framework/usb/src/usb_device.c: 1892:             pBDTEntryEP0OutNext
      +                          ->STAT.Val |= 0x80;
  8531   0017BC  C03A  FFD9         	movff	_pBDTEntryEP0OutNext,fsr2l
  8532   0017C0  C03B  FFDA         	movff	_pBDTEntryEP0OutNext+1,fsr2h
  8533   0017C4  0E00               	movlw	0
  8534   0017C6  8EDB               	bsf	plusw2,7,c
  8535                           
  8536                           ;../../../../../../framework/usb/src/usb_device.c: 1893:         }
  8537   0017C8  EF1D  F00C         	goto	i2l384
  8538   0017CC                     i2l4049:
  8539                           
  8540                           ; BSR set to: 0
  8541                           ;../../../../../../framework/usb/src/usb_device.c: 1895:         {;../../../../../../fra
      +                          mework/usb/src/usb_device.c: 1896:             pBDTEntryEP0OutNext->STAT.Val = 0x00|(0x0
      +                          8 & 0x08);
  8542   0017CC  C03A  FFD9         	movff	_pBDTEntryEP0OutNext,fsr2l
  8543   0017D0  C03B  FFDA         	movff	_pBDTEntryEP0OutNext+1,fsr2h
  8544   0017D4  0E08               	movlw	8
  8545   0017D6  6EDF               	movwf	indf2,c
  8546   0017D8                     
  8547                           ; BSR set to: 0
  8548                           ;../../../../../../framework/usb/src/usb_device.c: 1897:             pBDTEntryEP0OutNext
      +                          ->STAT.Val |= 0x80;
  8549   0017D8  C03A  FFD9         	movff	_pBDTEntryEP0OutNext,fsr2l
  8550   0017DC  C03B  FFDA         	movff	_pBDTEntryEP0OutNext+1,fsr2h
  8551   0017E0  0E00               	movlw	0
  8552   0017E2  8EDB               	bsf	plusw2,7,c
  8553   0017E4  EF1D  F00C         	goto	i2l384
  8554   0017E8                     i2l4053:
  8555                           
  8556                           ; BSR set to: 0
  8557                           ;../../../../../../framework/usb/src/usb_device.c: 1901:     {;../../../../../../framewo
      +                          rk/usb/src/usb_device.c: 1905:         pBDTEntryEP0OutNext->CNT = 8;
  8558   0017E8  EE20 F001          	lfsr	2,1
  8559   0017EC  503A               	movf	_pBDTEntryEP0OutNext^0,w,c
  8560   0017EE  26D9               	addwf	fsr2l,f,c
  8561   0017F0  503B               	movf	(_pBDTEntryEP0OutNext+1)^0,w,c
  8562   0017F2  22DA               	addwfc	fsr2h,f,c
  8563   0017F4  0E08               	movlw	8
  8564   0017F6  6EDF               	movwf	indf2,c
  8565                           
  8566                           ;../../../../../../framework/usb/src/usb_device.c: 1906:         pBDTEntryEP0OutNext->AD
      +                          R = ((uint16_t)(&SetupPkt));
  8567   0017F8  EE20 F002          	lfsr	2,2
  8568   0017FC  503A               	movf	_pBDTEntryEP0OutNext^0,w,c
  8569   0017FE  26D9               	addwf	fsr2l,f,c
  8570   001800  503B               	movf	(_pBDTEntryEP0OutNext+1)^0,w,c
  8571   001802  22DA               	addwfc	fsr2h,f,c
  8572   001804  0E20               	movlw	32
  8573   001806  6EDE               	movwf	postinc2,c
  8574   001808  0E04               	movlw	4
  8575   00180A  6EDD               	movwf	postdec2,c
  8576   00180C                     
  8577                           ; BSR set to: 0
  8578                           ;../../../../../../framework/usb/src/usb_device.c: 1910:         pBDTEntryEP0OutNext->ST
      +                          AT.Val = 0x04;
  8579   00180C  C03A  FFD9         	movff	_pBDTEntryEP0OutNext,fsr2l
  8580   001810  C03B  FFDA         	movff	_pBDTEntryEP0OutNext+1,fsr2h
  8581   001814  0E04               	movlw	4
  8582   001816  6EDF               	movwf	indf2,c
  8583   001818                     
  8584                           ; BSR set to: 0
  8585                           ;../../../../../../framework/usb/src/usb_device.c: 1911:         pBDTEntryEP0OutNext->ST
      +                          AT.Val |= 0x80;
  8586   001818  C03A  FFD9         	movff	_pBDTEntryEP0OutNext,fsr2l
  8587   00181C  C03B  FFDA         	movff	_pBDTEntryEP0OutNext+1,fsr2h
  8588   001820  0E00               	movlw	0
  8589   001822  8EDB               	bsf	plusw2,7,c
  8590   001824                     
  8591                           ; BSR set to: 0
  8592   001824  9F63               	bcf	(_outPipes+3)& (0+255),7,b	;volatile
  8593   001826                     
  8594                           ; BSR set to: 0
  8595                           ;../../../../../../framework/usb/src/usb_device.c: 1945:         if(USBDeferStatusStageP
      +                          acket == 0)
  8596   001826  5043               	movf	_USBDeferStatusStagePacket^0,w,c	;volatile
  8597   001828  A4D8               	btfss	status,2,c
  8598   00182A  EF19  F00C         	goto	i2u241_41
  8599   00182E  EF1B  F00C         	goto	i2u241_40
  8600   001832                     i2u241_41:
  8601   001832  EF1D  F00C         	goto	i2l384
  8602   001836                     i2u241_40:
  8603   001836                     
  8604                           ; BSR set to: 0
  8605                           ;../../../../../../framework/usb/src/usb_device.c: 1946:         {;../../../../../../fra
      +                          mework/usb/src/usb_device.c: 1947:             USBCtrlEPAllowStatusStage();
  8606   001836  EC48  F011         	call	_USBCtrlEPAllowStatusStage	;wreg free
  8607   00183A                     i2l384:
  8608   00183A  0012               	return		;funcret
  8609   00183C                     __end_of_USBCtrlTrfRxService:
  8610                           	callstack 0
  8611                           
  8612 ;; *************** function _USBCtrlEPAllowStatusStage *****************
  8613 ;; Defined at:
  8614 ;;		line 1420 in file "../../../../../../framework/usb/src/usb_device.c"
  8615 ;; Parameters:    Size  Location     Type
  8616 ;;		None
  8617 ;; Auto vars:     Size  Location     Type
  8618 ;;		None
  8619 ;; Return value:  Size  Location     Type
  8620 ;;                  1    wreg      void 
  8621 ;; Registers used:
  8622 ;;		wreg, fsr2l, fsr2h, status,2, status,0
  8623 ;; Tracked objects:
  8624 ;;		On entry : 0/0
  8625 ;;		On exit  : 0/0
  8626 ;;		Unchanged: 0/0
  8627 ;; Data sizes:     COMRAM   BANK0   BANK1   BANK2   BANK3   BANK4   BANK5   BANK6   BANK7
  8628 ;;      Params:         0       0       0       0       0       0       0       0       0
  8629 ;;      Locals:         0       0       0       0       0       0       0       0       0
  8630 ;;      Temps:          0       0       0       0       0       0       0       0       0
  8631 ;;      Totals:         0       0       0       0       0       0       0       0       0
  8632 ;;Total ram usage:        0 bytes
  8633 ;; Hardware stack levels used: 1
  8634 ;; This function calls:
  8635 ;;		Nothing
  8636 ;; This function is called by:
  8637 ;;		_USBDeviceTasks
  8638 ;;		_USBCtrlEPServiceComplete
  8639 ;;		_USBCtrlTrfRxService
  8640 ;; This function uses a non-reentrant model
  8641 ;;
  8642                           
  8643                           	psect	text48
  8644   002290                     __ptext48:
  8645                           	callstack 0
  8646   002290                     _USBCtrlEPAllowStatusStage:
  8647                           	callstack 23
  8648   002290                     
  8649                           ;../../../../../../framework/usb/src/usb_device.c: 1427:     if(USBStatusStageEnabledFla
      +                          g1 == 0)
  8650   002290  5042               	movf	_USBStatusStageEnabledFlag1^0,w,c	;volatile
  8651   002292  A4D8               	btfss	status,2,c
  8652   002294  EF4E  F011         	goto	i2u192_41
  8653   002298  EF50  F011         	goto	i2u192_40
  8654   00229C                     i2u192_41:
  8655   00229C  EFBF  F011         	goto	i2l332
  8656   0022A0                     i2u192_40:
  8657   0022A0                     
  8658                           ;../../../../../../framework/usb/src/usb_device.c: 1428:     {;../../../../../../framewo
      +                          rk/usb/src/usb_device.c: 1429:         USBStatusStageEnabledFlag1 = 1;
  8659   0022A0  0E01               	movlw	1
  8660   0022A2  6E42               	movwf	_USBStatusStageEnabledFlag1^0,c	;volatile
  8661                           
  8662                           ;../../../../../../framework/usb/src/usb_device.c: 1430:         if(USBStatusStageEnable
      +                          dFlag2 == 0)
  8663   0022A4  5041               	movf	_USBStatusStageEnabledFlag2^0,w,c	;volatile
  8664   0022A6  A4D8               	btfss	status,2,c
  8665   0022A8  EF58  F011         	goto	i2u193_41
  8666   0022AC  EF5A  F011         	goto	i2u193_40
  8667   0022B0                     i2u193_41:
  8668   0022B0  EFBF  F011         	goto	i2l332
  8669   0022B4                     i2u193_40:
  8670   0022B4                     
  8671                           ;../../../../../../framework/usb/src/usb_device.c: 1431:         {;../../../../../../fra
      +                          mework/usb/src/usb_device.c: 1432:             USBStatusStageEnabledFlag2 = 1;
  8672   0022B4  0E01               	movlw	1
  8673   0022B6  6E41               	movwf	_USBStatusStageEnabledFlag2^0,c	;volatile
  8674   0022B8                     
  8675                           ;../../../../../../framework/usb/src/usb_device.c: 1436:             if(controlTransferS
      +                          tate == 2)
  8676   0022B8  0E02               	movlw	2
  8677   0022BA  1849               	xorwf	_controlTransferState^0,w,c	;volatile
  8678   0022BC  A4D8               	btfss	status,2,c
  8679   0022BE  EF63  F011         	goto	i2u194_41
  8680   0022C2  EF65  F011         	goto	i2u194_40
  8681   0022C6                     i2u194_41:
  8682   0022C6  EF7B  F011         	goto	i2l3735
  8683   0022CA                     i2u194_40:
  8684   0022CA                     
  8685                           ;../../../../../../framework/usb/src/usb_device.c: 1437:             {;../../../../../..
      +                          /framework/usb/src/usb_device.c: 1438:                 pBDTEntryIn[0]->CNT = 0;
  8686   0022CA  0100               	movlb	0	; () banked
  8687   0022CC  EE20 F001          	lfsr	2,1
  8688   0022D0  516E               	movf	_pBDTEntryIn& (0+255),w,b
  8689   0022D2  26D9               	addwf	fsr2l,f,c
  8690   0022D4  516F               	movf	(_pBDTEntryIn+1)& (0+255),w,b
  8691   0022D6  22DA               	addwfc	fsr2h,f,c
  8692   0022D8  6ADF               	clrf	indf2,c
  8693   0022DA                     
  8694                           ; BSR set to: 0
  8695                           ;../../../../../../framework/usb/src/usb_device.c: 1439:                 pBDTEntryIn[0]-
      +                          >STAT.Val = 0x40|(0x08 & 0x08);
  8696   0022DA  C06E  FFD9         	movff	_pBDTEntryIn,fsr2l
  8697   0022DE  C06F  FFDA         	movff	_pBDTEntryIn+1,fsr2h
  8698   0022E2  0E48               	movlw	72
  8699   0022E4  6EDF               	movwf	indf2,c
  8700   0022E6                     
  8701                           ; BSR set to: 0
  8702                           ;../../../../../../framework/usb/src/usb_device.c: 1440:                 pBDTEntryIn[0]-
      +                          >STAT.Val |= 0x80;
  8703   0022E6  C06E  FFD9         	movff	_pBDTEntryIn,fsr2l
  8704   0022EA  C06F  FFDA         	movff	_pBDTEntryIn+1,fsr2h
  8705   0022EE  0E00               	movlw	0
  8706   0022F0  8EDB               	bsf	plusw2,7,c
  8707                           
  8708                           ;../../../../../../framework/usb/src/usb_device.c: 1441:             }
  8709   0022F2  EFBF  F011         	goto	i2l332
  8710   0022F6                     i2l3735:
  8711   0022F6  0449               	decf	_controlTransferState^0,w,c	;volatile
  8712   0022F8  A4D8               	btfss	status,2,c
  8713   0022FA  EF81  F011         	goto	i2u195_41
  8714   0022FE  EF83  F011         	goto	i2u195_40
  8715   002302                     i2u195_41:
  8716   002302  EFBF  F011         	goto	i2l328
  8717   002306                     i2u195_40:
  8718   002306                     
  8719                           ;../../../../../../framework/usb/src/usb_device.c: 1443:             {;../../../../../..
      +                          /framework/usb/src/usb_device.c: 1444:                 BothEP0OutUOWNsSet = 0;
  8720   002306  0E00               	movlw	0
  8721   002308  6E45               	movwf	_BothEP0OutUOWNsSet^0,c	;volatile
  8722   00230A                     
  8723                           ;../../../../../../framework/usb/src/usb_device.c: 1449:                     pBDTEntryEP
      +                          0OutCurrent->CNT = 8;
  8724   00230A  EE20 F001          	lfsr	2,1
  8725   00230E  503C               	movf	_pBDTEntryEP0OutCurrent^0,w,c
  8726   002310  26D9               	addwf	fsr2l,f,c
  8727   002312  503D               	movf	(_pBDTEntryEP0OutCurrent+1)^0,w,c
  8728   002314  22DA               	addwfc	fsr2h,f,c
  8729   002316  0E08               	movlw	8
  8730   002318  6EDF               	movwf	indf2,c
  8731   00231A                     
  8732                           ;../../../../../../framework/usb/src/usb_device.c: 1450:                     pBDTEntryEP
      +                          0OutCurrent->ADR = ((uint16_t)(&SetupPkt));
  8733   00231A  EE20 F002          	lfsr	2,2
  8734   00231E  503C               	movf	_pBDTEntryEP0OutCurrent^0,w,c
  8735   002320  26D9               	addwf	fsr2l,f,c
  8736   002322  503D               	movf	(_pBDTEntryEP0OutCurrent+1)^0,w,c
  8737   002324  22DA               	addwfc	fsr2h,f,c
  8738   002326  0E20               	movlw	32
  8739   002328  6EDE               	movwf	postinc2,c
  8740   00232A  0E04               	movlw	4
  8741   00232C  6EDD               	movwf	postdec2,c
  8742   00232E                     
  8743                           ;../../../../../../framework/usb/src/usb_device.c: 1451:                     pBDTEntryEP
      +                          0OutCurrent->STAT.Val = 0x04;
  8744   00232E  C03C  FFD9         	movff	_pBDTEntryEP0OutCurrent,fsr2l
  8745   002332  C03D  FFDA         	movff	_pBDTEntryEP0OutCurrent+1,fsr2h
  8746   002336  0E04               	movlw	4
  8747   002338  6EDF               	movwf	indf2,c
  8748   00233A                     
  8749                           ;../../../../../../framework/usb/src/usb_device.c: 1452:                     pBDTEntryEP
      +                          0OutCurrent->STAT.Val |= 0x80;
  8750   00233A  C03C  FFD9         	movff	_pBDTEntryEP0OutCurrent,fsr2l
  8751   00233E  C03D  FFDA         	movff	_pBDTEntryEP0OutCurrent+1,fsr2h
  8752   002342  0E00               	movlw	0
  8753   002344  8EDB               	bsf	plusw2,7,c
  8754   002346                     
  8755                           ;../../../../../../framework/usb/src/usb_device.c: 1453:                     BothEP0OutU
      +                          OWNsSet = 1;
  8756   002346  0E01               	movlw	1
  8757   002348  6E45               	movwf	_BothEP0OutUOWNsSet^0,c	;volatile
  8758   00234A                     
  8759                           ;../../../../../../framework/usb/src/usb_device.c: 1457:                 pBDTEntryEP0Out
      +                          Next->CNT = 8;
  8760   00234A  EE20 F001          	lfsr	2,1
  8761   00234E  503A               	movf	_pBDTEntryEP0OutNext^0,w,c
  8762   002350  26D9               	addwf	fsr2l,f,c
  8763   002352  503B               	movf	(_pBDTEntryEP0OutNext+1)^0,w,c
  8764   002354  22DA               	addwfc	fsr2h,f,c
  8765   002356  0E08               	movlw	8
  8766   002358  6EDF               	movwf	indf2,c
  8767   00235A                     
  8768                           ;../../../../../../framework/usb/src/usb_device.c: 1458:                 pBDTEntryEP0Out
      +                          Next->ADR = ((uint16_t)(&SetupPkt));
  8769   00235A  EE20 F002          	lfsr	2,2
  8770   00235E  503A               	movf	_pBDTEntryEP0OutNext^0,w,c
  8771   002360  26D9               	addwf	fsr2l,f,c
  8772   002362  503B               	movf	(_pBDTEntryEP0OutNext+1)^0,w,c
  8773   002364  22DA               	addwfc	fsr2h,f,c
  8774   002366  0E20               	movlw	32
  8775   002368  6EDE               	movwf	postinc2,c
  8776   00236A  0E04               	movlw	4
  8777   00236C  6EDD               	movwf	postdec2,c
  8778   00236E                     
  8779                           ;../../../../../../framework/usb/src/usb_device.c: 1459:                 pBDTEntryEP0Out
      +                          Next->STAT.Val = 0x80;
  8780   00236E  C03A  FFD9         	movff	_pBDTEntryEP0OutNext,fsr2l
  8781   002372  C03B  FFDA         	movff	_pBDTEntryEP0OutNext+1,fsr2h
  8782   002376  0E80               	movlw	128
  8783   002378  6EDF               	movwf	indf2,c
  8784   00237A  EFBF  F011         	goto	i2l332
  8785   00237E                     i2l328:
  8786   00237E                     i2l332:
  8787   00237E  0012               	return		;funcret
  8788   002380                     __end_of_USBCtrlEPAllowStatusStage:
  8789                           	callstack 0
  8790                           
  8791 ;; *************** function _USBCtrlTrfInHandler *****************
  8792 ;; Defined at:
  8793 ;;		line 2599 in file "../../../../../../framework/usb/src/usb_device.c"
  8794 ;; Parameters:    Size  Location     Type
  8795 ;;		None
  8796 ;; Auto vars:     Size  Location     Type
  8797 ;;  lastDTS         1    1[COMRAM] unsigned char 
  8798 ;; Return value:  Size  Location     Type
  8799 ;;                  1    wreg      void 
  8800 ;; Registers used:
  8801 ;;		wreg, fsr0l, fsr0h, fsr2l, fsr2h, status,2, status,0, tblptrl, tblptrh, tblptru, cstack
  8802 ;; Tracked objects:
  8803 ;;		On entry : 0/0
  8804 ;;		On exit  : 0/0
  8805 ;;		Unchanged: 0/0
  8806 ;; Data sizes:     COMRAM   BANK0   BANK1   BANK2   BANK3   BANK4   BANK5   BANK6   BANK7
  8807 ;;      Params:         0       0       0       0       0       0       0       0       0
  8808 ;;      Locals:         1       0       0       0       0       0       0       0       0
  8809 ;;      Temps:          0       0       0       0       0       0       0       0       0
  8810 ;;      Totals:         1       0       0       0       0       0       0       0       0
  8811 ;;Total ram usage:        1 bytes
  8812 ;; Hardware stack levels used: 1
  8813 ;; Hardware stack levels required when called: 1
  8814 ;; This function calls:
  8815 ;;		_USBCtrlTrfTxService
  8816 ;; This function is called by:
  8817 ;;		_USBCtrlEPService
  8818 ;; This function uses a non-reentrant model
  8819 ;;
  8820                           
  8821                           	psect	text49
  8822   002092                     __ptext49:
  8823                           	callstack 0
  8824   002092                     _USBCtrlTrfInHandler:
  8825                           	callstack 24
  8826   002092                     
  8827                           ;../../../../../../framework/usb/src/usb_device.c: 2601:     uint8_t lastDTS;;../../../.
      +                          ./../../framework/usb/src/usb_device.c: 2603:     lastDTS = pBDTEntryIn[0]->STAT.DTS;
  8828   002092  C06E  FFD9         	movff	_pBDTEntryIn,fsr2l
  8829   002096  C06F  FFDA         	movff	_pBDTEntryIn+1,fsr2h
  8830   00209A  0100               	movlb	0	; () banked
  8831   00209C  0E00               	movlw	0
  8832   00209E  BCDF               	btfsc	indf2,6,c
  8833   0020A0  0E01               	movlw	1
  8834   0020A2  6E02               	movwf	USBCtrlTrfInHandler@lastDTS^0,c
  8835   0020A4                     
  8836                           ; BSR set to: 0
  8837                           ;../../../../../../framework/usb/src/usb_device.c: 2606:     pBDTEntryIn[0] = (volatile 
      +                          BDT_ENTRY*)(((uint16_t)pBDTEntryIn[0]) ^ 0x0004);
  8838   0020A4  0E04               	movlw	4
  8839   0020A6  196E               	xorwf	_pBDTEntryIn& (0+255),w,b
  8840   0020A8  6F6E               	movwf	_pBDTEntryIn& (0+255),b
  8841   0020AA  516F               	movf	(_pBDTEntryIn+1)& (0+255),w,b
  8842   0020AC  6F6F               	movwf	(_pBDTEntryIn+1)& (0+255),b
  8843   0020AE                     
  8844                           ; BSR set to: 0
  8845                           ;../../../../../../framework/usb/src/usb_device.c: 2611:     if(USBDeviceState == ADR_PE
      +                          NDING_STATE)
  8846   0020AE  0E08               	movlw	8
  8847   0020B0  184B               	xorwf	_USBDeviceState^0,w,c	;volatile
  8848   0020B2  A4D8               	btfss	status,2,c
  8849   0020B4  EF5E  F010         	goto	i2u246_41
  8850   0020B8  EF60  F010         	goto	i2u246_40
  8851   0020BC                     i2u246_41:
  8852   0020BC  EF72  F010         	goto	i2l4175
  8853   0020C0                     i2u246_40:
  8854   0020C0                     
  8855                           ; BSR set to: 0
  8856                           ;../../../../../../framework/usb/src/usb_device.c: 2612:     {;../../../../../../framewo
      +                          rk/usb/src/usb_device.c: 2613:         UADDR = (SetupPkt.bDevADR & 0x7F);
  8857   0020C0  0104               	movlb	4	; () banked
  8858   0020C2  5122               	movf	34,w,b	;volatile
  8859   0020C4  0B7F               	andlw	127
  8860   0020C6  6E6E               	movwf	110,c	;volatile
  8861   0020C8                     
  8862                           ; BSR set to: 4
  8863                           ;../../../../../../framework/usb/src/usb_device.c: 2614:         if(UADDR != 0u)
  8864   0020C8  506E               	movf	110,w,c	;volatile
  8865   0020CA  B4D8               	btfsc	status,2,c
  8866   0020CC  EF6A  F010         	goto	i2u247_41
  8867   0020D0  EF6C  F010         	goto	i2u247_40
  8868   0020D4                     i2u247_41:
  8869   0020D4  EF70  F010         	goto	i2l4173
  8870   0020D8                     i2u247_40:
  8871   0020D8                     
  8872                           ; BSR set to: 4
  8873                           ;../../../../../../framework/usb/src/usb_device.c: 2615:         {;../../../../../../fra
      +                          mework/usb/src/usb_device.c: 2616:             USBDeviceState=ADDRESS_STATE;
  8874   0020D8  0E10               	movlw	16
  8875   0020DA  6E4B               	movwf	_USBDeviceState^0,c	;volatile
  8876                           
  8877                           ;../../../../../../framework/usb/src/usb_device.c: 2617:         }
  8878   0020DC  EF72  F010         	goto	i2l4175
  8879   0020E0                     i2l4173:
  8880                           
  8881                           ; BSR set to: 4
  8882                           ;../../../../../../framework/usb/src/usb_device.c: 2619:         {;../../../../../../fra
      +                          mework/usb/src/usb_device.c: 2620:             USBDeviceState=DEFAULT_STATE;
  8883   0020E0  0E04               	movlw	4
  8884   0020E2  6E4B               	movwf	_USBDeviceState^0,c	;volatile
  8885   0020E4                     i2l4175:
  8886                           
  8887                           ;../../../../../../framework/usb/src/usb_device.c: 2625:     if(controlTransferState == 
      +                          1)
  8888   0020E4  0449               	decf	_controlTransferState^0,w,c	;volatile
  8889   0020E6  A4D8               	btfss	status,2,c
  8890   0020E8  EF78  F010         	goto	i2u248_41
  8891   0020EC  EF7A  F010         	goto	i2u248_40
  8892   0020F0                     i2u248_41:
  8893   0020F0  EFC2  F010         	goto	i2l458
  8894   0020F4                     i2u248_40:
  8895   0020F4                     
  8896                           ;../../../../../../framework/usb/src/usb_device.c: 2626:     {;../../../../../../framewo
      +                          rk/usb/src/usb_device.c: 2627:         pBDTEntryIn[0]->ADR = ((uint16_t)(CtrlTrfData));
  8897   0020F4  0100               	movlb	0	; () banked
  8898   0020F6  EE20 F002          	lfsr	2,2
  8899   0020FA  516E               	movf	_pBDTEntryIn& (0+255),w,b
  8900   0020FC  26D9               	addwf	fsr2l,f,c
  8901   0020FE  516F               	movf	(_pBDTEntryIn+1)& (0+255),w,b
  8902   002100  22DA               	addwfc	fsr2h,f,c
  8903   002102  0E28               	movlw	40
  8904   002104  6EDE               	movwf	postinc2,c
  8905   002106  0E04               	movlw	4
  8906   002108  6EDD               	movwf	postdec2,c
  8907   00210A                     
  8908                           ; BSR set to: 0
  8909                           ;../../../../../../framework/usb/src/usb_device.c: 2628:         USBCtrlTrfTxService();
  8910   00210A  ECC1  F00F         	call	_USBCtrlTrfTxService	;wreg free
  8911   00210E                     
  8912                           ;../../../../../../framework/usb/src/usb_device.c: 2634:         if(shortPacketStatus ==
      +                           2)
  8913   00210E  0E02               	movlw	2
  8914   002110  184A               	xorwf	_shortPacketStatus^0,w,c	;volatile
  8915   002112  A4D8               	btfss	status,2,c
  8916   002114  EF8E  F010         	goto	i2u249_41
  8917   002118  EF90  F010         	goto	i2u249_40
  8918   00211C                     i2u249_41:
  8919   00211C  EF9E  F010         	goto	i2l4187
  8920   002120                     i2u249_40:
  8921   002120                     
  8922                           ;../../../../../../framework/usb/src/usb_device.c: 2635:         {;../../../../../../fra
      +                          mework/usb/src/usb_device.c: 2638:             pBDTEntryIn[0]->STAT.Val = 0x04;
  8923   002120  C06E  FFD9         	movff	_pBDTEntryIn,fsr2l
  8924   002124  C06F  FFDA         	movff	_pBDTEntryIn+1,fsr2h
  8925   002128  0E04               	movlw	4
  8926   00212A  6EDF               	movwf	indf2,c
  8927   00212C                     
  8928                           ;../../../../../../framework/usb/src/usb_device.c: 2639:             pBDTEntryIn[0]->STA
      +                          T.Val |= 0x80;
  8929   00212C  C06E  FFD9         	movff	_pBDTEntryIn,fsr2l
  8930   002130  C06F  FFDA         	movff	_pBDTEntryIn+1,fsr2h
  8931   002134  0E00               	movlw	0
  8932   002136  8EDB               	bsf	plusw2,7,c
  8933                           
  8934                           ;../../../../../../framework/usb/src/usb_device.c: 2640:         }
  8935   002138  EFCD  F010         	goto	i2l466
  8936   00213C                     i2l4187:
  8937                           
  8938                           ;../../../../../../framework/usb/src/usb_device.c: 2642:         {;../../../../../../fra
      +                          mework/usb/src/usb_device.c: 2643:             if(lastDTS == 0)
  8939   00213C  5002               	movf	USBCtrlTrfInHandler@lastDTS^0,w,c
  8940   00213E  A4D8               	btfss	status,2,c
  8941   002140  EFA4  F010         	goto	i2u250_41
  8942   002144  EFA6  F010         	goto	i2u250_40
  8943   002148                     i2u250_41:
  8944   002148  EFB4  F010         	goto	i2l4193
  8945   00214C                     i2u250_40:
  8946   00214C                     
  8947                           ;../../../../../../framework/usb/src/usb_device.c: 2644:             {;../../../../../..
      +                          /framework/usb/src/usb_device.c: 2645:                 pBDTEntryIn[0]->STAT.Val = 0x40|(
      +                          0x08 & 0x08);
  8948   00214C  C06E  FFD9         	movff	_pBDTEntryIn,fsr2l
  8949   002150  C06F  FFDA         	movff	_pBDTEntryIn+1,fsr2h
  8950   002154  0E48               	movlw	72
  8951   002156  6EDF               	movwf	indf2,c
  8952   002158                     
  8953                           ;../../../../../../framework/usb/src/usb_device.c: 2646:                 pBDTEntryIn[0]-
      +                          >STAT.Val |= 0x80;
  8954   002158  C06E  FFD9         	movff	_pBDTEntryIn,fsr2l
  8955   00215C  C06F  FFDA         	movff	_pBDTEntryIn+1,fsr2h
  8956   002160  0E00               	movlw	0
  8957   002162  8EDB               	bsf	plusw2,7,c
  8958                           
  8959                           ;../../../../../../framework/usb/src/usb_device.c: 2647:             }
  8960   002164  EFCD  F010         	goto	i2l466
  8961   002168                     i2l4193:
  8962                           
  8963                           ;../../../../../../framework/usb/src/usb_device.c: 2649:             {;../../../../../..
      +                          /framework/usb/src/usb_device.c: 2650:                 pBDTEntryIn[0]->STAT.Val = 0x00|(
      +                          0x08 & 0x08);
  8964   002168  C06E  FFD9         	movff	_pBDTEntryIn,fsr2l
  8965   00216C  C06F  FFDA         	movff	_pBDTEntryIn+1,fsr2h
  8966   002170  0E08               	movlw	8
  8967   002172  6EDF               	movwf	indf2,c
  8968   002174                     
  8969                           ;../../../../../../framework/usb/src/usb_device.c: 2651:                 pBDTEntryIn[0]-
      +                          >STAT.Val |= 0x80;
  8970   002174  C06E  FFD9         	movff	_pBDTEntryIn,fsr2l
  8971   002178  C06F  FFDA         	movff	_pBDTEntryIn+1,fsr2h
  8972   00217C  0E00               	movlw	0
  8973   00217E  8EDB               	bsf	plusw2,7,c
  8974   002180  EFCD  F010         	goto	i2l466
  8975   002184                     i2l458:
  8976                           
  8977                           ;../../../../../../framework/usb/src/usb_device.c: 2656:  {;../../../../../../framework/
      +                          usb/src/usb_device.c: 2660:         if(outPipes[0].info.bits.busy == 1)
  8978   002184  0100               	movlb	0	; () banked
  8979   002186  AF63               	btfss	(_outPipes+3)& (0+255),7,b	;volatile
  8980   002188  EFC8  F010         	goto	i2u251_41
  8981   00218C  EFCA  F010         	goto	i2u251_40
  8982   002190                     i2u251_41:
  8983   002190  EFCB  F010         	goto	i2l4199
  8984   002194                     i2u251_40:
  8985   002194                     
  8986                           ; BSR set to: 0
  8987                           ;../../../../../../framework/usb/src/usb_device.c: 2666:             outPipes[0].info.bi
      +                          ts.busy = 0;
  8988   002194  9F63               	bcf	(_outPipes+3)& (0+255),7,b	;volatile
  8989   002196                     i2l4199:
  8990                           
  8991                           ; BSR set to: 0
  8992                           ;../../../../../../framework/usb/src/usb_device.c: 2669:         controlTransferState = 
      +                          0;
  8993   002196  0E00               	movlw	0
  8994   002198  6E49               	movwf	_controlTransferState^0,c	;volatile
  8995   00219A                     i2l466:
  8996   00219A  0012               	return		;funcret
  8997   00219C                     __end_of_USBCtrlTrfInHandler:
  8998                           	callstack 0
  8999                           
  9000 ;; *************** function _USBCtrlTrfTxService *****************
  9001 ;; Defined at:
  9002 ;;		line 1775 in file "../../../../../../framework/usb/src/usb_device.c"
  9003 ;; Parameters:    Size  Location     Type
  9004 ;;		None
  9005 ;; Auto vars:     Size  Location     Type
  9006 ;;  byteToSend      1    0[COMRAM] unsigned char 
  9007 ;; Return value:  Size  Location     Type
  9008 ;;                  1    wreg      void 
  9009 ;; Registers used:
  9010 ;;		wreg, fsr0l, fsr0h, fsr2l, fsr2h, status,2, status,0, tblptrl, tblptrh, tblptru
  9011 ;; Tracked objects:
  9012 ;;		On entry : 0/0
  9013 ;;		On exit  : 0/0
  9014 ;;		Unchanged: 0/0
  9015 ;; Data sizes:     COMRAM   BANK0   BANK1   BANK2   BANK3   BANK4   BANK5   BANK6   BANK7
  9016 ;;      Params:         0       0       0       0       0       0       0       0       0
  9017 ;;      Locals:         1       0       0       0       0       0       0       0       0
  9018 ;;      Temps:          0       0       0       0       0       0       0       0       0
  9019 ;;      Totals:         1       0       0       0       0       0       0       0       0
  9020 ;;Total ram usage:        1 bytes
  9021 ;; Hardware stack levels used: 1
  9022 ;; This function calls:
  9023 ;;		Nothing
  9024 ;; This function is called by:
  9025 ;;		_USBCtrlEPAllowDataStage
  9026 ;;		_USBCtrlTrfInHandler
  9027 ;; This function uses a non-reentrant model
  9028 ;;
  9029                           
  9030                           	psect	text50
  9031   001F82                     __ptext50:
  9032                           	callstack 0
  9033   001F82                     _USBCtrlTrfTxService:
  9034                           	callstack 22
  9035   001F82                     
  9036                           ;../../../../../../framework/usb/src/usb_device.c: 1777:     uint8_t byteToSend;;../../.
      +                          ./../../../framework/usb/src/usb_device.c: 1781:     byteToSend = 8;
  9037   001F82  0E08               	movlw	8
  9038   001F84  6E01               	movwf	USBCtrlTrfTxService@byteToSend^0,c
  9039   001F86                     
  9040                           ;../../../../../../framework/usb/src/usb_device.c: 1782:     if(inPipes[0].wCount.Val < 
      +                          (uint8_t)8)
  9041   001F86  0100               	movlb	0	; () banked
  9042   001F88  516D               	movf	(_inPipes+5)& (0+255),w,b	;volatile
  9043   001F8A  E107               	bnz	i2u179_41
  9044   001F8C  0E08               	movlw	8
  9045   001F8E  5D6C               	subwf	(_inPipes+4)& (0+255),w,b	;volatile
  9046   001F90  B0D8               	btfsc	status,0,c
  9047   001F92  EFCD  F00F         	goto	i2u179_41
  9048   001F96  EFCF  F00F         	goto	i2u179_40
  9049   001F9A                     i2u179_41:
  9050   001F9A  EFE7  F00F         	goto	i2l3659
  9051   001F9E                     i2u179_40:
  9052   001F9E                     
  9053                           ; BSR set to: 0
  9054                           ;../../../../../../framework/usb/src/usb_device.c: 1783:     {;../../../../../../framewo
      +                          rk/usb/src/usb_device.c: 1784:         byteToSend = inPipes[0].wCount.Val;
  9055   001F9E  C06C  F001         	movff	_inPipes+4,USBCtrlTrfTxService@byteToSend	;volatile
  9056   001FA2                     
  9057                           ; BSR set to: 0
  9058                           ;../../../../../../framework/usb/src/usb_device.c: 1791:         if(shortPacketStatus ==
      +                           0)
  9059   001FA2  504A               	movf	_shortPacketStatus^0,w,c	;volatile
  9060   001FA4  A4D8               	btfss	status,2,c
  9061   001FA6  EFD7  F00F         	goto	i2u180_41
  9062   001FAA  EFD9  F00F         	goto	i2u180_40
  9063   001FAE                     i2u180_41:
  9064   001FAE  EFDD  F00F         	goto	i2l3655
  9065   001FB2                     i2u180_40:
  9066   001FB2                     
  9067                           ; BSR set to: 0
  9068                           ;../../../../../../framework/usb/src/usb_device.c: 1792:         {;../../../../../../fra
      +                          mework/usb/src/usb_device.c: 1793:             shortPacketStatus = 1;
  9069   001FB2  0E01               	movlw	1
  9070   001FB4  6E4A               	movwf	_shortPacketStatus^0,c	;volatile
  9071                           
  9072                           ;../../../../../../framework/usb/src/usb_device.c: 1794:         }
  9073   001FB6  EFE7  F00F         	goto	i2l3659
  9074   001FBA                     i2l3655:
  9075                           
  9076                           ; BSR set to: 0
  9077   001FBA  044A               	decf	_shortPacketStatus^0,w,c	;volatile
  9078   001FBC  A4D8               	btfss	status,2,c
  9079   001FBE  EFE3  F00F         	goto	i2u181_41
  9080   001FC2  EFE5  F00F         	goto	i2u181_40
  9081   001FC6                     i2u181_41:
  9082   001FC6  EFE7  F00F         	goto	i2l3659
  9083   001FCA                     i2u181_40:
  9084   001FCA                     
  9085                           ; BSR set to: 0
  9086                           ;../../../../../../framework/usb/src/usb_device.c: 1796:         {;../../../../../../fra
      +                          mework/usb/src/usb_device.c: 1797:             shortPacketStatus = 2;
  9087   001FCA  0E02               	movlw	2
  9088   001FCC  6E4A               	movwf	_shortPacketStatus^0,c	;volatile
  9089   001FCE                     i2l3659:
  9090                           
  9091                           ; BSR set to: 0
  9092                           ;../../../../../../framework/usb/src/usb_device.c: 1803:     inPipes[0].wCount.Val -= by
      +                          teToSend;
  9093   001FCE  5001               	movf	USBCtrlTrfTxService@byteToSend^0,w,c
  9094   001FD0  5F6C               	subwf	(_inPipes+4)& (0+255),f,b	;volatile
  9095   001FD2  0E00               	movlw	0
  9096   001FD4  5B6D               	subwfb	(_inPipes+5)& (0+255),f,b	;volatile
  9097   001FD6                     
  9098                           ; BSR set to: 0
  9099                           ;../../../../../../framework/usb/src/usb_device.c: 1808:     pBDTEntryIn[0]->CNT = byteT
      +                          oSend;
  9100   001FD6  EE20 F001          	lfsr	2,1
  9101   001FDA  516E               	movf	_pBDTEntryIn& (0+255),w,b
  9102   001FDC  26D9               	addwf	fsr2l,f,c
  9103   001FDE  516F               	movf	(_pBDTEntryIn+1)& (0+255),w,b
  9104   001FE0  22DA               	addwfc	fsr2h,f,c
  9105   001FE2  C001  FFDF         	movff	USBCtrlTrfTxService@byteToSend,indf2
  9106   001FE6                     
  9107                           ; BSR set to: 0
  9108                           ;../../../../../../framework/usb/src/usb_device.c: 1812:     pDst = (volatile uint8_t*)C
      +                          trlTrfData;
  9109   001FE6  0E28               	movlw	40
  9110   001FE8  6E38               	movwf	_pDst^0,c
  9111   001FEA  0E04               	movlw	4
  9112   001FEC  6E39               	movwf	(_pDst+1)^0,c
  9113   001FEE                     
  9114                           ; BSR set to: 0
  9115                           ;../../../../../../framework/usb/src/usb_device.c: 1813:     if(inPipes[0].info.bits.ctr
      +                          l_trf_mem == 0x00)
  9116   001FEE  B16B               	btfsc	(_inPipes+3)& (0+255),0,b	;volatile
  9117   001FF0  EFFC  F00F         	goto	i2u182_41
  9118   001FF4  EFFE  F00F         	goto	i2u182_40
  9119   001FF8                     i2u182_41:
  9120   001FF8  EF40  F010         	goto	i2l3687
  9121   001FFC                     i2u182_40:
  9122   001FFC  EF1B  F010         	goto	i2l3677
  9123   002000                     i2l3669:
  9124                           
  9125                           ; BSR set to: 0
  9126                           ;../../../../../../framework/usb/src/usb_device.c: 1816:         {;../../../../../../fra
      +                          mework/usb/src/usb_device.c: 1817:             *pDst++ = *inPipes[0].pSrc.bRom++;
  9127   002000  C068  FFF6         	movff	_inPipes,tblptrl	;volatile
  9128   002004  C069  FFF7         	movff	_inPipes+1,tblptrh	;volatile
  9129   002008  6AF8               	clrf	tblptru,c
  9130   00200A  C038  FFD9         	movff	_pDst,fsr2l
  9131   00200E  C039  FFDA         	movff	_pDst+1,fsr2h
  9132   002012  0E07               	movlw	(high __ramtop+-1)
  9133   002014  64F7               	cpfsgt	tblptrh,c
  9134   002016  D003               	bra	i2u183_47
  9135   002018  0008               	tblrd		*
  9136   00201A  50F5               	movf	tablat,w,c
  9137   00201C  D005               	bra	i2u183_40
  9138   00201E                     i2u183_47:
  9139   00201E  CFF6 FFE9          	movff	tblptrl,fsr0l
  9140   002022  CFF7 FFEA          	movff	tblptrh,fsr0h
  9141   002026  50EF               	movf	indf0,w,c
  9142   002028                     i2u183_40:
  9143   002028  6EDF               	movwf	indf2,c
  9144   00202A  0100               	movlb	0	; () banked
  9145   00202C  4B68               	infsnz	_inPipes& (0+255),f,b	;volatile
  9146   00202E  2B69               	incf	(_inPipes+1)& (0+255),f,b	;volatile
  9147   002030                     
  9148                           ; BSR set to: 0
  9149   002030  4A38               	infsnz	_pDst^0,f,c
  9150   002032  2A39               	incf	(_pDst+1)^0,f,c
  9151   002034                     
  9152                           ; BSR set to: 0
  9153                           ;../../../../../../framework/usb/src/usb_device.c: 1818:             byteToSend--;
  9154   002034  0601               	decf	USBCtrlTrfTxService@byteToSend^0,f,c
  9155   002036                     i2l3677:
  9156                           
  9157                           ; BSR set to: 0
  9158                           ;../../../../../../framework/usb/src/usb_device.c: 1815:         while(byteToSend)
  9159   002036  5001               	movf	USBCtrlTrfTxService@byteToSend^0,w,c
  9160   002038  A4D8               	btfss	status,2,c
  9161   00203A  EF21  F010         	goto	i2u184_41
  9162   00203E  EF23  F010         	goto	i2u184_40
  9163   002042                     i2u184_41:
  9164   002042  EF00  F010         	goto	i2l3669
  9165   002046                     i2u184_40:
  9166   002046  EF48  F010         	goto	i2l371
  9167   00204A                     i2l3679:
  9168                           
  9169                           ; BSR set to: 0
  9170                           ;../../../../../../framework/usb/src/usb_device.c: 1824:         {;../../../../../../fra
      +                          mework/usb/src/usb_device.c: 1825:             *pDst++ = *inPipes[0].pSrc.bRam++;
  9171   00204A  C068  FFF6         	movff	_inPipes,tblptrl	;volatile
  9172   00204E  C069  FFF7         	movff	_inPipes+1,tblptrh	;volatile
  9173   002052  6AF8               	clrf	tblptru,c
  9174   002054  C038  FFD9         	movff	_pDst,fsr2l
  9175   002058  C039  FFDA         	movff	_pDst+1,fsr2h
  9176   00205C  0E07               	movlw	(high __ramtop+-1)
  9177   00205E  64F7               	cpfsgt	tblptrh,c
  9178   002060  D003               	bra	i2u185_47
  9179   002062  0008               	tblrd		*
  9180   002064  50F5               	movf	tablat,w,c
  9181   002066  D005               	bra	i2u185_40
  9182   002068                     i2u185_47:
  9183   002068  CFF6 FFE9          	movff	tblptrl,fsr0l
  9184   00206C  CFF7 FFEA          	movff	tblptrh,fsr0h
  9185   002070  50EF               	movf	indf0,w,c
  9186   002072                     i2u185_40:
  9187   002072  6EDF               	movwf	indf2,c
  9188   002074  0100               	movlb	0	; () banked
  9189   002076  4B68               	infsnz	_inPipes& (0+255),f,b	;volatile
  9190   002078  2B69               	incf	(_inPipes+1)& (0+255),f,b	;volatile
  9191   00207A                     
  9192                           ; BSR set to: 0
  9193   00207A  4A38               	infsnz	_pDst^0,f,c
  9194   00207C  2A39               	incf	(_pDst+1)^0,f,c
  9195   00207E                     
  9196                           ; BSR set to: 0
  9197                           ;../../../../../../framework/usb/src/usb_device.c: 1826:             byteToSend--;
  9198   00207E  0601               	decf	USBCtrlTrfTxService@byteToSend^0,f,c
  9199   002080                     i2l3687:
  9200                           
  9201                           ; BSR set to: 0
  9202                           ;../../../../../../framework/usb/src/usb_device.c: 1823:         while(byteToSend)
  9203   002080  5001               	movf	USBCtrlTrfTxService@byteToSend^0,w,c
  9204   002082  A4D8               	btfss	status,2,c
  9205   002084  EF46  F010         	goto	i2u186_41
  9206   002088  EF48  F010         	goto	i2u186_40
  9207   00208C                     i2u186_41:
  9208   00208C  EF25  F010         	goto	i2l3679
  9209   002090                     i2u186_40:
  9210   002090                     i2l371:
  9211                           
  9212                           ; BSR set to: 0
  9213   002090  0012               	return		;funcret
  9214   002092                     __end_of_USBCtrlTrfTxService:
  9215                           	callstack 0
  9216                           
  9217                           	psect	rparam
  9218   000000                     
  9219                           	psect	temp
  9220   000051                     btemp:
  9221                           	callstack 0
  9222   000051                     	ds	1
  9223   000000                     int$flags	set	btemp
  9224   000000                     wtemp8	set	btemp+1
  9225   000000                     ttemp5	set	btemp+1
  9226   000000                     ttemp6	set	btemp+4
  9227   000000                     ttemp7	set	btemp+8
  9228                           
  9229                           	psect	idloc
  9230                           
  9231                           ;Config register IDLOC0 @ 0x200000
  9232                           ;	unspecified, using default values
  9233   200000                     	org	2097152
  9234   200000  FF                 	db	255
  9235                           
  9236                           ;Config register IDLOC1 @ 0x200001
  9237                           ;	unspecified, using default values
  9238   200001                     	org	2097153
  9239   200001  FF                 	db	255
  9240                           
  9241                           ;Config register IDLOC2 @ 0x200002
  9242                           ;	unspecified, using default values
  9243   200002                     	org	2097154
  9244   200002  FF                 	db	255
  9245                           
  9246                           ;Config register IDLOC3 @ 0x200003
  9247                           ;	unspecified, using default values
  9248   200003                     	org	2097155
  9249   200003  FF                 	db	255
  9250                           
  9251                           ;Config register IDLOC4 @ 0x200004
  9252                           ;	unspecified, using default values
  9253   200004                     	org	2097156
  9254   200004  FF                 	db	255
  9255                           
  9256                           ;Config register IDLOC5 @ 0x200005
  9257                           ;	unspecified, using default values
  9258   200005                     	org	2097157
  9259   200005  FF                 	db	255
  9260                           
  9261                           ;Config register IDLOC6 @ 0x200006
  9262                           ;	unspecified, using default values
  9263   200006                     	org	2097158
  9264   200006  FF                 	db	255
  9265                           
  9266                           ;Config register IDLOC7 @ 0x200007
  9267                           ;	unspecified, using default values
  9268   200007                     	org	2097159
  9269   200007  FF                 	db	255
  9270                           
  9271                           	psect	config
  9272                           
  9273                           ;Config register CONFIG1L @ 0x300000
  9274                           ;	PLL Prescaler Selection bits
  9275                           ;	PLLDIV = 5, Divide by 5 (20 MHz oscillator input)
  9276                           ;	System Clock Postscaler Selection bits
  9277                           ;	CPUDIV = OSC1_PLL2, [Primary Oscillator Src: /1][96 MHz PLL Src: /2]
  9278                           ;	USB Clock Selection bit (used in Full-Speed USB mode only; UCFG:FSEN = 1)
  9279                           ;	USBDIV = 2, USB clock source comes from the 96 MHz PLL divided by 2
  9280   300000                     	org	3145728
  9281   300000  24                 	db	36
  9282                           
  9283                           ;Config register CONFIG1H @ 0x300001
  9284                           ;	Oscillator Selection bits
  9285                           ;	FOSC = HSPLL_HS, HS oscillator, PLL enabled (HSPLL)
  9286                           ;	Fail-Safe Clock Monitor Enable bit
  9287                           ;	FCMEN = OFF, Fail-Safe Clock Monitor disabled
  9288                           ;	Internal/External Oscillator Switchover bit
  9289                           ;	IESO = OFF, Oscillator Switchover mode disabled
  9290   300001                     	org	3145729
  9291   300001  0E                 	db	14
  9292                           
  9293                           ;Config register CONFIG2L @ 0x300002
  9294                           ;	Power-up Timer Enable bit
  9295                           ;	PWRT = OFF, PWRT disabled
  9296                           ;	Brown-out Reset Enable bits
  9297                           ;	BOR = ON, Brown-out Reset enabled in hardware only (SBOREN is disabled)
  9298                           ;	Brown-out Reset Voltage bits
  9299                           ;	BORV = 3, Minimum setting 2.05V
  9300                           ;	USB Voltage Regulator Enable bit
  9301                           ;	VREGEN = ON, USB voltage regulator enabled
  9302   300002                     	org	3145730
  9303   300002  3F                 	db	63
  9304                           
  9305                           ;Config register CONFIG2H @ 0x300003
  9306                           ;	Watchdog Timer Enable bit
  9307                           ;	WDT = OFF, WDT disabled (control is placed on the SWDTEN bit)
  9308                           ;	Watchdog Timer Postscale Select bits
  9309                           ;	WDTPS = 32768, 1:32768
  9310   300003                     	org	3145731
  9311   300003  1E                 	db	30
  9312                           
  9313                           ; Padding undefined space
  9314   300004                     	org	3145732
  9315   300004  FF                 	db	255
  9316                           
  9317                           ;Config register CONFIG3H @ 0x300005
  9318                           ;	CCP2 MUX bit
  9319                           ;	CCP2MX = 0x1, unprogrammed default
  9320                           ;	PORTB A/D Enable bit
  9321                           ;	PBADEN = OFF, PORTB<4:0> pins are configured as digital I/O on Reset
  9322                           ;	Low-Power Timer 1 Oscillator Enable bit
  9323                           ;	LPT1OSC = OFF, Timer1 configured for higher power operation
  9324                           ;	MCLR Pin Enable bit
  9325                           ;	MCLRE = ON, MCLR pin enabled; RE3 input pin disabled
  9326   300005                     	org	3145733
  9327   300005  81                 	db	129
  9328                           
  9329                           ;Config register CONFIG4L @ 0x300006
  9330                           ;	Stack Full/Underflow Reset Enable bit
  9331                           ;	STVREN = ON, Stack full/underflow will cause Reset
  9332                           ;	Single-Supply ICSP Enable bit
  9333                           ;	LVP = OFF, Single-Supply ICSP disabled
  9334                           ;	Dedicated In-Circuit Debug/Programming Port (ICPORT) Enable bit
  9335                           ;	ICPRT = 0x0, unprogrammed default
  9336                           ;	Extended Instruction Set Enable bit
  9337                           ;	XINST = OFF, Instruction set extension and Indexed Addressing mode disabled (Legacy mo
      +                          de)
  9338                           ;	Background Debugger Enable bit
  9339                           ;	DEBUG = 0x1, unprogrammed default
  9340   300006                     	org	3145734
  9341   300006  81                 	db	129
  9342                           
  9343                           ; Padding undefined space
  9344   300007                     	org	3145735
  9345   300007  FF                 	db	255
  9346                           
  9347                           ;Config register CONFIG5L @ 0x300008
  9348                           ;	Code Protection bit
  9349                           ;	CP0 = OFF, Block 0 (000800-001FFFh) is not code-protected
  9350                           ;	Code Protection bit
  9351                           ;	CP1 = OFF, Block 1 (002000-003FFFh) is not code-protected
  9352                           ;	Code Protection bit
  9353                           ;	CP2 = 0x1, unprogrammed default
  9354                           ;	Code Protection bit
  9355                           ;	CP3 = 0x1, unprogrammed default
  9356   300008                     	org	3145736
  9357   300008  0F                 	db	15
  9358                           
  9359                           ;Config register CONFIG5H @ 0x300009
  9360                           ;	Boot Block Code Protection bit
  9361                           ;	CPB = OFF, Boot block (000000-0007FFh) is not code-protected
  9362                           ;	Data EEPROM Code Protection bit
  9363                           ;	CPD = 0x1, unprogrammed default
  9364   300009                     	org	3145737
  9365   300009  C0                 	db	192
  9366                           
  9367                           ;Config register CONFIG6L @ 0x30000A
  9368                           ;	Write Protection bit
  9369                           ;	WRT0 = OFF, Block 0 (000800-001FFFh) is not write-protected
  9370                           ;	Write Protection bit
  9371                           ;	WRT1 = OFF, Block 1 (002000-003FFFh) is not write-protected
  9372                           ;	Write Protection bit
  9373                           ;	WRT2 = 0x1, unprogrammed default
  9374                           ;	Write Protection bit
  9375                           ;	WRT3 = 0x1, unprogrammed default
  9376   30000A                     	org	3145738
  9377   30000A  0F                 	db	15
  9378                           
  9379                           ;Config register CONFIG6H @ 0x30000B
  9380                           ;	Configuration Register Write Protection bit
  9381                           ;	WRTC = OFF, Configuration registers (300000-3000FFh) are not write-protected
  9382                           ;	Boot Block Write Protection bit
  9383                           ;	WRTB = OFF, Boot block (000000-0007FFh) is not write-protected
  9384                           ;	Data EEPROM Write Protection bit
  9385                           ;	WRTD = 0x1, unprogrammed default
  9386   30000B                     	org	3145739
  9387   30000B  E0                 	db	224
  9388                           
  9389                           ;Config register CONFIG7L @ 0x30000C
  9390                           ;	Table Read Protection bit
  9391                           ;	EBTR0 = OFF, Block 0 (000800-001FFFh) is not protected from table reads executed in ot
      +                          her blocks
  9392                           ;	Table Read Protection bit
  9393                           ;	EBTR1 = OFF, Block 1 (002000-003FFFh) is not protected from table reads executed in ot
      +                          her blocks
  9394                           ;	Table Read Protection bit
  9395                           ;	EBTR2 = 0x1, unprogrammed default
  9396                           ;	Table Read Protection bit
  9397                           ;	EBTR3 = 0x1, unprogrammed default
  9398   30000C                     	org	3145740
  9399   30000C  0F                 	db	15
  9400                           
  9401                           ;Config register CONFIG7H @ 0x30000D
  9402                           ;	Boot Block Table Read Protection bit
  9403                           ;	EBTRB = OFF, Boot block (000000-0007FFh) is not protected from table reads executed in
      +                           other blocks
  9404   30000D                     	org	3145741
  9405   30000D  40                 	db	64
  9406                           tosu	equ	0xFFF
  9407                           tosh	equ	0xFFE
  9408                           tosl	equ	0xFFD
  9409                           stkptr	equ	0xFFC
  9410                           pclatu	equ	0xFFB
  9411                           pclath	equ	0xFFA
  9412                           pcl	equ	0xFF9
  9413                           tblptru	equ	0xFF8
  9414                           tblptrh	equ	0xFF7
  9415                           tblptrl	equ	0xFF6
  9416                           tablat	equ	0xFF5
  9417                           prodh	equ	0xFF4
  9418                           prodl	equ	0xFF3
  9419                           indf0	equ	0xFEF
  9420                           postinc0	equ	0xFEE
  9421                           postdec0	equ	0xFED
  9422                           preinc0	equ	0xFEC
  9423                           plusw0	equ	0xFEB
  9424                           fsr0h	equ	0xFEA
  9425                           fsr0l	equ	0xFE9
  9426                           wreg	equ	0xFE8
  9427                           indf1	equ	0xFE7
  9428                           postinc1	equ	0xFE6
  9429                           postdec1	equ	0xFE5
  9430                           preinc1	equ	0xFE4
  9431                           plusw1	equ	0xFE3
  9432                           fsr1h	equ	0xFE2
  9433                           fsr1l	equ	0xFE1
  9434                           bsr	equ	0xFE0
  9435                           indf2	equ	0xFDF
  9436                           postinc2	equ	0xFDE
  9437                           postdec2	equ	0xFDD
  9438                           preinc2	equ	0xFDC
  9439                           plusw2	equ	0xFDB
  9440                           fsr2h	equ	0xFDA
  9441                           fsr2l	equ	0xFD9
  9442                           status	equ	0xFD8

Data Sizes:
    Strings     0
    Constant    198
    Data        0
    BSS         61
    Persistent  0
    Stack       0

Auto Spaces:
    Space          Size  Autos    Used
    COMRAM           94     49      80
    BANK0           160     11      41
    BANK1           256      0       0
    BANK2           256      0       0
    BANK3           256      0       0
    BANK4           208      0       0
    BANK5           128      0       0
    BANK6           256      0       0
    BANK7           256      0       0

Pointer List with Targets:

    USER_USB_CALLBACK_EVENT_HANDLER@pdata	PTR void  size(2) Largest target is 2047
		 -> RAM(DATA[2047]), USTATcopy(COMRAM[1]), USBActiveConfiguration(COMRAM[1]), NULL(NULL[0]), 
		 -> BDT(BIGRAMl[32]), 

    memset@dest	PTR void  size(2) Largest target is 32
		 -> USBAlternateInterface(COMRAM[1]), BDT(BIGRAMl[32]), UEP1(BITBIGSFRlhh[1]), 

    memset@s	PTR unsigned char  size(2) Largest target is 32
		 -> USBAlternateInterface(COMRAM[1]), BDT(BIGRAMl[32]), UEP1(BITBIGSFRlhh[1]), 

    memcpy@d1	PTR void  size(2) Largest target is 8
		 -> SetupPkt(BIGRAMhl[8]), 

    memcpy@d	PTR unsigned char  size(2) Largest target is 8
		 -> SetupPkt(BIGRAMhl[8]), 

    memcpy@s1	PTR const void  size(2) Largest target is 2047
		 -> CtrlTrfData(BIGRAMhl[8]), RAM(DATA[2047]), SetupPkt(BIGRAMhl[8]), 

    memcpy@s	PTR const unsigned char  size(2) Largest target is 2047
		 -> CtrlTrfData(BIGRAMhl[8]), RAM(DATA[2047]), SetupPkt(BIGRAMhl[8]), 

    USBOutHandle	PTR volatile void  size(2) Largest target is 2047
		 -> RAM(DATA[2047]), NULL(NULL[0]), BDT(BIGRAMl[32]), 

    USBInHandle	PTR volatile void  size(2) Largest target is 2047
		 -> RAM(DATA[2047]), NULL(NULL[0]), BDT(BIGRAMl[32]), 

    USBStdFeatureReqHandler@pUEP	PTR unsigned char  size(2) Largest target is 1
		 -> UEP0(ABS[1]), 

    USBStdFeatureReqHandler@p	PTR struct __BDT size(2) Largest target is 2047
		 -> RAM(DATA[2047]), NULL(NULL[0]), BDT(BIGRAMl[32]), 

    sp__memcpy	PTR void  size(2) Largest target is 8
		 -> SetupPkt(BIGRAMhl[8]), 

    USBStdGetStatusHandler@p	PTR struct __BDT size(2) Largest target is 2047
		 -> RAM(DATA[2047]), NULL(NULL[0]), BDT(BIGRAMl[32]), 

    USB_SD_Ptr	const PTR const unsigned char [3] size(2) Largest target is 52
		 -> sd002(CODE[46]), sd001(CODE[52]), sd000(CODE[4]), 

    USB_CD_Ptr	const PTR const unsigned char [1] size(2) Largest target is 41
		 -> configDescriptor1(CODE[41]), 

    pDst	PTR volatile unsigned char  size(2) Largest target is 8
		 -> CtrlTrfData(BIGRAMhl[8]), NULL(NULL[0]), 

    USBConfigureEndpoint@handle	PTR volatile struct __BDT size(2) Largest target is 32
		 -> BDT(BIGRAMl[32]), 

    pBDTEntryEP0OutCurrent	PTR volatile struct __BDT size(2) Largest target is 32
		 -> NULL(NULL[0]), BDT(BIGRAMl[32]), 

    pBDTEntryEP0OutNext	PTR volatile struct __BDT size(2) Largest target is 2047
		 -> RAM(DATA[2047]), NULL(NULL[0]), BDT(BIGRAMl[32]), 

    USBTransferOnePacket@data	PTR unsigned char  size(2) Largest target is 64
		 -> ToSendDataBuffer(BIGRAMhh[64]), ReceivedDataBuffer(BIGRAMhl[64]), 

    sp__USBTransferOnePacket	PTR void  size(2) Largest target is 2047
		 -> RAM(DATA[2047]), NULL(NULL[0]), BDT(BIGRAMl[32]), 

    USBTransferOnePacket@handle	PTR volatile struct __BDT size(2) Largest target is 2047
		 -> RAM(DATA[2047]), NULL(NULL[0]), BDT(BIGRAMl[32]), 

    USBEnableEndpoint@p	PTR unsigned char  size(2) Largest target is 1
		 -> UEP0(ABS[1]), 

    pBDTEntryOut	PTR volatile struct __BDT[2] size(2) Largest target is 2047
		 -> RAM(DATA[2047]), NULL(NULL[0]), BDT(BIGRAMl[32]), 

    pBDTEntryIn	PTR volatile struct __BDT[2] size(2) Largest target is 2047
		 -> RAM(DATA[2047]), NULL(NULL[0]), BDT(BIGRAMl[32]), 

    S536$pFunc	PTR FTN()void  size(2) Largest target is 0

    outPipes.pFunc	PTR FTN()void  size(2) Largest target is 0

    S526$wRam	PTR unsigned short  size(2) Largest target is 0

    outPipes.pDst.wRam	PTR unsigned short  size(2) Largest target is 0

    S526$bRam	PTR unsigned char  size(2) Largest target is 0

    outPipes.pDst.bRam	PTR unsigned char  size(2) Largest target is 0

    S502$wRom	PTR const unsigned short  size(2) Largest target is 0

    inPipes.pSrc.wRom	PTR const unsigned short  size(2) Largest target is 0

    S502$wRam	PTR unsigned short  size(2) Largest target is 0

    inPipes.pSrc.wRam	PTR unsigned short  size(2) Largest target is 0

    S502$bRom	PTR const unsigned char  size(2) Largest target is 0

    inPipes.pSrc.bRom	PTR const unsigned char  size(2) Largest target is 0

    S502$bRam	PTR unsigned char  size(2) Largest target is 0

    inPipes.pSrc.bRam	PTR unsigned char  size(2) Largest target is 0

    sp__memset	PTR void  size(2) Largest target is 32
		 -> USBAlternateInterface(COMRAM[1]), BDT(BIGRAMl[32]), UEP1(BITBIGSFRlhh[1]), 


Critical Paths under _main in COMRAM

    _main->_SYSTEM_Initialize
    _USBDeviceInit->_memset
    _SYSTEM_Initialize->_ADC_Enable
    _SYSTEM_Initialize->_BUTTON_Enable
    _SYSTEM_Initialize->_LED_Enable
    _APP_DeviceCustomHIDTasks->_ADC_Read10bit
    _APP_DeviceCustomHIDTasks->_USBTransferOnePacket

Critical Paths under _SYS_InterruptHigh in COMRAM

    _SYS_InterruptHigh->_USBDeviceTasks
    _USBDeviceTasks->_USBCtrlEPService
    i2_USBDeviceInit->i2_memset
    _USBWakeFromSuspend->_USER_USB_CALLBACK_EVENT_HANDLER
    _USBSuspend->_USER_USB_CALLBACK_EVENT_HANDLER
    _USBCtrlTrfSetupHandler->_USBCheckStdRequest
    _USBCtrlEPAllowDataStage->_USBCtrlTrfTxService
    _USBCheckStdRequest->_USBStdFeatureReqHandler
    _USBStdSetCfgHandler->_USER_USB_CALLBACK_EVENT_HANDLER
    _USBStdFeatureReqHandler->_USER_USB_CALLBACK_EVENT_HANDLER
    i2_SYSTEM_Initialize->i2_ADC_Enable
    i2_SYSTEM_Initialize->i2_BUTTON_Enable
    i2_SYSTEM_Initialize->i2_LED_Enable
    _APP_LEDUpdateUSBStatus->_LED_Off
    _APP_LEDUpdateUSBStatus->_LED_On
    _APP_DeviceCustomHIDInitialize->_USBEnableEndpoint
    _USBEnableEndpoint->_USBConfigureEndpoint
    _USBCtrlTrfOutHandler->_USBCtrlTrfRxService
    _USBCtrlTrfInHandler->_USBCtrlTrfTxService

Critical Paths under _main in BANK0

    _main->_APP_DeviceCustomHIDTasks
    _USBDeviceInit->_memset
    _APP_DeviceCustomHIDTasks->_USBTransferOnePacket

Critical Paths under _SYS_InterruptHigh in BANK0

    None.

Critical Paths under _main in BANK1

    None.

Critical Paths under _SYS_InterruptHigh in BANK1

    None.

Critical Paths under _main in BANK2

    None.

Critical Paths under _SYS_InterruptHigh in BANK2

    None.

Critical Paths under _main in BANK3

    None.

Critical Paths under _SYS_InterruptHigh in BANK3

    None.

Critical Paths under _main in BANK4

    None.

Critical Paths under _SYS_InterruptHigh in BANK4

    None.

Critical Paths under _main in BANK5

    None.

Critical Paths under _SYS_InterruptHigh in BANK5

    None.

Critical Paths under _main in BANK6

    None.

Critical Paths under _SYS_InterruptHigh in BANK6

    None.

Critical Paths under _main in BANK7

    None.

Critical Paths under _SYS_InterruptHigh in BANK7

    None.

Call Graph Tables:

 ---------------------------------------------------------------------------------
 (Depth) Function   	        Calls       Base Space   Used Autos Params    Refs
 ---------------------------------------------------------------------------------
 (0) _main                                                 0     0      0    4210
           _APP_DeviceCustomHIDTasks
                  _SYSTEM_Initialize
                    _USBDeviceAttach
                      _USBDeviceInit
 ---------------------------------------------------------------------------------
 (1) _USBDeviceInit                                        1     1      0    2241
                                             47 COMRAM     1     1      0
                             _memset
 ---------------------------------------------------------------------------------
 (2) _memset                                              12     6      6    1950
                                             45 COMRAM     2     2      0
                                              0 BANK0     10     4      6
 ---------------------------------------------------------------------------------
 (1) _USBDeviceAttach                                      0     0      0       0
 ---------------------------------------------------------------------------------
 (1) _SYSTEM_Initialize                                    3     3      0      82
                                             48 COMRAM     1     1      0
                                              0 BANK0      2     2      0
                         _ADC_Enable
               _ADC_SetConfiguration
                      _BUTTON_Enable
                         _LED_Enable
 ---------------------------------------------------------------------------------
 (2) _LED_Enable                                           3     3      0      15
                                             45 COMRAM     3     3      0
 ---------------------------------------------------------------------------------
 (2) _BUTTON_Enable                                        3     3      0      15
                                             45 COMRAM     3     3      0
 ---------------------------------------------------------------------------------
 (2) _ADC_SetConfiguration                                 1     1      0      15
                                             45 COMRAM     1     1      0
 ---------------------------------------------------------------------------------
 (2) _ADC_Enable                                           3     3      0      15
                                             45 COMRAM     3     3      0
 ---------------------------------------------------------------------------------
 (1) _APP_DeviceCustomHIDTasks                             4     4      0    1887
                                              7 BANK0      4     4      0
                      _ADC_Read10bit
                   _BUTTON_IsPressed
                         _LED_Toggle
               _USBTransferOnePacket
 ---------------------------------------------------------------------------------
 (2) _USBTransferOnePacket                                11     7      4    1676
                                             45 COMRAM     4     0      4
                                              0 BANK0      7     7      0
 ---------------------------------------------------------------------------------
 (2) _LED_Toggle                                           3     3      0      22
                                             45 COMRAM     3     3      0
 ---------------------------------------------------------------------------------
 (2) _BUTTON_IsPressed                                     3     3      0      22
                                             45 COMRAM     3     3      0
 ---------------------------------------------------------------------------------
 (2) _ADC_Read10bit                                        7     5      2     102
                                             45 COMRAM     4     2      2
                                              0 BANK0      3     3      0
 ---------------------------------------------------------------------------------
 Estimated maximum stack depth 2
 ---------------------------------------------------------------------------------
 (Depth) Function   	        Calls       Base Space   Used Autos Params    Refs
 ---------------------------------------------------------------------------------
 (3) _SYS_InterruptHigh                                   12    12      0   31256
                                             33 COMRAM    12    12      0
                     _USBDeviceTasks
 ---------------------------------------------------------------------------------
 (4) _USBDeviceTasks                                       1     1      0   31256
                                             32 COMRAM     1     1      0
          _USBCtrlEPAllowStatusStage
                   _USBCtrlEPService
      _USBIncrement1msInternalTimers
                    _USBStallHandler
                         _USBSuspend
                 _USBWakeFromSuspend
    _USER_USB_CALLBACK_EVENT_HANDLER
                    i2_USBDeviceInit
 ---------------------------------------------------------------------------------
 (5) i2_USBDeviceInit                                      1     1      0    1233
                                             12 COMRAM     1     1      0
                           i2_memset
 ---------------------------------------------------------------------------------
 (5) _USBWakeFromSuspend                                   0     0      0    3944
    _USER_USB_CALLBACK_EVENT_HANDLER
 ---------------------------------------------------------------------------------
 (5) _USBSuspend                                           0     0      0    3944
    _USER_USB_CALLBACK_EVENT_HANDLER
 ---------------------------------------------------------------------------------
 (5) _USBStallHandler                                      1     1      0       0
                                              0 COMRAM     1     1      0
 ---------------------------------------------------------------------------------
 (5) _USBIncrement1msInternalTimers                        0     0      0       0
 ---------------------------------------------------------------------------------
 (5) _USBCtrlEPService                                     1     1      0   18145
                                             31 COMRAM     1     1      0
                _USBCtrlTrfInHandler
               _USBCtrlTrfOutHandler
             _USBCtrlTrfSetupHandler
                             _memcpy
 ---------------------------------------------------------------------------------
 (6) _memcpy                                              11     5      6     410
                                              0 COMRAM    11     5      6
 ---------------------------------------------------------------------------------
 (6) _USBCtrlTrfSetupHandler                               0     0      0   17506
                 _USBCheckStdRequest
           _USBCtrlEPServiceComplete
    _USER_USB_CALLBACK_EVENT_HANDLER
 ---------------------------------------------------------------------------------
 (7) _USBCtrlEPServiceComplete                             0     0      0      92
            _USBCtrlEPAllowDataStage
          _USBCtrlEPAllowStatusStage
 ---------------------------------------------------------------------------------
 (8) _USBCtrlEPAllowDataStage                              0     0      0      92
                _USBCtrlTrfTxService
 ---------------------------------------------------------------------------------
 (7) _USBCheckStdRequest                                   2     2      0   13470
                                             29 COMRAM     2     2      0
            _USBStdFeatureReqHandler
                _USBStdGetDscHandler
             _USBStdGetStatusHandler
                _USBStdSetCfgHandler
    _USER_USB_CALLBACK_EVENT_HANDLER
 ---------------------------------------------------------------------------------
 (8) _USBStdSetCfgHandler                                  1     1      0    5065
                                             22 COMRAM     1     1      0
    _USER_USB_CALLBACK_EVENT_HANDLER
                           i2_memset
 ---------------------------------------------------------------------------------
 (6) i2_memset                                            12     6      6    1031
                                              0 COMRAM    12     6      6
 ---------------------------------------------------------------------------------
 (8) _USBStdGetStatusHandler                               4     4      0      46
                                              0 COMRAM     4     4      0
 ---------------------------------------------------------------------------------
 (8) _USBStdGetDscHandler                                  2     2      0       0
                                              0 COMRAM     2     2      0
 ---------------------------------------------------------------------------------
 (8) _USBStdFeatureReqHandler                              7     7      0    4415
                                             22 COMRAM     7     7      0
    _USER_USB_CALLBACK_EVENT_HANDLER
 ---------------------------------------------------------------------------------
 (5) _USER_USB_CALLBACK_EVENT_HANDLER                      8     2      6    3944
                                             14 COMRAM     8     2      6
      _APP_DeviceCustomHIDInitialize
             _APP_LEDUpdateUSBStatus
                 _USBCheckHIDRequest
                i2_SYSTEM_Initialize
 ---------------------------------------------------------------------------------
 (6) i2_SYSTEM_Initialize                                  3     3      0     110
                                              3 COMRAM     3     3      0
                       i2_ADC_Enable
             i2_ADC_SetConfiguration
                    i2_BUTTON_Enable
                       i2_LED_Enable
 ---------------------------------------------------------------------------------
 (7) i2_LED_Enable                                         3     3      0      22
                                              0 COMRAM     3     3      0
 ---------------------------------------------------------------------------------
 (7) i2_BUTTON_Enable                                      3     3      0      22
                                              0 COMRAM     3     3      0
 ---------------------------------------------------------------------------------
 (7) i2_ADC_SetConfiguration                               1     1      0      22
                                              0 COMRAM     1     1      0
 ---------------------------------------------------------------------------------
 (7) i2_ADC_Enable                                         3     3      0      22
                                              0 COMRAM     3     3      0
 ---------------------------------------------------------------------------------
 (6) _USBCheckHIDRequest                                   2     2      0       0
                                              0 COMRAM     2     2      0
 ---------------------------------------------------------------------------------
 (6) _APP_LEDUpdateUSBStatus                               2     2      0      44
                                              3 COMRAM     2     2      0
                            _LED_Off
                             _LED_On
 ---------------------------------------------------------------------------------
 (7) _LED_On                                               3     3      0      22
                                              0 COMRAM     3     3      0
 ---------------------------------------------------------------------------------
 (7) _LED_Off                                              3     3      0      22
                                              0 COMRAM     3     3      0
 ---------------------------------------------------------------------------------
 (6) _APP_DeviceCustomHIDInitialize                        0     0      0    1098
                  _USBEnableEndpoint
             i2_USBTransferOnePacket
 ---------------------------------------------------------------------------------
 (7) i2_USBTransferOnePacket                              11     7      4     454
                                              0 COMRAM    11     7      4
 ---------------------------------------------------------------------------------
 (7) _USBEnableEndpoint                                    4     3      1     644
                                             10 COMRAM     4     3      1
               _USBConfigureEndpoint
 ---------------------------------------------------------------------------------
 (8) _USBConfigureEndpoint                                10     9      1     400
                                              0 COMRAM    10     9      1
 ---------------------------------------------------------------------------------
 (6) _USBCtrlTrfOutHandler                                 0     0      0     114
                _USBCtrlTrfRxService
 ---------------------------------------------------------------------------------
 (7) _USBCtrlTrfRxService                                  2     2      0     114
                                              0 COMRAM     2     2      0
          _USBCtrlEPAllowStatusStage
 ---------------------------------------------------------------------------------
 (8) _USBCtrlEPAllowStatusStage                            0     0      0       0
 ---------------------------------------------------------------------------------
 (6) _USBCtrlTrfInHandler                                  1     1      0     115
                                              1 COMRAM     1     1      0
                _USBCtrlTrfTxService
 ---------------------------------------------------------------------------------
 (9) _USBCtrlTrfTxService                                  1     1      0      92
                                              0 COMRAM     1     1      0
 ---------------------------------------------------------------------------------
 Estimated maximum stack depth 9
 ---------------------------------------------------------------------------------

 Call Graph Graphs:

 _main (ROOT)
   _APP_DeviceCustomHIDTasks
     _ADC_Read10bit
     _BUTTON_IsPressed
     _LED_Toggle
     _USBTransferOnePacket
   _SYSTEM_Initialize
     _ADC_Enable
     _ADC_SetConfiguration
     _BUTTON_Enable
     _LED_Enable
   _USBDeviceAttach
   _USBDeviceInit
     _memset

 _SYS_InterruptHigh (ROOT)
   _USBDeviceTasks
     _USBCtrlEPAllowStatusStage
     _USBCtrlEPService
       _USBCtrlTrfInHandler
         _USBCtrlTrfTxService
       _USBCtrlTrfOutHandler
         _USBCtrlTrfRxService
           _USBCtrlEPAllowStatusStage
       _USBCtrlTrfSetupHandler
         _USBCheckStdRequest
           _USBStdFeatureReqHandler
             _USER_USB_CALLBACK_EVENT_HANDLER
               _APP_DeviceCustomHIDInitialize
                 _USBEnableEndpoint
                   _USBConfigureEndpoint
                 i2_USBTransferOnePacket
               _APP_LEDUpdateUSBStatus
                 _LED_Off
                 _LED_On
               _USBCheckHIDRequest
               i2_SYSTEM_Initialize
                 i2_ADC_Enable
                 i2_ADC_SetConfiguration
                 i2_BUTTON_Enable
                 i2_LED_Enable
           _USBStdGetDscHandler
           _USBStdGetStatusHandler
           _USBStdSetCfgHandler
             _USER_USB_CALLBACK_EVENT_HANDLER
             i2_memset
           _USER_USB_CALLBACK_EVENT_HANDLER
         _USBCtrlEPServiceComplete
           _USBCtrlEPAllowDataStage
             _USBCtrlTrfTxService
           _USBCtrlEPAllowStatusStage
         _USER_USB_CALLBACK_EVENT_HANDLER
       _memcpy
     _USBIncrement1msInternalTimers
     _USBStallHandler
     _USBSuspend
       _USER_USB_CALLBACK_EVENT_HANDLER
     _USBWakeFromSuspend
       _USER_USB_CALLBACK_EVENT_HANDLER
     _USER_USB_CALLBACK_EVENT_HANDLER
     i2_USBDeviceInit
       i2_memset

 Address spaces:
Name               Size   Autos  Total    Cost      Usage
BIGRAMl            3FF      0       0      33        0.0%
BIGRAMhh           280      0       0      31        0.0%
EEDATA             100      0       0       0        0.0%
BITBANK7           100      0       0      18        0.0%
BANK7              100      0       0      19        0.0%
BITBANK6           100      0       0      16        0.0%
BANK6              100      0       0      17        0.0%
BITBANK3           100      0       0      10        0.0%
BANK3              100      0       0      11        0.0%
BITBANK2           100      0       0       8        0.0%
BANK2              100      0       0       9        0.0%
BITBANK1           100      0       0       6        0.0%
BANK1              100      0       0       7        0.0%
BIGRAMhl            D0      0       0      32        0.0%
BITBANK4            D0      0       0      12        0.0%
BANK4               D0      0       0      13        0.0%
BITBANK0            A0      0       0       4        0.0%
BANK0               A0      B      29       5       25.6%
BITBANK5            80      0       0      14        0.0%
BANK5               80      0       0      15        0.0%
BITCOMRAM           5E      0       0       0        0.0%
COMRAM              5E     31      50       1       85.1%
BITBIGSFRhhhhhh     21      0       0      21        0.0%
BITBIGSFRhhhlh      1D      0       0      23        0.0%
BITBIGSFRlhh         F      0       0      28        0.0%
BITBIGSFRhhhhhh      D      0       0      20        0.0%
BITBIGSFRhhhhhl      B      0       0      22        0.0%
BITBIGSFRhhhll       A      0       0      24        0.0%
BITBIGSFRhll         A      0       0      27        0.0%
BITBIGSFRlll         8      0       0      29        0.0%
BITBIGSFRhlh         5      0       0      26        0.0%
BITBIGSFRhhl         1      0       0      25        0.0%
BIGSFR               0      0       0     200        0.0%
BITSFR               0      0       0     200        0.0%
SFR                  0      0       0     200        0.0%
STACK                0      0       0       2        0.0%
NULL                 0      0       0       0        0.0%
ABS                  0      0      79      30        0.0%
DATA                 0      0      79       3        0.0%
CODE                 0      0       0       0        0.0%


Microchip Technology PIC18 Macro Assembler V2.41 build 20230208172133 
Symbol Table                                                                                   Tue Sep 17 14:58:25 2024

                             _USB_SD_Ptr 0801                                        l8 28AA  
                                      l9 290E                                       l10 28C0  
                                     l20 2DA4                                       l16 2D66  
                                     l50 29E8                                       l18 2D6C  
                                     l51 29EE                                       l52 29F4  
                                     l54 2A3C                                       l70 2986  
                                     l71 298C                                       l48 29E2  
                                     l72 2992                                       l74 29DA  
                                     l68 2980                              ?_LED_Enable 0001  
                          _USBDeviceInit 197E                       _USBCheckHIDRequest 1442  
   USER_USB_CALLBACK_EVENT_HANDLER@event 000F     USER_USB_CALLBACK_EVENT_HANDLER@pdata 0011  
                                    l110 2888                                      l121 2F66  
                                    l106 283A                                      l114 2E96  
                                    l107 28A2                                      l115 2EBE  
                                    l108 287A                                      l302 16F6  
                            ?_LED_Toggle 0001                                      l321 2D4C  
                                    l322 2D4A                                      l324 2D5E  
                                    l261 19E4              __end_of_USBStdGetDscHandler 1442  
                                    l266 1ABC                                      l656 2C20  
                                    l690 0FDE                                      _BDT 0400  
                                    l689 0E60                                      _UIE 0F69  
                                    u980 2F54                                      u981 2F50  
                                    _UIR 0F68                   _APP_LEDUpdateUSBStatus 219C  
                             _USBSuspend 2EF0                     USBStdSetCfgHandler@i 0017  
                                    prod 0FF3                                      wreg 0FE8  
                         _USBDeviceTasks 0C24                      ?_USBCheckHIDRequest 0001  
                         _USBDeviceState 004B                            _BUTTON_Enable 2D60  
                  ??_USBCtrlTrfRxService 0001                 USBEnableEndpoint@options 000B  
                        __end_of_LED_Off 2B64                                     l2313 2E9C  
                                   l2321 2F54                                     l2323 2F58  
                                   l2309 2E92                                     l2325 2F60  
                                   l2261 2D72                                     l2327 2F64  
                                   l2319 2F44                                     l1391 1156  
                                   l4201 28A6                                     l2257 2D62  
                                   l2281 2998                                     l4203 28D6  
             USBConfigureEndpoint@handle 0009                                     l2277 297C  
                                   l4223 29FA                                     l4209 28DC  
                                   l2721 2D3E                                     l5211 2836  
                                   l4219 29DE                                     l2723 2D40  
                                   l5221 2890                                     l2725 2D42  
                                   l2717 2D1A                                     l5301 198C  
                                   l5223 2896                                     l5215 2842  
                                   l2727 2D44                                     l2719 2D2A  
                                   l5303 19AA                                     l5225 289A  
                                   l5217 2866                                     l5401 0EAA  
                                   l2729 2D5A                                     l5241 100C  
                                   l5321 19E6                                     l5305 19AE  
                                   l5219 2878                                     l5411 0EF8  
                                   l5403 0EBC                                     l5251 10B4  
                                   l5235 0FE0                                     l5331 19F6  
                                   l5323 19EA                                     l5315 19BA  
                                   l5307 19B2                                     l5421 0F56  
                                   l5413 0EFE                                     l5405 0ED2  
                                   l5261 113A                                     l5253 10E0  
                                   l5245 1042                                     l5333 19FA  
                                   l5325 19EC                                     l5317 19D2  
                                   l5309 19B6                                     l5271 15E6  
                                   l5423 0F5C                                     l5415 0F20  
                                   l5407 0ED8                                     l5431 0F8A  
                                   l5263 1140                                     l5247 109A  
                                   l5239 1000                                     l5351 1A6E  
                                   l5343 1A28                                     l5335 1A02  
                                   l5327 19EE                                     l5319 19D4  
                                   l5281 1642                                     l5273 1600  
                                   l5425 0F60                                     l5417 0F32  
                                   l5409 0EEE                                     l5433 0FC0  
                                   l5265 1144                                     l5257 10FA  
                                   l5361 1A9A                                     l5353 1A7E  
                                   l5345 1A50                                     l5337 1A10  
                                   l5329 19F0                                     l5291 16B4  
                                   l5283 164E                                     l5275 1612  
                                   l5267 15B8                                     l5427 0F68  
                                   l5419 0F48                                     l5259 112E  
                                   l5371 1AB8                                     l5363 1A9E  
                                   l5355 1A88                                     l5347 1A5E  
                                   l5293 16EE                                     l5285 165A  
                                   l5269 15C8                                     l5373 2BC6  
                                   l5365 1AA0                                     l5357 1A8C  
                                   l5349 1A6C                                     l5461 2F98  
                                   l5287 1666                                     l5279 161E  
                                   l5375 2BCA                                     l5383 2BEC  
                                   l5367 1AA4                                     l5359 1A96  
                                   l5463 2F9C                                     l5289 1676  
                                   l5377 2BDC                                     l5369 1AB4  
                                   l5297 197E                                     l5457 2F8E  
                                   l5395 0E72                                     l5379 2BE2  
                                   l5299 1980                                     l5459 2F94  
                                   l5397 0E86                                     l5389 0E4C  
                                   l5399 0EA0                                     l5951 2EB0  
                                   l5953 0FA2                                     l5945 2C02  
                                   l5955 2A0E                                     l5947 29AC  
                                   l5957 28F0                                     l5949 2D86  
                                   l5959 2858                    ??i2_SYSTEM_Initialize 0004  
                                   u3200 1156                                     u3201 1152  
                                   u3210 15C8                                     u1450 2D2A  
                                   u3211 15C4                                     u1451 2D26  
                                   u3220 1612                                     u3300 0E9C  
                                   u1460 2D5A                                     u3221 160E  
                                   u3301 0E98                                     u1461 2D56  
                                   u3150 2888                                     u3230 1676  
                                   u3310 0EBC                                     u3151 2884  
                                   u3231 1672                                     u3311 0EB8  
                                   u2520 28BA                                     u3320 0ED2  
                                   u3160 0FFC                                     u3240 19E4  
                                   u2521 28B4                                     u3321 0ECE  
                                   u3161 0FF8                                     u3241 19E0  
                                   u2530 28BC                                     u3330 0EEE  
                                   u3170 103E                                     u3250 1A10  
                                   u3331 0EEA                                     u3171 103A  
                                   u3251 1A0C                                     u2540 28D0  
                                   u3340 0F32                                     u3180 10B0  
                                   u3260 1A7E                                     u2541 28CA  
                                   u3341 0F2E                                     u3181 10AC  
                                   u3261 1A7A                                     u2550 28D2  
                                   u3350 0F48                                     u3270 0E5C  
                                   u3190 10F6                                     u3351 0F44  
                                   u3271 0E58                                     u3191 10F2  
                                   u3280 0E6E                                     u3281 0E6A  
                                   u3290 0E86                                     u3291 0E82  
                                   i2l20 2DEA                                     i2l30 2AAC  
                                   i2l31 2AB2                                     i2l40 2B0E  
                                   i2l32 2AB8                                     i2l16 2DAC  
                                   i2l41 2B14                                     i2l42 2B1A  
                                   i2l34 2B00                                     i2l18 2DB2  
                                   i2l44 2B62                                     i2l28 2AA6  
                                   i2l38 2B08                                     i2l70 2A4A  
                                   i2l71 2A50                    ??_USBCtrlTrfTxService 0001  
                                   i2l72 2A56                                     i2l74 2A9E  
                                   i2l68 2A44                                     _UCFG 0F6F  
                                   _UEP0 0F70                                     _UEP1 0F71  
                                   _UEIE 0F6B                                     _UEIR 0F6A  
                                   _UCON 0F6D   USBStdFeatureReqHandler@current_ep_data 001B  
                                   _pDst 0038                                     _main 2F8E  
               ??i2_USBTransferOnePacket 0005                                     fsr0h 0FEA  
                                   fsr1h 0FE2                                     indf0 0FEF  
                                   fsr2h 0FDA                                     fsr0l 0FE9  
                                   indf1 0FE7                                     indf2 0FDF  
                                   fsr1l 0FE1                                     fsr2l 0FD9  
                        _USBDeviceAttach 2D1A                                     btemp 0051  
                                   prodh 0FF4                                     prodl 0FF3  
                                   start 000E                     ??_USBCheckHIDRequest 0001  
             __end_of_USBCheckStdRequest 1E60                   ??_USBCtrlTrfOutHandler 0003  
                           ___param_bank 0000                ??_USBStdFeatureReqHandler 0017  
                           _USBOutHandle 0078                 ??_USBStdGetStatusHandler 0001  
                         ?_USBDeviceInit 0001                                    ?_main 0001  
                 __end_of_USBDeviceTasks 0E4C                ?_USBCtrlEPServiceComplete 0001  
                                  i2l121 2F8C                                    i2l114 2EC6  
                                  i2l115 2EEE                                    i2l302 1D38  
                                  i2l332 237E                                    i2l420 1F80  
                                  i2l412 1F62                                    i2l405 1440  
                                  i2l413 1E8A                                    i2l261 1B22  
                                  i2l510 0C22                                    i2l414 1E92  
                                  i2l343 2680                                    i2l423 2BC0  
                                  i2l328 237E                                    i2l272 0C84  
                                  i2l409 1E6E                                    i2l425 2BC2  
                                  i2l273 0E4A                                    i2l506 0B84  
                                  i2l338 25D0                                    i2l346 18D8  
                                  i2l442 251C                                    i2l434 2E28  
                                  i2l266 1BFA                                    i2l282 0DA0  
                                  i2l371 2090                                    i2l515 2E8E  
                                  i2l283 0E48                                    i2l452 2830  
                                  i2l612 2210                                    i2l356 197C  
                                  i2l428 2F1A                                    i2l284 0DB2  
                                  i2l445 27BC                                    i2l382 1824  
                                  i2l470 1E5E                                    i2l391 2464  
                                  i2l384 183A                                    i2l296 2D18  
                                  i2l608 228E                                    i2l472 1D56  
                                  i2l465 2194                                    i2l481 1DB2  
                                  i2l466 219A                                    i2l458 2184  
                                  i2l554 15B2                                    i2l661 2946  
                                  i2l487 0912                                    i2l656 2C7C  
                                  i2l594 272C                                    i2l498 0AD6  
                                  i2l686 2E5C                                    _UADDR 0F6E  
                                  _USTAT 0F6C                           ?_BUTTON_Enable 0001  
        __end_of_USBCtrlEPAllowDataStage 25D2                                    _sd000 08C3  
                                  _sd001 0809                                    _sd002 083D  
         ?_USBIncrement1msInternalTimers 0001                                    tablat 0FF5  
                          ?i2_ADC_Enable 0001                                    plusw2 0FDB  
                                  ttemp5 0052                                    ttemp6 0055  
                                  ttemp7 0059                                    status 0FD8  
                                  wtemp8 0052                         __end_ofi2_memset 12CE  
                        __initialization 2F1C                             __end_of_main 2FA8  
               ??i2_ADC_SetConfiguration 0001                                   ??_main 0032  
                          __activetblptr 0002                          ?_USBDeviceTasks 0001  
                            ?_USBSuspend 0001                                ??_LED_Off 0001  
                __end_of_USBDeviceAttach 2D60                                   _ADCON0 0FC2  
                                 _ADCON2 0FC0                                   _ADRESH 0FC4  
                                 _ADRESL 0FC3                           ??i2_ADC_Enable 0001  
                 SYSTEM_Initialize@state 0031                             ??_ADC_Enable 002E  
                                 i2l4001 1918                                   i2l4011 1954  
                                 i2l4003 1920                                   i2l4021 16F8  
                                 i2l4101 1DEC                                   i2l4013 1960  
                                 i2l4005 1924                                   i2l4031 1734  
                                 i2l4023 1708                                   i2l1391 12CC  
                                 i2l4015 1964                                   i2l4007 1934  
                                 i2l4111 2C92                                   _LED_On 2AA0  
                                 i2l4041 1776                                   i2l4033 174C  
                                 i2l4025 1720                                   i2l4017 1968  
                                 i2l4009 1948                                   i2l4121 272E  
                                 i2l4113 2C9E                                   i2l4051 17D8  
                                 i2l4043 179A                                   i2l4035 1750  
                                 i2l4027 1724                                   i2l3411 2CF6  
                                 i2l4131 2774                                   i2l4123 2746  
                                 i2l1387 2CCC                                   i2l4115 2CA2  
                                 i2l4061 1826                                   i2l4045 17B0  
                                 i2l4053 17E8                                   i2l4037 1752  
                                 i2l4029 172C                                   i2l3413 2D00  
                                 i2l3405 2CD0                                   i2l3501 1486  
                                 i2l3421 2DB8                                   i2l4141 2798  
                                 i2l4133 2780                                   i2l4125 2752  
                                 i2l4117 2CAE                                   i2l4109 2C7E  
                                 i2l4301 2EF4                                   i2l4063 1836  
                                 i2l4055 180C                                   i2l4047 17BC  
                                 i2l4039 1764                                   i2l4151 27D8  
                                 i2l3415 2D0C                                   i2l3407 2CDE  
                                 i2l3511 14BA                                   i2l3503 1496  
                                 i2l3431 2A5C                                   i2l4071 1D62  
                                 i2l4143 279C                                   i2l4135 2784  
                                 i2l4127 275E                                   i2l4119 2CB2  
                                 i2l4311 2E6A                                   i2l4303 2EF6  
                                 i2l4161 2092                                   i2l4057 1818  
                                 i2l4049 17CC                                   i2l4153 27EC  
                                 i2l3409 2CE8                                   i2l3601 2E34  
                                 i2l3513 14C2                                   i2l3505 14A0  
                                 i2l3441 2ECC                                   i2l3417 2DA8  
                                 i2l4081 1D82                                   i2l4073 1D6A  
                                 i2l4065 1D3A                                   i2l4145 27B8  
                                 i2l4137 278C                                   i2l4129 276A  
                                 i2l4313 2E7A                                   i2l4321 2B72  
                                 i2l4305 2EFA                                   i2l4401 1AF8  
                                 i2l4171 20D8                                   i2l4163 20A4  
                                 i2l4059 1824                                   i2l4155 2810  
                                 i2l4147 27BE                                   i2l3371 25DC  
                                 i2l3603 2E3E                                   i2l3531 1538  
                                 i2l3523 1518                                   i2l3507 14A8  
                                 i2l3451 2F7E                                   i2l3427 2A40  
                                 i2l3611 2C40                                   i2l4091 1DA8  
                                 i2l4083 1D88                                   i2l4075 1D72  
                                 i2l4139 2790                                   i2l4331 2466  
                                 i2l4315 2E7C                                   i2l4323 2B8C  
                                 i2l4307 2EFE                                   i2l4411 1B2A  
                                 i2l4403 1B10                                   i2l4181 210E  
                                 i2l4173 20E0                                   i2l4165 20AE  
                                 i2l4157 281C                                   i2l4149 27D0  
                                 i2l3381 2668                                   i2l3373 261A  
                                 i2l3461 1C0E                                   i2l3541 1560  
                                 i2l3533 1540                                   i2l3525 1522  
                                 i2l3509 14B0                                   i2l3517 14CA  
                                 i2l3437 2EC2                                   i2l3453 2F86  
                                 i2l3605 2C24                                   i2l3621 2682  
                                 i2l3701 1210                                   i2l4093 1DAC  
                                 i2l4085 1D90                                   i2l4077 1D7C  
                                 i2l4069 1D5A                                   i2l4341 24AE  
                                 i2l4333 246A                                   i2l4317 2E8C  
                                 i2l4309 2E5E                                   i2l4325 2BA6  
                                 i2l4421 1B40                                   i2l4413 1B2C  
                                 i2l4405 1B12                                   i2l4191 2158  
                                 i2l4183 2120                                   i2l4167 20C0  
                                 i2l4175 20E4                                   i2l4159 282C  
                                 i2l3383 2672                                   i2l3375 2624  
                                 i2l3471 1C60                                   i2l3463 1C2A  
                                 i2l3535 154A                                   i2l3527 152A  
                                 i2l3519 14FC                                   i2l3455 2F8A  
                                 i2l3447 2F6A                                   i2l3607 2C28  
                                 i2l3615 2C4A                                   i2l3631 26B2  
                                 i2l3623 2686                                   i2l3711 1270  
                                 i2l4095 1DB6                                   i2l4087 1D98  
                                 i2l4079 1D7E                                   i2l4351 2518  
                                 i2l4343 24CC                                   i2l4335 2480  
                                 i2l4327 2BB2                                   i2l4319 2B64  
                                 i2l4431 1B8E                                   i2l4423 1B4E  
                                 i2l4415 1B2E                                   i2l4407 1B24  
                                 i2l4193 2168                                   i2l4185 212C  
                                 i2l4177 20F4                                   i2l4169 20C8  
                                 i2l3721 2290                                   i2l3377 2634  
                                 i2l3369 25D4                                   i2l3481 1CB8  
                                 i2l3473 1C84                                   i2l3465 1C42  
                                 i2l3385 2AA2                                   i2l3561 21AA  
                                 i2l3537 1552                                   i2l3529 1532  
                                 i2l3545 1568                                   i2l3449 2F7A  
                                 i2l3609 2C3A                                   i2l3625 268E  
                                 i2l3713 12A4                                   i2l3705 122A  
                                 i2l3801 2418                                   i2l4097 1DCC  
                                 i2l4089 1DA6                                   i2l4345 24F4  
                                 i2l4337 249C                                   i2l4329 2BBE  
                                 i2l4441 1BC6                                   i2l4433 1B9C  
                                 i2l4417 1B34                                   i2l4409 1B28  
                                 i2l4601 0D6C                                   i2l3651 1FA2  
                                 i2l4195 2174                                   i2l4187 213C  
                                 i2l4179 210A                                   i2l3731 22DA  
                                 i2l3723 22A0                                   i2l3379 2650  
                                 i2l3483 1CF6                                   i2l3475 1C90  
                                 i2l3467 1C54                                   i2l3459 1BFE  
                                 i2l3395 2B04                                   i2l3571 21E4  
                                 i2l3539 155A                                   i2l3627 269C  
                                 i2l3635 26BA                                   i2l3715 12B0  
                                 i2l3707 1256                                   i2l3811 2444  
                                 i2l3803 2420                                   i2l4347 24FC  
                                 i2l4339 24A4                                   i2l4291 2E14  
                                 i2l4283 2DEC                                   i2l4451 1BDE  
                                 i2l4443 1BCA                                   i2l4435 1BAA  
                                 i2l4419 1B38                                   i2l4603 0D86  
                                 i2l3661 1FD6                                   i2l3653 1FB2  
                                 i2l3645 1F82                                   i2l4197 2194  
                                 i2l4189 214C                                   i2l3741 231A  
                                 i2l3733 22E6                                   i2l3725 22B4  
                                 i2l3485 1D30                                   i2l3477 1C9C  
                                 i2l3389 2ABE                                   i2l3581 2230  
                                 i2l3573 21EE                                   i2l3565 21B4  
                                 i2l3493 145C                                   i2l3629 26AA  
                                 i2l3901 0936                                   i2l3821 12F6  
                                 i2l3717 12B6                                   i2l3813 2460  
                                 i2l3805 2428                                   i2l4349 2504  
                                 i2l4293 2E16                                   i2l4285 2DF0  
                                 i2l4453 1BE2                                   i2l4445 1BD4  
                                 i2l4437 1BAC                                   i2l4429 1B66  
                                 i2l4621 0DD0                                   i2l4605 0D8A  
                                 i2l4541 0C46                                   i2l3671 202A  
                                 i2l3663 1FE6                                   i2l3655 1FBA  
                                 i2l3647 1F86                                   i2l4199 2196  
                                 i2l3751 235A                                   i2l3743 232E  
                                 i2l3735 22F6                                   i2l3727 22B8  
                                 i2l3479 1CA8                                   i2l3399 2B20  
                                 i2l3583 2244                                   i2l3575 2204  
                                 i2l3567 21C6                                   i2l3591 2268  
                                 i2l3559 219C                                   i2l3911 09A4  
                                 i2l3903 094A                                   i2l3831 1394  
                                 i2l3823 1302                                   i2l3815 12CE  
                                 i2l3719 12BA                                   i2l3807 242C  
                                 i2l4295 2E24                                   i2l4287 2E0C  
                                 i2l4455 1BF2                                   i2l4447 1BD8  
                                 i2l4439 1BBC                                   i2l4391 1AEC  
                                 i2l4383 1ABE                                   i2l4631 0E1A  
                                 i2l4623 0DDE                                   i2l4615 0DC0  
                                 i2l4607 0D9A                                   i2l4551 0C6C  
                                 i2l4543 0C48                                   i2l4535 0C24  
                                 i2l3681 2074                                   i2l3673 2030  
                                 i2l3665 1FEE                                   i2l3657 1FCA  
                                 i2l3649 1F9E                                   i2l3753 236E  
                                 i2l3745 233A                                   i2l3737 2306  
                                 i2l3729 22CA                                   i2l3585 224E  
                                 i2l3577 2214                                   i2l3593 228A  
                                 i2l3569 21D0                                   i2l3497 1470  
                                 i2l3489 1442                                   i2l3921 0A14  
                                 i2l3913 09C0                                   i2l3905 0960  
                                 i2l3841 1402                                   i2l3833 139E  
                                 i2l3825 1312                                   i2l3817 12E2  
                                 i2l3809 243C                                   i2l3761 255C  
                                 i2l4297 2EF0                                   i2l4289 2E0E  
                                 i2l4457 1BF6                                   i2l4449 1BDC  
                                 i2l4393 1AF0                                   i2l4385 1AC0  
                                 i2l4633 0E36                                   i2l4625 0DF2  
                                 i2l4617 0DC4                                   i2l4609 0DAE  
                                 i2l4561 0CA4                                   i2l4553 0C70  
                                 i2l4537 0C34                                   i2l4545 0C4E  
                                 i2l3683 207A                                   i2l3675 2034  
                                 i2l3659 1FCE                                   i2l3747 2346  
                                 i2l3739 230A                                   i2l3579 2226  
                                 i2l3931 0A7E                                   i2l3923 0A1E  
                                 i2l3915 09DE                                   i2l3907 0972  
                                 i2l3835 13AE                                   i2l3827 132E  
                                 i2l3819 12EC                                   i2l3851 1E60  
                                 i2l3771 25A2                                   i2l3763 2568  
                                 i2l3755 251E                                   i2l4299 2EF2  
                                 i2l4395 1AF4                                   i2l4387 1ACC  
                                 i2l4635 0E38                                   i2l4627 0E02  
                                 i2l4619 0DCE                                   i2l4571 0CC8  
                                 i2l4563 0CA6                                   i2l4555 0C7E  
                                 i2l4547 0C5C                                   i2l4539 0C42  
                                 i2l3685 207E                                   i2l3669 2000  
                                 i2l3677 2036                                   i2l3749 234A  
                                 i2l3941 0AFC                                   i2l3933 0A94  
                                 i2l3925 0A2C                                   i2l3917 09F6  
                                 i2l3909 0986                                   i2l3837 13CA  
                                 i2l3829 1360                                   i2l3845 140C  
                                 i2l3861 1EAC                                   i2l3693 1176  
                                 i2l3781 23BC                                   i2l3773 25B8  
                                 i2l3765 2578                                   i2l3757 2526  
                                 i2l4389 1AE8                                   i2l4629 0E12  
                                 i2l4581 0D06                                   i2l4573 0CCC  
                                 i2l4565 0CAA                                   i2l4557 0C92  
                                 i2l4549 0C6A                                   i2l3679 204A  
                                 i2l3687 2080                                   i2l3599 2E2A  
                                 i2l3951 0B56                                   i2l3943 0B12  
                                 i2l3935 0AA2                                   i2l3927 0A4E  
                                 i2l3919 0A04                                   i2l3839 13F8  
                                 i2l3871 1F26                                   i2l3863 1EBA  
                                 i2l3855 1E72                                   i2l3695 1182  
                                 i2l3791 23DE                                   i2l3783 23BE  
                                 i2l3775 25C4                                   i2l3767 2596  
                                 i2l3759 2538                                   i2l4583 0D0A  
                                 i2l4575 0CDA                                   i2l4591 0D30  
                                 i2l4559 0CA0                                   i2l4567 0CAC  
                                 i2l3961 0BC8                                   i2l3953 0B60  
                                 i2l3945 0B1E                                   i2l3937 0ABE  
                                 i2l3929 0A6C                                   i2l3881 1F7C  
                                 i2l3865 1EDC                                   i2l3857 1E82  
                                 i2l3689 1158                                   i2l3793 23E0  
                                 i2l3777 2380                                   i2l3769 259E  
                                 i2l4593 0D3E                                   i2l4585 0D1A  
                                 i2l4577 0CE8                                   i2l4569 0CBA  
                                 i2l3963 0BD4                                   i2l3955 0B6E  
                                 i2l3947 0B2A                                   i2l3939 0AF2  
                                 i2l3891 08EE                                   i2l3867 1EFA  
                                 i2l3859 1E96                                   i2l3875 1F2E  
                                 i2l3699 11B8                                   i2l3795 23F0  
                                 i2l3779 2384                                   i2l3971 183C  
                                 i2l4595 0D4C                                   i2l4587 0D1C  
                                 i2l4579 0D04                                   i2l4739 2942  
                                 i2l3957 0B94                                   i2l3965 0BF4  
                                 i2l3949 0B4A                                   i2l3893 08F2  
                                 i2l3877 1F72                                   i2l3869 1F10  
                                 i2l3797 240C                                   i2l3789 23C2  
                                 i2l3981 1878                                   i2l3973 184E  
                                 i2l4597 0D50                                   i2l4589 0D2C  
                                 i2l3967 0C00                                   i2l3959 0BB0  
                                 i2l3895 0906                                   i2l3887 08C8  
                                 i2l3879 1F7A                                   i2l3799 240E  
                                 i2l3991 18E8                                   i2l3975 185C  
                                 i2l3983 1880                                   i2l4599 0D5E  
                                 i2l3969 0C16                                   i2l3897 090E  
                                 i2l3889 08DA                                   i2l3993 18FC  
                                 i2l3985 18A4                                   i2l3977 1870  
                                 i2l3899 0922                                   i2l3995 1900  
                                 i2l3987 18B0                                   i2l3979 1874  
                                 i2l3997 1904                                   i2l3989 18C8  
                                 i2l3999 1908                                   i2l5961 1E00  
                                 i2l5971 2C5E                                   i2l5963 1F44  
                                 i2l5981 157C                                   i2l5973 2A70  
                                 i2l5965 1422                                   i2l5983 227C  
                                 i2l5975 2DCC                                   i2l5967 26D8  
                                 i2l5985 2AD2                                   i2l5977 2EE0  
                                 i2l5969 271E                                   i2l5987 2B34  
                                 i2l5979 14DE          ??_APP_DeviceCustomHIDInitialize 000F  
               i2USBTransferOnePacket@ep 0009                        ??i2_USBDeviceInit 000D  
                      _shortPacketStatus 004A                          USBDeviceTasks@i 0021  
            USBStdFeatureReqHandler@pUEP 0019                 USBTransferOnePacket@data 002F  
             USBCtrlTrfInHandler@lastDTS 0002                          ??_USBDeviceInit 0030  
                      ??i2_BUTTON_Enable 0001                        _USBEnableEndpoint 2CCE  
                                 _memcpy 2C7E                            ?i2_LED_Enable 0001  
                                 _memset 0FE0                                   clear_0 2F22  
                                 clear_1 2F2E                                   isa$std 0001  
                     ?_USBEnableEndpoint 000B                       __end_of_ADC_Enable 2EC0  
                        ??_BUTTON_Enable 002E                             __mediumconst 0000  
                                 tblptrh 0FF7                                   tblptrl 0FF6  
                                 tblptru 0FF8                      ??_USBEnableEndpoint 000C  
                            _CtrlTrfData 0428                     _controlTransferState 0049  
             ??_APP_DeviceCustomHIDTasks 0085                        _SYSTEM_Initialize 2BC4  
                             __accesstop 0060                  __end_of__initialization 2F34  
                          _ADC_Read10bit 2832                       ?_SYSTEM_Initialize 0001  
                          ___rparam_used 0001                           __pcstackCOMRAM 0001  
              __end_of_USBEnableEndpoint 2D1A                            __end_of_sd000 08C7  
                          __end_of_sd001 083D                            __end_of_sd002 086B  
                    ??_SYSTEM_Initialize 007E                                LED_On@led 0003  
                         ??i2_LED_Enable 0001                          _active_protocol 004C  
                           ??_LED_Enable 002E              __end_of_USBCtrlTrfInHandler 219C  
                ?_APP_LEDUpdateUSBStatus 0001                   i2_USBTransferOnePacket 1BFC  
                           ??_LED_Toggle 002E                                ?i2_memset 0001  
               ??_USBCtrlTrfSetupHandler 0020                  _USBTicksSinceSuspendEnd 003E  
                       ?_USBDeviceAttach 0001                __end_of_SYSTEM_Initialize 2C22  
                       _BUTTON_IsPressed 28A4                   _USBStdGetStatusHandler 1E60  
                             __pbssBANK0 0060                                  ?_LED_On 0001  
                         ?_ADC_Read10bit 002E                       __end_of_LED_Enable 29DC  
                            _pBDTEntryIn 006E         __end_of_USBCtrlEPServiceComplete 197E  
  __end_of_APP_DeviceCustomHIDInitialize 2E5E            _APP_DeviceCustomHIDInitialize 2E2A  
                     __end_of_LED_Toggle 2A3E                     USBCtrlTrfRxService@i 0001  
                          LED_Enable@led 0030           __end_of_APP_LEDUpdateUSBStatus 2290  
                                ?_memcpy 0001                     __end_ofi2_ADC_Enable 2EF0  
                                ?_memset 007E                               _device_dsc 08B1  
                       _USBCtrlEPService 2466                               _ep_data_in 007C  
            __end_of_USBCtrlTrfRxService 183C              APP_DeviceCustomHIDTasks@pot 0087  
                     _USBCheckStdRequest 1D3A                        _configDescriptor1 086B  
                                _LED_Off 2B02              __end_ofi2_SYSTEM_Initialize 2C7E  
                             ??i2_memset 0007              __end_of_USBCtrlTrfTxService 2092  
                    _USBStdSetCfgHandler 2380                   i2_ADC_SetConfiguration 2F68  
                    ?_USBCheckStdRequest 0001                                  _UIEbits 0F69  
                                _UIRbits 0F68           APP_LEDUpdateUSBStatus@ledCount 0036  
                                __Hparam 0000          ??_USBIncrement1msInternalTimers 0001  
                   ?_USBStdSetCfgHandler 0001                                  __Lparam 0000  
                      __end_of_hid_rpt01 08B1        ADC_SetConfiguration@configuration 002E  
    i2ADC_SetConfiguration@configuration 0001                     ??_USBCheckStdRequest 001E  
                       _ToSendDataBuffer 0540                         ??_USBDeviceTasks 0021  
                      ??_USBStallHandler 0001                             __psmallconst 0800  
                                __pcinit 2F1C                __end_of_configDescriptor1 0894  
                                __ramtop 0800                                  __ptext0 2F8E  
                                __ptext1 197E                                  __ptext2 0FE0  
                                __ptext3 2D1A                                  __ptext4 2BC4  
                                __ptext5 297A                                  __ptext6 2D60  
                                __ptext7 2F42                                  __ptext8 2E90  
                                __ptext9 0E4C                             i2memset@dest 0001  
                                _inPipes 0068              _USBDeferOUTDataStagePackets 003F  
                           ??_USBSuspend 0017                          i2_USBDeviceInit 1ABE  
                       i2USBDeviceInit@i 000D                       __end_of_USB_CD_Ptr 0809  
                         __pintcode_body 2910                     end_of_initialization 2F34  
                        ??_ADC_Read10bit 0030                     __end_ofi2_LED_Enable 2AA0  
                     __end_of_USB_SD_Ptr 0807                                  memcpy@d 0007  
                                memcpy@n 0005                                  memcpy@s 0009  
                    _pBDTEntryEP0OutNext 003A                                  memset@c 0080  
                                memset@k 0084                                  memset@n 0082  
                                memset@s 0086                            __Lmediumconst 0000  
                                int_func 2910                          _USB1msTickCount 0032  
                        i2_BUTTON_Enable 2DA6                 ?_USBStdFeatureReqHandler 0001  
                  ??_USBStdSetCfgHandler 0017                       __end_of_USBSuspend 2F1C  
                _USBCtrlEPAllowDataStage 251E                                  postdec2 0FDD  
                                postinc0 0FEE                                  postinc2 0FDE  
               _USBCtrlEPServiceComplete 183C               _USBStatusStageEnabledFlag1 0042  
             _USBStatusStageEnabledFlag2 0041                       USBEnableEndpoint@p 000C  
                              _PORTBbits 0F81                            LED_Toggle@led 0030  
                              _TRISAbits 0F92                                _TRISBbits 0F93  
                              _TRISDbits 0F95                       _ReceivedDataBuffer 0500  
                     _BothEP0OutUOWNsSet 0045                USBConfigureEndpoint@EPNum 0008  
             ?_USBCtrlEPAllowStatusStage 0001      USER_USB_CALLBACK_EVENT_HANDLER@size 0013  
                              _USTATcopy 004E             __end_of_USBTransferOnePacket 16F8  
                         __end_of_LED_On 2B02                   _USBCtrlTrfSetupHandler 272E  
               __end_of_BUTTON_IsPressed 2910                  ?i2_USBTransferOnePacket 0001  
                  __end_of_USBDeviceInit 1ABE    __end_of_USBIncrement1msInternalTimers 2E90  
          _USBIncrement1msInternalTimers 2E5E                               LED_Off@led 0003  
                __end_ofi2_USBDeviceInit 1BFC                                i2memset@c 0003  
                              i2memset@k 0009                                i2memset@n 0005  
                              i2memset@s 000B                           __end_of_memcpy 2CCE  
                         __end_of_memset 1158                        _USBBusIsSuspended 0047  
                    start_initialization 2F1C                  ?_USBStdGetStatusHandler 0001  
               i2SYSTEM_Initialize@state 0006                    __end_of_BUTTON_Enable 2DA6  
          USBCtrlTrfRxService@byteToRead 0002                  __end_ofi2_BUTTON_Enable 2DEC  
           __end_of_USBConfigureEndpoint 2682          __end_of_USBStdFeatureReqHandler 0C24  
                               ??_LED_On 0001        __end_of_USBCtrlEPAllowStatusStage 2380  
                           i2_ADC_Enable 2EC0                 __end_of_USBCtrlEPService 251E  
              ??_USBCtrlEPAllowDataStage 0002                           USBDeviceInit@i 0030  
                 _pBDTEntryEP0OutCurrent 003C                  USBTransferOnePacket@dir 002E  
                USBTransferOnePacket@len 0031           __end_ofi2_USBTransferOnePacket 1D3A  
           __end_of_ADC_SetConfiguration 2F68                      _USBStdGetDscHandler 12CE  
              ?_APP_DeviceCustomHIDTasks 0001                                 ??_memcpy 0007  
                               ??_memset 002E                               memset@dest 007E  
                 BUTTON_IsPressed@button 0030                   _USBActiveConfiguration 0050  
         __end_of_USBStdGetStatusHandler 1F82                                 ?_LED_Off 0001  
                ?i2_ADC_SetConfiguration 0001                              __pbssCOMRAM 0032  
                          __pcstackBANK0 007E                     ?_USBStdGetDscHandler 0001  
             __end_of_USBWakeFromSuspend 2E2A                          _USBStallHandler 2B64  
                    i2ADC_Enable@channel 0003                             _pBDTEntryOut 0072  
                  i2BUTTON_Enable@button 0003                                __pintcode 0008  
                              _hid_rpt01 0894                                _idle_rate 004D  
                           i2_LED_Enable 2A3E                         ?i2_USBDeviceInit 0001  
         __end_ofi2_ADC_SetConfiguration 2F8E                     _USBTransferOnePacket 15B4  
                            __smallconst 0800             __end_of_USBCtrlTrfOutHandler 2832  
                  ??_USBStdGetDscHandler 0001                              _ep_data_out 007A  
                       ?i2_BUTTON_Enable 0001            USBConfigureEndpoint@direction 0001  
                               _LATDbits 0F8C               __end_of_USBCheckHIDRequest 15B4  
             ??_USBCtrlEPServiceComplete 0002                                 _IPR2bits 0FA2  
                               _PIE2bits 0FA0                                 i2u200_40 12E2  
                               i2u200_41 12DE                                 i2u201_40 1312  
                               i2u201_41 130E                                 i2u202_40 135C  
                               i2u210_40 1F26                                 i2u210_41 1F22  
                               i2u202_47 1352                                 i2u203_40 138C  
                               i2u211_40 1F72                                 i2u211_41 1F6E  
                               i2u203_47 1382                                 i2u220_40 0986  
                               i2u212_40 08DA                                 i2u204_40 13AE  
                               i2u300_40 0DDE                                 i2u220_41 0982  
                               i2u212_41 08D6                                 i2u204_41 13AA  
                               i2u300_41 0DDA                                 i2u221_40 0A04  
                               i2u213_40 08EE                                 i2u205_40 13EA  
                               i2u301_40 0E12                                 i2u221_41 0A00  
                               i2u213_41 08EA                                 i2u301_41 0E0E  
                               i2u205_47 13E0                                 i2u222_40 0A2C  
                               i2u214_40 0906                                 i2u206_40 1E82  
                               i2u230_40 184E                                 i2u302_40 0E48  
                               i2u222_41 0A28                                 i2u214_41 0902  
                               i2u206_41 1E7E                                 i2u230_41 184A  
                               i2u302_41 0E44                                 i2u223_40 0A7E  
                               i2u215_40 0922                                 i2u207_40 1EAC  
                               i2u231_40 185C                                 i2u223_41 0A7A  
                               i2u215_41 091E                                 i2u207_41 1EA8  
                               i2u231_41 1858                                 i2u240_40 17B0  
                               i2u160_40 2634                                 i2u224_40 0A94  
                               i2u216_40 0936                                 i2u208_40 1EBA  
                               i2u232_40 1870                                 i2u240_41 17AC  
                               i2u160_41 2630                                 i2u224_41 0A90  
                               i2u216_41 0932                                 i2u208_41 1EB6  
                               i2u232_41 186C                                 i2u241_40 1836  
                               i2u161_40 2CDE                                 i2u225_40 0AA2  
                               i2u217_40 094A                                 i2u209_40 1F10  
                               i2u233_40 18E8                                 i2u241_41 1832  
                               i2u161_41 2CDA                                 i2u225_41 0A9E  
                               i2u217_41 0946                                 i2u209_41 1F0C  
                               i2u233_41 18E4                                 i2u250_40 214C  
                               i2u162_40 2CF6                                 i2u170_40 1496  
                               i2u226_40 0B12                                 i2u218_40 0960  
                               i2u242_40 1D52                                 i2u234_40 18FC  
                               i2u250_41 2148                                 i2u162_41 2CF2  
                               i2u170_41 1492                                 i2u226_41 0B0E  
                               i2u218_41 095C                                 i2u242_41 1D4E  
                               i2u234_41 18F8                                 i2u251_40 2194  
                               i2u171_40 1514                                 i2u163_40 2F7A  
                               i2u227_40 0B6E                                 i2u219_40 0972  
                               i2u235_40 1918                                 i2u243_40 2CCC  
                               i2u251_41 2190                                 i2u171_41 1510  
                               i2u163_41 2F76                                 i2u227_41 0B6A  
                               i2u219_41 096E                                 i2u235_41 1914  
                               i2u243_41 2CC8                                 i2u180_40 1FB2  
                               i2u244_40 27D0                                 i2u164_40 1C0E  
                               i2u172_40 21AA                                 i2u228_40 0B84  
                               i2u236_40 1978                                 i2u180_41 1FAE  
                               i2u244_41 27CC                                 i2u164_41 1C0A  
                               i2u172_41 21A6                                 i2u228_41 0B80  
                               i2u236_41 1974                                 i2u181_40 1FCA  
                               i2u237_40 1720                                 i2u245_40 27EC  
                               i2u165_40 1C54                                 i2u173_40 21C6  
                               i2u229_40 0B94                                 i2u181_41 1FC6  
                               i2u237_41 171C                                 i2u245_41 27E8  
                               i2u165_41 1C50                                 i2u173_41 21C2  
                               i2u229_41 0B90                                 i2u182_40 1FFC  
                               i2u246_40 20C0                                 i2u238_40 1764  
                               i2u166_40 1CB8                                 i2u174_40 21E4  
                               i2u190_40 126C                                 i2u270_40 2518  
                               i2u262_40 2E24                                 i2u182_41 1FF8  
                               i2u246_41 20BC                                 i2u238_41 1760  
                               i2u166_41 1CB4                                 i2u174_41 21E0  
                               i2u190_41 1268                                 i2u270_41 2514  
                               i2u262_41 2E20                                 i2u183_40 2028  
                               i2u247_40 20D8                                 i2u239_40 1776  
                               i2u175_40 2204                                 i2u167_40 1458  
                               i2u191_40 12CC                                 i2u263_40 2E7A  
                               i2u247_41 20D4                                 i2u239_41 1772  
                               i2u175_41 2200                                 i2u167_41 1454  
                               i2u191_41 12C8                                 i2u263_41 2E76  
                               i2u183_47 201E                                 i2u184_40 2046  
                               i2u248_40 20F4                                 i2u192_40 22A0  
                               i2u176_40 2226                                 i2u168_40 146C  
                               i2u264_40 2E8C                                 i2u280_40 0C34  
                               i2u184_41 2042                                 i2u248_41 20F0  
                               i2u192_41 229C                                 i2u176_41 2222  
                               i2u168_41 1468                                 i2u264_41 2E88  
                               i2u280_41 0C30                                 i2u185_40 2072  
                               i2u249_40 2120                                 i2u193_40 22B4  
                               i2u177_40 2244                                 i2u169_40 1482  
                               i2u265_40 2B72                                 i2u281_40 0C42  
                               i2u249_41 211C                                 i2u193_41 22B0  
                               i2u177_41 2240                                 i2u169_41 147E  
                               i2u265_41 2B6E                                 i2u281_41 0C3E  
                               i2u185_47 2068                                 i2u186_40 2090  
                               i2u194_40 22CA                                 i2u178_40 2264  
                               i2u266_40 2B8C                                 i2u274_40 1B22  
                               i2u290_40 0CE8                                 i2u282_40 0C5C  
                               i2u186_41 208C                                 i2u194_41 22C6  
                               i2u178_41 2260                                 i2u266_41 2B88  
                               i2u274_41 1B1E                                 i2u290_41 0CE4  
                               i2u282_41 0C58                                 i2u179_40 1F9E  
                               i2u195_40 2306                                 i2u187_40 1172  
                               i2u267_40 2BA6                                 i2u275_40 1B4E  
                               i2u291_40 0D1A                                 i2u283_40 0C6A  
                               i2u179_41 1F9A                                 i2u195_41 2302  
                               i2u187_41 116E                                 i2u267_41 2BA2  
                               i2u275_41 1B4A                                 i2u291_41 0D16  
                               i2u283_41 0C66                                 _PIR2bits 0FA1  
                               i2u188_40 11B4                                 i2u196_40 2538  
                               i2u268_40 2480                                 i2u276_40 1BBC  
                               i2u292_40 0D2C                                 i2u284_40 0C7E  
                               i2u188_41 11B0                                 i2u196_41 2534  
                               i2u268_41 247C                                 i2u276_41 1BB8  
                               i2u292_41 0D28                                 i2u284_41 0C7A  
                               i2u189_40 1226                                 i2u197_40 2596  
                               i2u269_40 24CC                                 i2u293_40 0D3E  
                               i2u285_40 0C92                                 i2u189_41 1222  
                               i2u197_41 2592                                 i2u269_41 24C8  
                               i2u293_41 0D3A                                 i2u285_41 0C8E  
                               i2u198_40 23F0                                 i2u294_40 0D4C  
                               i2u286_40 0CA0                                 i2u198_41 23EC  
                               i2u294_41 0D48                                 i2u286_41 0C9C  
                               i2u199_40 243C                                 i2u295_40 0D5E  
                               i2u287_40 0CBA                                 i2u199_41 2438  
                               i2u295_41 0D5A                                 i2u287_41 0CB6  
                               i2u296_40 0D6C                                 i2u288_40 0CC8  
                               i2u296_41 0D68                                 i2u288_41 0CC4  
                               i2u297_40 0D9A                                 i2u289_40 0CDA  
                               i2u297_41 0D96                                 i2u289_41 0CD6  
                               i2u298_40 0DAE                                 i2u298_41 0DAA  
                               i2u299_40 0DC0                                 i2u299_41 0DBC  
                               _RCONbits 0FD0                                 _UEP0bits 0F70  
             _USBDeferINDataStagePackets 0040                                 _UCONbits 0F6D  
                   _USBConfigureEndpoint 25D2                               _ADCON0bits 0FC2  
                             _ADCON1bits 0FC1                               _ADCON2bits 0FC0  
                  ?_USBTransferOnePacket 002E                          i2LED_Enable@led 0003  
                      _SYS_InterruptHigh 0008                             _RemoteWakeup 0048  
                               i2_memset 1158                       ?_SYS_InterruptHigh 0001  
                __end_of_USBStallHandler 2BC4                     _ADC_SetConfiguration 2F42  
            ??_USBCtrlEPAllowStatusStage 0001              __end_of_USBStdSetCfgHandler 2466  
                             _ADC_Enable 2E90                      ??_SYS_InterruptHigh 0022  
                  __end_of_ADC_Read10bit 28A4                       __end_of_device_dsc 08C3  
               ??_APP_LEDUpdateUSBStatus 0004                  ?_USBCtrlTrfSetupHandler 0001  
                USBStdGetStatusHandler@p 0003                                 __Hrparam 0000  
                              memcpy@tmp 000B                                 __Lrparam 0000  
                 USBTransferOnePacket@ep 0082                                 _SetupPkt 0420  
                  ?_USBConfigureEndpoint 0001                        ??_USBDeviceAttach 002E  
                      ?_BUTTON_IsPressed 0001                __end_of_SYS_InterruptHigh 297A  
                     ??_BUTTON_IsPressed 002E                                 __ptext10 15B4  
                               __ptext11 29DC                                 __ptext20 2E5E  
                               __ptext12 28A4                                 __ptext21 2466  
                               __ptext13 2832                                 __ptext30 12CE  
                               __ptext22 2C7E                                 __ptext31 08C8  
                               __ptext23 272E                                 __ptext15 0C24  
                               __ptext40 2AA0                                 __ptext32 2682  
                               __ptext24 183C                                 __ptext16 1ABE  
                               __ptext41 2B02                                 __ptext33 2C22  
                               __ptext25 251E                                 __ptext17 2DEC  
                               __ptext50 1F82                                 __ptext42 2E2A  
                               __ptext34 2A3E                                 __ptext26 1D3A  
                               __ptext18 2EF0                                 __ptext43 1BFC  
                               __ptext35 2DA6                                 __ptext27 2380  
                               __ptext19 2B64                                 __ptext44 2CCE  
                               __ptext36 2F68                                 __ptext28 1158  
                               __ptext45 25D2                                 __ptext37 2EC0  
                               __ptext29 1E60                                 __ptext46 27BE  
                               __ptext38 1442                                 __ptext47 16F8  
                               __ptext39 219C                                 __ptext48 2290  
                               __ptext49 2092                    ?_ADC_SetConfiguration 0001  
       __end_of_APP_DeviceCustomHIDTasks 0FE0           __end_of_USBCtrlTrfSetupHandler 27BE  
                      ?_USBCtrlEPService 0001                       ??_USBCtrlEPService 0020  
                    _USBCtrlTrfInHandler 2092                                 isa$xinst 0000  
                    BUTTON_Enable@button 0030                                 _outPipes 0060  
                   _USBCtrlTrfOutHandler 27BE                                 int$flags 0051  
              _USBCtrlEPAllowStatusStage 2290                               _LED_Enable 297A  
                 ??_USBTransferOnePacket 007E           ?_APP_DeviceCustomHIDInitialize 0001  
                             _LED_Toggle 29DC                _USBDeferStatusStagePacket 0043  
                             _INTCONbits 0FF2                     ?_USBCtrlTrfInHandler 0001  
                               memcpy@d1 0001                                 memcpy@s1 0003  
          USBCtrlTrfTxService@byteToSend 0001                         ?_USBStallHandler 0001  
               USBStdFeatureReqHandler@p 001C                                 intlevel2 0000  
                            ?_ADC_Enable 0001  __end_of_USER_USB_CALLBACK_EVENT_HANDLER 272E  
      ??_USER_USB_CALLBACK_EVENT_HANDLER 0015         ?_USER_USB_CALLBACK_EVENT_HANDLER 000F  
        _USER_USB_CALLBACK_EVENT_HANDLER 2682             i2USBTransferOnePacket@handle 000A  
                   ADC_Read10bit@channel 0080               i2USBTransferOnePacket@data 0002  
                 ??_USBConfigureEndpoint 0002                    ?_USBCtrlTrfOutHandler 0001  
                    _USBCtrlTrfRxService 16F8                       _USBWakeFromSuspend 2DEC  
                _USBStdFeatureReqHandler 08C8                      i2_SYSTEM_Initialize 2C22  
                    _USBCtrlTrfTxService 1F82                        ADC_Enable@channel 0030  
                    ?_USBWakeFromSuspend 0001                    ??_USBCtrlTrfInHandler 0002  
                  _USBAlternateInterface 004F                   ??_ADC_SetConfiguration 002E  
              i2USBTransferOnePacket@dir 0001                i2USBTransferOnePacket@len 0004  
                    USBEnableEndpoint@ep 000E                          _endpoint_number 0046  
                    ADC_Read10bit@result 007E                     ?_USBCtrlTrfRxService 0001  
                   ?i2_SYSTEM_Initialize 0001                 ?_USBCtrlEPAllowDataStage 0001  
                   ?_USBCtrlTrfTxService 0001             _USBStatusStageTimeoutCounter 0044  
                   ??_USBWakeFromSuspend 0017               USBTransferOnePacket@handle 0083  
                             _USB_CD_Ptr 0807                              _USBInHandle 0076  
               _APP_DeviceCustomHIDTasks 0E4C  
